///////////////////////////////////////////////////////////////////////////////
//                                                                            /
// IAR C/C++ Compiler V8.10.3.10338/W32 for 8051        03/Jul/2019  09:48:55 /
// Copyright 2004-2011 IAR Systems AB.                                        /
//                                                                            /
//    Core               =  plain                                             /
//    Code model         =  banked                                            /
//    Data model         =  large                                             /
//    Calling convention =  xdata reentrant                                   /
//    Constant location  =  data_rom                                          /
//    Dptr setup         =  1,16                                              /
//    Source file        =  H:\ÏîÄ¿\2019.5\ÍúÍú£¨lwk474153686£©\ZStack-2.5.1a /
//                          \Projects\zstack\Samples\SampleApp\Source\MPU6050 /
//                          \eMPL\inv_mpu_dmp_motion_driver.c                 /
//    Command line       =  -f H:\ÏîÄ¿\2019.5\ÍúÍú£¨lwk474153686£©\ZStack-2.5 /
//                          .1a\Projects\zstack\Samples\SampleApp\CC2530DB\.. /
//                          \..\..\Tools\CC2530DB\f8wEndev.cfg (-DCPU32MHZ    /
//                          -DROOT=__near_func -DMAC_CFG_TX_DATA_MAX=3        /
//                          -DMAC_CFG_TX_MAX=6 -DMAC_CFG_RX_MAX=3) -f         /
//                          H:\ÏîÄ¿\2019.5\ÍúÍú£¨lwk474153686£©\ZStack-2.5.1a /
//                          \Projects\zstack\Samples\SampleApp\CC2530DB\..\.. /
//                          \..\Tools\CC2530DB\f8wConfig.cfg (-DZIGBEEPRO     /
//                          -DSECURE=0 -DZG_SECURE_DYNAMIC=0 -DREFLECTOR      /
//                          -DDEFAULT_CHANLIST=0x00000800                     /
//                          -DZDAPP_CONFIG_PAN_ID=0xFFF1                      /
//                          -DNWK_START_DELAY=100 -DEXTENDED_JOINING_RANDOM_M /
//                          ASK=0x007F -DBEACON_REQUEST_DELAY=100             /
//                          -DBEACON_REQ_DELAY_MASK=0x00FF                    /
//                          -DLINK_STATUS_JITTER_MASK=0x007F                  /
//                          -DROUTE_EXPIRY_TIME=30 -DAPSC_ACK_WAIT_DURATION_P /
//                          OLLED=3000 -DNWK_INDIRECT_MSG_TIMEOUT=7           /
//                          -DMAX_RREQ_ENTRIES=8 -DAPSC_MAX_FRAME_RETRIES=3   /
//                          -DNWK_MAX_DATA_RETRIES=2                          /
//                          -DMAX_POLL_FAILURE_RETRIES=2 -DMAX_BCAST=9        /
//                          -DAPS_MAX_GROUPS=16 -DMAX_RTG_ENTRIES=40          /
//                          -DNWK_MAX_BINDING_ENTRIES=4                       /
//                          -DMAX_BINDING_CLUSTER_IDS=4                       /
//                          "-DDEFAULT_KEY={0x01, 0x03, 0x05, 0x07, 0x09,     /
//                          0x0B, 0x0D, 0x0F, 0x00, 0x02, 0x04, 0x06, 0x08,   /
//                          0x0A, 0x0C, 0x0D}" -DMAC_MAX_FRAME_SIZE=116       /
//                          -DZDNWKMGR_MIN_TRANSMISSIONS=20 "-DCONST=const    /
//                          __code" -DGENERIC=__generic                       /
//                          -DRFD_RCVC_ALWAYS_ON=FALSE -DPOLL_RATE=1000       /
//                          -DQUEUED_POLL_RATE=100 -DRESPONSE_POLL_RATE=100)  /
//                          -DREJOIN_POLL_RATE=440 H:\ÏîÄ¿\2019.5\ÍúÍú£¨lwk47 /
//                          4153686£©\ZStack-2.5.1a\Projects\zstack\Samples\S /
//                          ampleApp\Source\MPU6050\eMPL\inv_mpu_dmp_motion_d /
//                          river.c -D NWK_AUTO_POLL -D ZTOOL_P1 -D MT_TASK   /
//                          -D MT_SYS_FUNC -D MT_ZDO_FUNC -D                  /
//                          LCD_SUPPORTED=DEBUG -lC                           /
//                          H:\ÏîÄ¿\2019.5\ÍúÍú£¨lwk474153686£©\ZStack-2.5.1a /
//                          \Projects\zstack\Samples\SampleApp\CC2530DB\EndDe /
//                          viceEB\List\ -lA H:\ÏîÄ¿\2019.5\ÍúÍú£¨lwk47415368 /
//                          6£©\ZStack-2.5.1a\Projects\zstack\Samples\SampleA /
//                          pp\CC2530DB\EndDeviceEB\List\ --diag_suppress     /
//                          Pe001,Pa010 -o H:\ÏîÄ¿\2019.5\ÍúÍú£¨lwk474153686£ /
//                          ©\ZStack-2.5.1a\Projects\zstack\Samples\SampleApp /
//                          \CC2530DB\EndDeviceEB\Obj\ -e --no_code_motion    /
//                          --debug --core=plain --dptr=16,1                  /
//                          --data_model=large --code_model=banked            /
//                          --calling_convention=xdata_reentrant              /
//                          --place_constants=data_rom --nr_virtual_regs 16   /
//                          -I H:\ÏîÄ¿\2019.5\ÍúÍú£¨lwk474153686£©\ZStack-2.5 /
//                          .1a\Projects\zstack\Samples\SampleApp\CC2530DB\   /
//                          -I H:\ÏîÄ¿\2019.5\ÍúÍú£¨lwk474153686£©\ZStack-2.5 /
//                          .1a\Projects\zstack\Samples\SampleApp\CC2530DB\.. /
//                          \Source\ -I H:\ÏîÄ¿\2019.5\ÍúÍú£¨lwk474153686£©\Z /
//                          Stack-2.5.1a\Projects\zstack\Samples\SampleApp\CC /
//                          2530DB\..\Source\MPU6050\ -I                      /
//                          H:\ÏîÄ¿\2019.5\ÍúÍú£¨lwk474153686£©\ZStack-2.5.1a /
//                          \Projects\zstack\Samples\SampleApp\CC2530DB\..\So /
//                          urce\MPU6050\eMPL\ -I H:\ÏîÄ¿\2019.5\ÍúÍú£¨lwk474 /
//                          153686£©\ZStack-2.5.1a\Projects\zstack\Samples\Sa /
//                          mpleApp\CC2530DB\..\..\..\ZMain\TI2530DB\ -I      /
//                          H:\ÏîÄ¿\2019.5\ÍúÍú£¨lwk474153686£©\ZStack-2.5.1a /
//                          \Projects\zstack\Samples\SampleApp\CC2530DB\..\.. /
//                          \..\..\..\Components\hal\include\ -I              /
//                          H:\ÏîÄ¿\2019.5\ÍúÍú£¨lwk474153686£©\ZStack-2.5.1a /
//                          \Projects\zstack\Samples\SampleApp\CC2530DB\..\.. /
//                          \..\..\..\Components\hal\target\CC2530EB\ -I      /
//                          H:\ÏîÄ¿\2019.5\ÍúÍú£¨lwk474153686£©\ZStack-2.5.1a /
//                          \Projects\zstack\Samples\SampleApp\CC2530DB\..\.. /
//                          \..\..\..\Components\mac\include\ -I              /
//                          H:\ÏîÄ¿\2019.5\ÍúÍú£¨lwk474153686£©\ZStack-2.5.1a /
//                          \Projects\zstack\Samples\SampleApp\CC2530DB\..\.. /
//                          \..\..\..\Components\mac\high_level\ -I           /
//                          H:\ÏîÄ¿\2019.5\ÍúÍú£¨lwk474153686£©\ZStack-2.5.1a /
//                          \Projects\zstack\Samples\SampleApp\CC2530DB\..\.. /
//                          \..\..\..\Components\mac\low_level\srf04\ -I      /
//                          H:\ÏîÄ¿\2019.5\ÍúÍú£¨lwk474153686£©\ZStack-2.5.1a /
//                          \Projects\zstack\Samples\SampleApp\CC2530DB\..\.. /
//                          \..\..\..\Components\mac\low_level\srf04\single_c /
//                          hip\ -I H:\ÏîÄ¿\2019.5\ÍúÍú£¨lwk474153686£©\ZStac /
//                          k-2.5.1a\Projects\zstack\Samples\SampleApp\CC2530 /
//                          DB\..\..\..\..\..\Components\mt\ -I               /
//                          H:\ÏîÄ¿\2019.5\ÍúÍú£¨lwk474153686£©\ZStack-2.5.1a /
//                          \Projects\zstack\Samples\SampleApp\CC2530DB\..\.. /
//                          \..\..\..\Components\osal\include\ -I             /
//                          H:\ÏîÄ¿\2019.5\ÍúÍú£¨lwk474153686£©\ZStack-2.5.1a /
//                          \Projects\zstack\Samples\SampleApp\CC2530DB\..\.. /
//                          \..\..\..\Components\services\saddr\ -I           /
//                          H:\ÏîÄ¿\2019.5\ÍúÍú£¨lwk474153686£©\ZStack-2.5.1a /
//                          \Projects\zstack\Samples\SampleApp\CC2530DB\..\.. /
//                          \..\..\..\Components\services\sdata\ -I           /
//                          H:\ÏîÄ¿\2019.5\ÍúÍú£¨lwk474153686£©\ZStack-2.5.1a /
//                          \Projects\zstack\Samples\SampleApp\CC2530DB\..\.. /
//                          \..\..\..\Components\stack\af\ -I                 /
//                          H:\ÏîÄ¿\2019.5\ÍúÍú£¨lwk474153686£©\ZStack-2.5.1a /
//                          \Projects\zstack\Samples\SampleApp\CC2530DB\..\.. /
//                          \..\..\..\Components\stack\nwk\ -I                /
//                          H:\ÏîÄ¿\2019.5\ÍúÍú£¨lwk474153686£©\ZStack-2.5.1a /
//                          \Projects\zstack\Samples\SampleApp\CC2530DB\..\.. /
//                          \..\..\..\Components\stack\sapi\ -I               /
//                          H:\ÏîÄ¿\2019.5\ÍúÍú£¨lwk474153686£©\ZStack-2.5.1a /
//                          \Projects\zstack\Samples\SampleApp\CC2530DB\..\.. /
//                          \..\..\..\Components\stack\sec\ -I                /
//                          H:\ÏîÄ¿\2019.5\ÍúÍú£¨lwk474153686£©\ZStack-2.5.1a /
//                          \Projects\zstack\Samples\SampleApp\CC2530DB\..\.. /
//                          \..\..\..\Components\stack\sys\ -I                /
//                          H:\ÏîÄ¿\2019.5\ÍúÍú£¨lwk474153686£©\ZStack-2.5.1a /
//                          \Projects\zstack\Samples\SampleApp\CC2530DB\..\.. /
//                          \..\..\..\Components\stack\zdo\ -I                /
//                          H:\ÏîÄ¿\2019.5\ÍúÍú£¨lwk474153686£©\ZStack-2.5.1a /
//                          \Projects\zstack\Samples\SampleApp\CC2530DB\..\.. /
//                          \..\..\..\Components\zmac\ -I                     /
//                          H:\ÏîÄ¿\2019.5\ÍúÍú£¨lwk474153686£©\ZStack-2.5.1a /
//                          \Projects\zstack\Samples\SampleApp\CC2530DB\..\.. /
//                          \..\..\..\Components\zmac\f8w\ -Ohz               /
//    List file          =  H:\ÏîÄ¿\2019.5\ÍúÍú£¨lwk474153686£©\ZStack-2.5.1a /
//                          \Projects\zstack\Samples\SampleApp\CC2530DB\EndDe /
//                          viceEB\List\inv_mpu_dmp_motion_driver.s51         /
//                                                                            /
//                                                                            /
///////////////////////////////////////////////////////////////////////////////

        NAME inv_mpu_dmp_motion_driver

        RTMODEL "__SystemLibrary", "CLib"
        RTMODEL "__calling_convention", "xdata_reentrant"
        RTMODEL "__code_model", "banked"
        RTMODEL "__core", "plain"
        RTMODEL "__data_model", "large"
        RTMODEL "__dptr_size", "16"
        RTMODEL "__extended_stack", "disabled"
        RTMODEL "__location_for_constants", "data"
        RTMODEL "__number_of_dptrs", "1"
        RTMODEL "__rt_version", "1"

        RSEG DOVERLAY:DATA:NOROOT(0)
        RSEG IOVERLAY:IDATA:NOROOT(0)
        RSEG ISTACK:IDATA:NOROOT(0)
        RSEG PSTACK:XDATA:NOROOT(0)
        RSEG XSTACK:XDATA:NOROOT(0)

        EXTERN ?ALLOC_XSTACK8
        EXTERN ?BANKED_ENTER_XDATA
        EXTERN ?BANKED_LEAVE_XDATA
        EXTERN ?BDISPATCH
        EXTERN ?BRET
        EXTERN ?CALL_IND
        EXTERN ?DEALLOC_XSTACK8
        EXTERN ?FLT_DIV
        EXTERN ?FLT_MUL
        EXTERN ?FLT_TO_L
        EXTERN ?L_ADD
        EXTERN ?L_ADD_X
        EXTERN ?L_DIV_MOD
        EXTERN ?L_IOR
        EXTERN ?L_MOV_TO_X
        EXTERN ?L_MOV_X
        EXTERN ?L_MUL
        EXTERN ?L_NEG
        EXTERN ?L_SHL
        EXTERN ?MOVE_LONG8_XDATA_XDATA
        EXTERN ?PUSH_XSTACK_I_TWO
        EXTERN ?SL_SHR
        EXTERN ?SS_SHR
        EXTERN ?S_SHL
        EXTERN ?UL_DIV_MOD
        EXTERN ?UL_GE_X
        EXTERN ?UL_SHR
        EXTERN ?UL_TO_FLT
        EXTERN ?US_DIV_MOD
        EXTERN ?V0
        EXTERN ?XLOAD_R2345
        EXTERN ?XSP
        EXTERN ?XSTACK_DISP0_8
        EXTERN ?XSTORE_R2345
        EXTERN __INIT_XDATA_Z

        PUBLIC ??dmp_enable_6x_lp_quat?relay
        FUNCTION ??dmp_enable_6x_lp_quat?relay,0203H
        PUBLIC ??dmp_enable_feature?relay
        FUNCTION ??dmp_enable_feature?relay,0203H
        PUBLIC ??dmp_enable_gyro_cal?relay
        FUNCTION ??dmp_enable_gyro_cal?relay,0203H
        PUBLIC ??dmp_enable_lp_quat?relay
        FUNCTION ??dmp_enable_lp_quat?relay,0203H
        PUBLIC ??dmp_get_enabled_features?relay
        FUNCTION ??dmp_get_enabled_features?relay,0203H
        PUBLIC ??dmp_get_fifo_rate?relay
        FUNCTION ??dmp_get_fifo_rate?relay,0203H
        PUBLIC ??dmp_get_pedometer_step_count?relay
        FUNCTION ??dmp_get_pedometer_step_count?relay,0203H
        PUBLIC ??dmp_get_pedometer_walk_time?relay
        FUNCTION ??dmp_get_pedometer_walk_time?relay,0203H
        PUBLIC ??dmp_load_motion_driver_firmware?relay
        FUNCTION ??dmp_load_motion_driver_firmware?relay,0203H
        PUBLIC ??dmp_read_fifo?relay
        FUNCTION ??dmp_read_fifo?relay,0203H
        PUBLIC ??dmp_register_android_orient_cb?relay
        FUNCTION ??dmp_register_android_orient_cb?relay,0203H
        PUBLIC ??dmp_register_tap_cb?relay
        FUNCTION ??dmp_register_tap_cb?relay,0203H
        PUBLIC ??dmp_set_accel_bias?relay
        FUNCTION ??dmp_set_accel_bias?relay,0203H
        PUBLIC ??dmp_set_fifo_rate?relay
        FUNCTION ??dmp_set_fifo_rate?relay,0203H
        PUBLIC ??dmp_set_gyro_bias?relay
        FUNCTION ??dmp_set_gyro_bias?relay,0203H
        PUBLIC ??dmp_set_interrupt_mode?relay
        FUNCTION ??dmp_set_interrupt_mode?relay,0203H
        PUBLIC ??dmp_set_orientation?relay
        FUNCTION ??dmp_set_orientation?relay,0203H
        PUBLIC ??dmp_set_pedometer_step_count?relay
        FUNCTION ??dmp_set_pedometer_step_count?relay,0203H
        PUBLIC ??dmp_set_pedometer_walk_time?relay
        FUNCTION ??dmp_set_pedometer_walk_time?relay,0203H
        PUBLIC ??dmp_set_shake_reject_thresh?relay
        FUNCTION ??dmp_set_shake_reject_thresh?relay,0203H
        PUBLIC ??dmp_set_shake_reject_time?relay
        FUNCTION ??dmp_set_shake_reject_time?relay,0203H
        PUBLIC ??dmp_set_shake_reject_timeout?relay
        FUNCTION ??dmp_set_shake_reject_timeout?relay,0203H
        PUBLIC ??dmp_set_tap_axes?relay
        FUNCTION ??dmp_set_tap_axes?relay,0203H
        PUBLIC ??dmp_set_tap_count?relay
        FUNCTION ??dmp_set_tap_count?relay,0203H
        PUBLIC ??dmp_set_tap_thresh?relay
        FUNCTION ??dmp_set_tap_thresh?relay,0203H
        PUBLIC ??dmp_set_tap_time?relay
        FUNCTION ??dmp_set_tap_time?relay,0203H
        PUBLIC ??dmp_set_tap_time_multi?relay
        FUNCTION ??dmp_set_tap_time_multi?relay,0203H
        PUBWEAK __Constant_14
        PUBWEAK __Constant_2000001
        PUBWEAK __Constant_3b86e0
        PUBWEAK __Constant_3e8
        PUBWEAK __Constant_43480000
        PUBWEAK __Constant_44c00000
        PUBWEAK __Constant_45000000
        PUBWEAK __Constant_45400000
        PUBWEAK __Constant_45800000
        PUBWEAK __Constant_45c00000
        PUBWEAK __Constant_46000000
        PUBWEAK __Constant_46400000
        PUBWEAK __Constant_46800000
        PUBWEAK __Constant_f1000000
        PUBLIC dmp_enable_6x_lp_quat
        FUNCTION dmp_enable_6x_lp_quat,021203H
        ARGFRAME XSTACK, 20, STACK
        ARGFRAME IOVERLAY, 0, STATIC
        ARGFRAME DOVERLAY, 0, STATIC
        LOCFRAME XSTACK, 16, STACK
        PUBLIC dmp_enable_feature
        FUNCTION dmp_enable_feature,021203H
        ARGFRAME XSTACK, 0, STACK
        LOCFRAME XSTACK, 22, STACK
        PUBLIC dmp_enable_gyro_cal
        FUNCTION dmp_enable_gyro_cal,021203H
        ARGFRAME XSTACK, 20, STACK
        ARGFRAME IOVERLAY, 0, STATIC
        ARGFRAME DOVERLAY, 0, STATIC
        LOCFRAME ISTACK, 2, STACK
        LOCFRAME XSTACK, 21, STACK
        PUBLIC dmp_enable_lp_quat
        FUNCTION dmp_enable_lp_quat,021203H
        ARGFRAME XSTACK, 20, STACK
        ARGFRAME IOVERLAY, 0, STATIC
        ARGFRAME DOVERLAY, 0, STATIC
        LOCFRAME XSTACK, 16, STACK
        PUBLIC dmp_get_enabled_features
        FUNCTION dmp_get_enabled_features,0203H
        ARGFRAME XSTACK, 0, STACK
        LOCFRAME ISTACK, 2, STACK
        PUBLIC dmp_get_fifo_rate
        FUNCTION dmp_get_fifo_rate,0203H
        ARGFRAME XSTACK, 0, STACK
        LOCFRAME ISTACK, 2, STACK
        PUBLIC dmp_get_pedometer_step_count
        FUNCTION dmp_get_pedometer_step_count,021203H
        ARGFRAME XSTACK, 0, STACK
        LOCFRAME XSTACK, 22, STACK
        PUBLIC dmp_get_pedometer_walk_time
        FUNCTION dmp_get_pedometer_walk_time,021203H
        ARGFRAME XSTACK, 0, STACK
        LOCFRAME XSTACK, 22, STACK
        PUBLIC dmp_load_motion_driver_firmware
        FUNCTION dmp_load_motion_driver_firmware,021203H
        ARGFRAME XSTACK, 0, STACK
        LOCFRAME XSTACK, 14, STACK
        PUBLIC dmp_read_fifo
        FUNCTION dmp_read_fifo,021203H
        ARGFRAME XSTACK, 8, STACK
        LOCFRAME XSTACK, 82, STACK
        PUBLIC dmp_register_android_orient_cb
        FUNCTION dmp_register_android_orient_cb,0203H
        ARGFRAME XSTACK, 0, STACK
        LOCFRAME ISTACK, 2, STACK
        PUBLIC dmp_register_tap_cb
        FUNCTION dmp_register_tap_cb,0203H
        ARGFRAME XSTACK, 0, STACK
        LOCFRAME ISTACK, 2, STACK
        PUBLIC dmp_set_accel_bias
        FUNCTION dmp_set_accel_bias,021203H
        ARGFRAME XSTACK, 0, STACK
        LOCFRAME ISTACK, 1, STACK
        LOCFRAME XSTACK, 48, STACK
        PUBLIC dmp_set_fifo_rate
        FUNCTION dmp_set_fifo_rate,021203H
        ARGFRAME XSTACK, 0, STACK
        LOCFRAME ISTACK, 2, STACK
        LOCFRAME XSTACK, 32, STACK
        PUBLIC dmp_set_gyro_bias
        FUNCTION dmp_set_gyro_bias,021203H
        ARGFRAME XSTACK, 0, STACK
        LOCFRAME ISTACK, 1, STACK
        LOCFRAME XSTACK, 34, STACK
        PUBLIC dmp_set_interrupt_mode
        FUNCTION dmp_set_interrupt_mode,021203H
        ARGFRAME XSTACK, 0, STACK
        LOCFRAME ISTACK, 2, STACK
        LOCFRAME XSTACK, 34, STACK
        PUBLIC dmp_set_orientation
        FUNCTION dmp_set_orientation,021203H
        ARGFRAME XSTACK, 0, STACK
        LOCFRAME ISTACK, 2, STACK
        LOCFRAME XSTACK, 30, STACK
        PUBLIC dmp_set_pedometer_step_count
        FUNCTION dmp_set_pedometer_step_count,021203H
        ARGFRAME XSTACK, 0, STACK
        LOCFRAME ISTACK, 1, STACK
        LOCFRAME XSTACK, 22, STACK
        PUBLIC dmp_set_pedometer_walk_time
        FUNCTION dmp_set_pedometer_walk_time,021203H
        ARGFRAME XSTACK, 0, STACK
        LOCFRAME ISTACK, 1, STACK
        LOCFRAME XSTACK, 22, STACK
        PUBLIC dmp_set_shake_reject_thresh
        FUNCTION dmp_set_shake_reject_thresh,021203H
        ARGFRAME XSTACK, 22, STACK
        ARGFRAME IOVERLAY, 0, STATIC
        ARGFRAME DOVERLAY, 0, STATIC
        LOCFRAME ISTACK, 1, STACK
        LOCFRAME XSTACK, 26, STACK
        PUBLIC dmp_set_shake_reject_time
        FUNCTION dmp_set_shake_reject_time,021203H
        ARGFRAME XSTACK, 20, STACK
        ARGFRAME IOVERLAY, 0, STATIC
        ARGFRAME DOVERLAY, 0, STATIC
        LOCFRAME ISTACK, 1, STACK
        LOCFRAME XSTACK, 14, STACK
        PUBLIC dmp_set_shake_reject_timeout
        FUNCTION dmp_set_shake_reject_timeout,021203H
        ARGFRAME XSTACK, 20, STACK
        ARGFRAME IOVERLAY, 0, STATIC
        ARGFRAME DOVERLAY, 0, STATIC
        LOCFRAME ISTACK, 1, STACK
        LOCFRAME XSTACK, 14, STACK
        PUBLIC dmp_set_tap_axes
        FUNCTION dmp_set_tap_axes,021203H
        ARGFRAME XSTACK, 20, STACK
        ARGFRAME IOVERLAY, 0, STATIC
        ARGFRAME DOVERLAY, 0, STATIC
        LOCFRAME XSTACK, 13, STACK
        PUBLIC dmp_set_tap_count
        FUNCTION dmp_set_tap_count,021203H
        ARGFRAME XSTACK, 20, STACK
        ARGFRAME IOVERLAY, 0, STATIC
        ARGFRAME DOVERLAY, 0, STATIC
        LOCFRAME ISTACK, 1, STACK
        LOCFRAME XSTACK, 13, STACK
        PUBLIC dmp_set_tap_thresh
        FUNCTION dmp_set_tap_thresh,021203H
        ARGFRAME XSTACK, 20, STACK
        ARGFRAME IOVERLAY, 0, STATIC
        ARGFRAME DOVERLAY, 0, STATIC
        LOCFRAME ISTACK, 1, STACK
        LOCFRAME XSTACK, 27, STACK
        PUBLIC dmp_set_tap_time
        FUNCTION dmp_set_tap_time,021203H
        ARGFRAME XSTACK, 20, STACK
        ARGFRAME IOVERLAY, 0, STATIC
        ARGFRAME DOVERLAY, 0, STATIC
        LOCFRAME ISTACK, 1, STACK
        LOCFRAME XSTACK, 14, STACK
        PUBLIC dmp_set_tap_time_multi
        FUNCTION dmp_set_tap_time_multi,021203H
        ARGFRAME XSTACK, 20, STACK
        ARGFRAME IOVERLAY, 0, STATIC
        ARGFRAME DOVERLAY, 0, STATIC
        LOCFRAME ISTACK, 1, STACK
        LOCFRAME XSTACK, 14, STACK
        
        CFI Names cfiNames0
        CFI StackFrame CFA_SP SP IDATA
        CFI StackFrame CFA_PSP16 PSP16 XDATA
        CFI StackFrame CFA_XSP16 XSP16 XDATA
        CFI StaticOverlayFrame CFA_IOVERLAY IOVERLAY
        CFI StaticOverlayFrame CFA_DOVERLAY DOVERLAY
        CFI Resource `PSW.CY`:1, `B.BR0`:1, `B.BR1`:1, `B.BR2`:1, `B.BR3`:1
        CFI Resource `B.BR4`:1, `B.BR5`:1, `B.BR6`:1, `B.BR7`:1, `VB.BR8`:1
        CFI Resource `VB.BR9`:1, `VB.BR10`:1, `VB.BR11`:1, `VB.BR12`:1
        CFI Resource `VB.BR13`:1, `VB.BR14`:1, `VB.BR15`:1, VB:8, B:8, A:8
        CFI Resource PSW:8, DPL0:8, DPH0:8, R0:8, R1:8, R2:8, R3:8, R4:8, R5:8
        CFI Resource R6:8, R7:8, V0:8, V1:8, V2:8, V3:8, V4:8, V5:8, V6:8, V7:8
        CFI Resource V8:8, V9:8, V10:8, V11:8, V12:8, V13:8, V14:8, V15:8, SP:8
        CFI Resource PSPH:8, PSPL:8, PSP16:16, XSPH:8, XSPL:8, XSP16:16
        CFI VirtualResource ?RET:24
        CFI Resource ?BRET_EXT:8
        CFI VirtualResource ?RET_HIGH:8, ?RET_LOW:8
        CFI ResourceParts PSP16 PSPH, PSPL
        CFI ResourceParts XSP16 XSPH, XSPL
        CFI ResourceParts ?RET ?BRET_EXT, ?RET_HIGH, ?RET_LOW
        CFI EndNames cfiNames0
        
        CFI Common cfiCommon0 Using cfiNames0
        CFI CodeAlign 1
        CFI DataAlign -1
        CFI ReturnAddress ?RET CODE
        CFI CFA_DOVERLAY Used
        CFI CFA_IOVERLAY Used
        CFI CFA_SP SP+-3
        CFI CFA_PSP16 PSP16+0
        CFI CFA_XSP16 XSP16+0
        CFI `PSW.CY` SameValue
        CFI `B.BR0` SameValue
        CFI `B.BR1` SameValue
        CFI `B.BR2` SameValue
        CFI `B.BR3` SameValue
        CFI `B.BR4` SameValue
        CFI `B.BR5` SameValue
        CFI `B.BR6` SameValue
        CFI `B.BR7` SameValue
        CFI `VB.BR8` SameValue
        CFI `VB.BR9` SameValue
        CFI `VB.BR10` SameValue
        CFI `VB.BR11` SameValue
        CFI `VB.BR12` SameValue
        CFI `VB.BR13` SameValue
        CFI `VB.BR14` SameValue
        CFI `VB.BR15` SameValue
        CFI VB SameValue
        CFI B Undefined
        CFI A Undefined
        CFI PSW SameValue
        CFI DPL0 SameValue
        CFI DPH0 SameValue
        CFI R0 Undefined
        CFI R1 Undefined
        CFI R2 Undefined
        CFI R3 Undefined
        CFI R4 Undefined
        CFI R5 Undefined
        CFI R6 SameValue
        CFI R7 SameValue
        CFI V0 SameValue
        CFI V1 SameValue
        CFI V2 SameValue
        CFI V3 SameValue
        CFI V4 SameValue
        CFI V5 SameValue
        CFI V6 SameValue
        CFI V7 SameValue
        CFI V8 SameValue
        CFI V9 SameValue
        CFI V10 SameValue
        CFI V11 SameValue
        CFI V12 SameValue
        CFI V13 SameValue
        CFI V14 SameValue
        CFI V15 SameValue
        CFI PSPH Undefined
        CFI PSPL Undefined
        CFI XSPH Undefined
        CFI XSPL Undefined
        CFI ?RET Concat
        CFI ?BRET_EXT Frame(CFA_SP, 3)
        CFI ?RET_HIGH Frame(CFA_SP, 2)
        CFI ?RET_LOW Frame(CFA_SP, 1)
        CFI EndCommon cfiCommon0
        
        
        CFI Common cfiCommon1 Using cfiNames0
        CFI CodeAlign 1
        CFI DataAlign -1
        CFI ReturnAddress ?RET CODE
        CFI CFA_DOVERLAY Used
        CFI CFA_IOVERLAY Used
        CFI CFA_SP SP+-2
        CFI CFA_PSP16 PSP16+0
        CFI CFA_XSP16 XSP16+0
        CFI `PSW.CY` SameValue
        CFI `B.BR0` SameValue
        CFI `B.BR1` SameValue
        CFI `B.BR2` SameValue
        CFI `B.BR3` SameValue
        CFI `B.BR4` SameValue
        CFI `B.BR5` SameValue
        CFI `B.BR6` SameValue
        CFI `B.BR7` SameValue
        CFI `VB.BR8` SameValue
        CFI `VB.BR9` SameValue
        CFI `VB.BR10` SameValue
        CFI `VB.BR11` SameValue
        CFI `VB.BR12` SameValue
        CFI `VB.BR13` SameValue
        CFI `VB.BR14` SameValue
        CFI `VB.BR15` SameValue
        CFI VB SameValue
        CFI B SameValue
        CFI A SameValue
        CFI PSW SameValue
        CFI DPL0 SameValue
        CFI DPH0 SameValue
        CFI R0 SameValue
        CFI R1 SameValue
        CFI R2 SameValue
        CFI R3 SameValue
        CFI R4 SameValue
        CFI R5 SameValue
        CFI R6 SameValue
        CFI R7 SameValue
        CFI V0 SameValue
        CFI V1 SameValue
        CFI V2 SameValue
        CFI V3 SameValue
        CFI V4 SameValue
        CFI V5 SameValue
        CFI V6 SameValue
        CFI V7 SameValue
        CFI V8 SameValue
        CFI V9 SameValue
        CFI V10 SameValue
        CFI V11 SameValue
        CFI V12 SameValue
        CFI V13 SameValue
        CFI V14 SameValue
        CFI V15 SameValue
        CFI PSPH Undefined
        CFI PSPL Undefined
        CFI XSPH Undefined
        CFI XSPL Undefined
        CFI ?RET Concat
        CFI ?BRET_EXT SameValue
        CFI ?RET_HIGH Frame(CFA_SP, 2)
        CFI ?RET_LOW Frame(CFA_SP, 1)
        CFI EndCommon cfiCommon1
        
mpu_load_firmware   SYMBOL "mpu_load_firmware"
mpu_write_mem       SYMBOL "mpu_write_mem"
memcpy              SYMBOL "memcpy"
mpu_get_accel_sens  SYMBOL "mpu_get_accel_sens"
mpu_get_accel_fsr   SYMBOL "mpu_get_accel_fsr"
mpu_read_mem        SYMBOL "mpu_read_mem"
mpu_reset_fifo      SYMBOL "mpu_reset_fifo"
memset              SYMBOL "memset"
mpu_read_fifo_stream SYMBOL "mpu_read_fifo_stream"
mget_ms             SYMBOL "mget_ms"
??memcpy?relay      SYMBOL "?relay", memcpy
??memset?relay      SYMBOL "?relay", memset
??mget_ms?relay     SYMBOL "?relay", mget_ms
??mpu_get_accel_fsr?relay SYMBOL "?relay", mpu_get_accel_fsr
??mpu_get_accel_sens?relay SYMBOL "?relay", mpu_get_accel_sens
??mpu_load_firmware?relay SYMBOL "?relay", mpu_load_firmware
??mpu_read_fifo_stream?relay SYMBOL "?relay", mpu_read_fifo_stream
??mpu_read_mem?relay SYMBOL "?relay", mpu_read_mem
??mpu_reset_fifo?relay SYMBOL "?relay", mpu_reset_fifo
??mpu_write_mem?relay SYMBOL "?relay", mpu_write_mem
dmp_enable_6x_lp_quat SYMBOL "dmp_enable_6x_lp_quat"
??dmp_enable_6x_lp_quat?relay SYMBOL "?relay", dmp_enable_6x_lp_quat
dmp_enable_feature  SYMBOL "dmp_enable_feature"
??dmp_enable_feature?relay SYMBOL "?relay", dmp_enable_feature
dmp_enable_gyro_cal SYMBOL "dmp_enable_gyro_cal"
??dmp_enable_gyro_cal?relay SYMBOL "?relay", dmp_enable_gyro_cal
dmp_enable_lp_quat  SYMBOL "dmp_enable_lp_quat"
??dmp_enable_lp_quat?relay SYMBOL "?relay", dmp_enable_lp_quat
dmp_get_enabled_features SYMBOL "dmp_get_enabled_features"
??dmp_get_enabled_features?relay SYMBOL "?relay", dmp_get_enabled_features
dmp_get_fifo_rate   SYMBOL "dmp_get_fifo_rate"
??dmp_get_fifo_rate?relay SYMBOL "?relay", dmp_get_fifo_rate
dmp_get_pedometer_step_count SYMBOL "dmp_get_pedometer_step_count"
??dmp_get_pedometer_step_count?relay SYMBOL "?relay", dmp_get_pedometer_step_count
dmp_get_pedometer_walk_time SYMBOL "dmp_get_pedometer_walk_time"
??dmp_get_pedometer_walk_time?relay SYMBOL "?relay", dmp_get_pedometer_walk_time
dmp_load_motion_driver_firmware SYMBOL "dmp_load_motion_driver_firmware"
??dmp_load_motion_driver_firmware?relay SYMBOL "?relay", dmp_load_motion_driver_firmware
dmp_read_fifo       SYMBOL "dmp_read_fifo"
??dmp_read_fifo?relay SYMBOL "?relay", dmp_read_fifo
dmp_register_android_orient_cb SYMBOL "dmp_register_android_orient_cb"
??dmp_register_android_orient_cb?relay SYMBOL "?relay", dmp_register_android_orient_cb
dmp_register_tap_cb SYMBOL "dmp_register_tap_cb"
??dmp_register_tap_cb?relay SYMBOL "?relay", dmp_register_tap_cb
dmp_set_accel_bias  SYMBOL "dmp_set_accel_bias"
??dmp_set_accel_bias?relay SYMBOL "?relay", dmp_set_accel_bias
dmp_set_fifo_rate   SYMBOL "dmp_set_fifo_rate"
??dmp_set_fifo_rate?relay SYMBOL "?relay", dmp_set_fifo_rate
dmp_set_gyro_bias   SYMBOL "dmp_set_gyro_bias"
??dmp_set_gyro_bias?relay SYMBOL "?relay", dmp_set_gyro_bias
dmp_set_interrupt_mode SYMBOL "dmp_set_interrupt_mode"
??dmp_set_interrupt_mode?relay SYMBOL "?relay", dmp_set_interrupt_mode
dmp_set_orientation SYMBOL "dmp_set_orientation"
??dmp_set_orientation?relay SYMBOL "?relay", dmp_set_orientation
dmp_set_pedometer_step_count SYMBOL "dmp_set_pedometer_step_count"
??dmp_set_pedometer_step_count?relay SYMBOL "?relay", dmp_set_pedometer_step_count
dmp_set_pedometer_walk_time SYMBOL "dmp_set_pedometer_walk_time"
??dmp_set_pedometer_walk_time?relay SYMBOL "?relay", dmp_set_pedometer_walk_time
dmp_set_shake_reject_thresh SYMBOL "dmp_set_shake_reject_thresh"
??dmp_set_shake_reject_thresh?relay SYMBOL "?relay", dmp_set_shake_reject_thresh
dmp_set_shake_reject_time SYMBOL "dmp_set_shake_reject_time"
??dmp_set_shake_reject_time?relay SYMBOL "?relay", dmp_set_shake_reject_time
dmp_set_shake_reject_timeout SYMBOL "dmp_set_shake_reject_timeout"
??dmp_set_shake_reject_timeout?relay SYMBOL "?relay", dmp_set_shake_reject_timeout
dmp_set_tap_axes    SYMBOL "dmp_set_tap_axes"
??dmp_set_tap_axes?relay SYMBOL "?relay", dmp_set_tap_axes
dmp_set_tap_count   SYMBOL "dmp_set_tap_count"
??dmp_set_tap_count?relay SYMBOL "?relay", dmp_set_tap_count
dmp_set_tap_thresh  SYMBOL "dmp_set_tap_thresh"
??dmp_set_tap_thresh?relay SYMBOL "?relay", dmp_set_tap_thresh
dmp_set_tap_time    SYMBOL "dmp_set_tap_time"
??dmp_set_tap_time?relay SYMBOL "?relay", dmp_set_tap_time
dmp_set_tap_time_multi SYMBOL "dmp_set_tap_time_multi"
??dmp_set_tap_time_multi?relay SYMBOL "?relay", dmp_set_tap_time_multi

        EXTERN mpu_load_firmware
        FUNCTION mpu_load_firmware,0202H
        ARGFRAME ISTACK, 0, STACK
        ARGFRAME PSTACK, 0, STACK
        ARGFRAME XSTACK, 14, STACK
        ARGFRAME IOVERLAY, 0, STATIC
        ARGFRAME DOVERLAY, 0, STATIC
        EXTERN mpu_write_mem
        FUNCTION mpu_write_mem,0202H
        ARGFRAME ISTACK, 0, STACK
        ARGFRAME PSTACK, 0, STACK
        ARGFRAME XSTACK, 48, STACK
        ARGFRAME IOVERLAY, 0, STATIC
        ARGFRAME DOVERLAY, 0, STATIC
        EXTERN memcpy
        FUNCTION memcpy,010202H
        ARGFRAME ISTACK, 0, STACK
        ARGFRAME PSTACK, 0, STACK
        ARGFRAME XSTACK, 30, STACK
        ARGFRAME IOVERLAY, 0, STATIC
        ARGFRAME DOVERLAY, 0, STATIC
        EXTERN mpu_get_accel_sens
        FUNCTION mpu_get_accel_sens,0202H
        ARGFRAME ISTACK, 0, STACK
        ARGFRAME PSTACK, 0, STACK
        ARGFRAME XSTACK, 46, STACK
        ARGFRAME IOVERLAY, 0, STATIC
        ARGFRAME DOVERLAY, 0, STATIC
        EXTERN mpu_get_accel_fsr
        FUNCTION mpu_get_accel_fsr,0202H
        ARGFRAME ISTACK, 0, STACK
        ARGFRAME PSTACK, 0, STACK
        ARGFRAME XSTACK, 25, STACK
        ARGFRAME IOVERLAY, 0, STATIC
        ARGFRAME DOVERLAY, 0, STATIC
        EXTERN mpu_read_mem
        FUNCTION mpu_read_mem,0202H
        ARGFRAME ISTACK, 0, STACK
        ARGFRAME PSTACK, 0, STACK
        ARGFRAME XSTACK, 22, STACK
        ARGFRAME IOVERLAY, 0, STATIC
        ARGFRAME DOVERLAY, 0, STATIC
        EXTERN mpu_reset_fifo
        FUNCTION mpu_reset_fifo,0202H
        ARGFRAME ISTACK, 0, STACK
        ARGFRAME PSTACK, 0, STACK
        ARGFRAME XSTACK, 80, STACK
        ARGFRAME IOVERLAY, 0, STATIC
        ARGFRAME DOVERLAY, 0, STATIC
        EXTERN memset
        FUNCTION memset,010202H
        ARGFRAME ISTACK, 0, STACK
        ARGFRAME PSTACK, 0, STACK
        ARGFRAME XSTACK, 16, STACK
        ARGFRAME IOVERLAY, 0, STATIC
        ARGFRAME DOVERLAY, 0, STATIC
        EXTERN mpu_read_fifo_stream
        FUNCTION mpu_read_fifo_stream,0202H
        ARGFRAME ISTACK, 0, STACK
        ARGFRAME PSTACK, 0, STACK
        ARGFRAME XSTACK, 82, STACK
        ARGFRAME IOVERLAY, 0, STATIC
        ARGFRAME DOVERLAY, 0, STATIC
        EXTERN mget_ms
        FUNCTION mget_ms,0202H
        ARGFRAME ISTACK, 0, STACK
        ARGFRAME PSTACK, 0, STACK
        ARGFRAME XSTACK, 80, STACK
        ARGFRAME IOVERLAY, 0, STATIC
        ARGFRAME DOVERLAY, 0, STATIC
        EXTERN ??memcpy?relay
        FUNCTION ??memcpy?relay,00H
        EXTERN ??memset?relay
        FUNCTION ??memset?relay,00H
        EXTERN ??mget_ms?relay
        FUNCTION ??mget_ms?relay,00H
        EXTERN ??mpu_get_accel_fsr?relay
        FUNCTION ??mpu_get_accel_fsr?relay,00H
        EXTERN ??mpu_get_accel_sens?relay
        FUNCTION ??mpu_get_accel_sens?relay,00H
        EXTERN ??mpu_load_firmware?relay
        FUNCTION ??mpu_load_firmware?relay,00H
        EXTERN ??mpu_read_fifo_stream?relay
        FUNCTION ??mpu_read_fifo_stream?relay,00H
        EXTERN ??mpu_read_mem?relay
        FUNCTION ??mpu_read_mem?relay,00H
        EXTERN ??mpu_reset_fifo?relay
        FUNCTION ??mpu_reset_fifo?relay,00H
        EXTERN ??mpu_write_mem?relay
        FUNCTION ??mpu_write_mem?relay,00H

// H:\ÏîÄ¿\2019.5\ÍúÍú£¨lwk474153686£©\ZStack-2.5.1a\Projects\zstack\Samples\SampleApp\Source\MPU6050\eMPL\inv_mpu_dmp_motion_driver.c
//    1 /*
//    2  $License:
//    3     Copyright (C) 2011-2012 InvenSense Corporation, All Rights Reserved.
//    4     See included License.txt for License information.
//    5  $
//    6  */
//    7 /**
//    8  *  @addtogroup  DRIVERS Sensor Driver Layer
//    9  *  @brief       Hardware drivers to communicate with sensors via I2C.
//   10  *
//   11  *  @{
//   12  *      @file       inv_mpu_dmp_motion_driver.c
//   13  *      @brief      DMP image and interface functions.
//   14  *      @details    All functions are preceded by the dmp_ prefix to
//   15  *                  differentiate among MPL and general driver function calls.
//   16  */
//   17 #include <stdio.h>
//   18 //#include <stdint.h>
//   19 #include <stdlib.h>
//   20 #include <string.h>
//   21 #include <math.h>
//   22 #include "inv_mpu.h"
//   23 #include "inv_mpu_dmp_motion_driver.h"
//   24 #include "dmpKey.h"
//   25 #include "dmpmap.h"
//   26 //#include "usart.h"
//   27 #include "delay.h"
//   28 
//   29 //¶¨ÒåÄ¿±ê°å²ÉÓÃMSP430
//   30 #define  MOTION_DRIVER_TARGET_MSP430
//   31 
//   32 /* The following functions must be defined for this platform:
//   33  * i2c_write(unsigned char slave_addr, unsigned char reg_addr,
//   34  *      unsigned char length, unsigned char const *data)
//   35  * i2c_read(unsigned char slave_addr, unsigned char reg_addr,
//   36  *      unsigned char length, unsigned char *data)
//   37  * delay_ms(unsigned long num_ms)
//   38  * get_ms(unsigned long *count)
//   39  */
//   40 #if defined MOTION_DRIVER_TARGET_MSP430
//   41 //#include "msp430.h"
//   42 //#include "msp430_clock.h"
//   43 #define delay_ms    delay_ms
//   44 #define get_ms      mget_ms
//   45 #define log_i 		printf
//   46 #define log_e  		printf
//   47 
//   48 #elif defined EMPL_TARGET_MSP430
//   49 #include "msp430.h"
//   50 #include "msp430_clock.h"
//   51 #include "log.h"
//   52 #define delay_ms    msp430_delay_ms
//   53 #define get_ms      msp430_get_clock_ms
//   54 #define log_i       MPL_LOGI
//   55 #define log_e       MPL_LOGE
//   56 
//   57 #elif defined EMPL_TARGET_UC3L0
//   58 /* Instead of using the standard TWI driver from the ASF library, we're using
//   59  * a TWI driver that follows the slave address + register address convention.
//   60  */
//   61 #include "delay.h"
//   62 #include "sysclk.h"
//   63 #include "log.h"
//   64 #include "uc3l0_clock.h"
//   65 /* delay_ms is a function already defined in ASF. */
//   66 #define get_ms  uc3l0_get_clock_ms
//   67 #define log_i       MPL_LOGI
//   68 #define log_e       MPL_LOGE
//   69 
//   70 #else
//   71 #error  Gyro driver is missing the system layer implementations.
//   72 #endif
//   73 
//   74 /* These defines are copied from dmpDefaultMPU6050.c in the general MPL
//   75  * releases. These defines may change for each DMP image, so be sure to modify
//   76  * these values when switching to a new image.
//   77  */
//   78 #define CFG_LP_QUAT             (2712)
//   79 #define END_ORIENT_TEMP         (1866)
//   80 #define CFG_27                  (2742)
//   81 #define CFG_20                  (2224)
//   82 #define CFG_23                  (2745)
//   83 #define CFG_FIFO_ON_EVENT       (2690)
//   84 #define END_PREDICTION_UPDATE   (1761)
//   85 #define CGNOTICE_INTR           (2620)
//   86 #define X_GRT_Y_TMP             (1358)
//   87 #define CFG_DR_INT              (1029)
//   88 #define CFG_AUTH                (1035)
//   89 #define UPDATE_PROP_ROT         (1835)
//   90 #define END_COMPARE_Y_X_TMP2    (1455)
//   91 #define SKIP_X_GRT_Y_TMP        (1359)
//   92 #define SKIP_END_COMPARE        (1435)
//   93 #define FCFG_3                  (1088)
//   94 #define FCFG_2                  (1066)
//   95 #define FCFG_1                  (1062)
//   96 #define END_COMPARE_Y_X_TMP3    (1434)
//   97 #define FCFG_7                  (1073)
//   98 #define FCFG_6                  (1106)
//   99 #define FLAT_STATE_END          (1713)
//  100 #define SWING_END_4             (1616)
//  101 #define SWING_END_2             (1565)
//  102 #define SWING_END_3             (1587)
//  103 #define SWING_END_1             (1550)
//  104 #define CFG_8                   (2718)
//  105 #define CFG_15                  (2727)
//  106 #define CFG_16                  (2746)
//  107 #define CFG_EXT_GYRO_BIAS       (1189)
//  108 #define END_COMPARE_Y_X_TMP     (1407)
//  109 #define DO_NOT_UPDATE_PROP_ROT  (1839)
//  110 #define CFG_7                   (1205)
//  111 #define FLAT_STATE_END_TEMP     (1683)
//  112 #define END_COMPARE_Y_X         (1484)
//  113 #define SKIP_SWING_END_1        (1551)
//  114 #define SKIP_SWING_END_3        (1588)
//  115 #define SKIP_SWING_END_2        (1566)
//  116 #define TILTG75_START           (1672)
//  117 #define CFG_6                   (2753)
//  118 #define TILTL75_END             (1669)
//  119 #define END_ORIENT              (1884)
//  120 #define CFG_FLICK_IN            (2573)
//  121 #define TILTL75_START           (1643)
//  122 #define CFG_MOTION_BIAS         (1208)
//  123 #define X_GRT_Y                 (1408)
//  124 #define TEMPLABEL               (2324)
//  125 #define CFG_ANDROID_ORIENT_INT  (1853)
//  126 #define CFG_GYRO_RAW_DATA       (2722)
//  127 #define X_GRT_Y_TMP2            (1379)
//  128 
//  129 #define D_0_22                  (22+512)
//  130 #define D_0_24                  (24+512)
//  131 
//  132 #define D_0_36                  (36)
//  133 #define D_0_52                  (52)
//  134 #define D_0_96                  (96)
//  135 #define D_0_104                 (104)
//  136 #define D_0_108                 (108)
//  137 #define D_0_163                 (163)
//  138 #define D_0_188                 (188)
//  139 #define D_0_192                 (192)
//  140 #define D_0_224                 (224)
//  141 #define D_0_228                 (228)
//  142 #define D_0_232                 (232)
//  143 #define D_0_236                 (236)
//  144 
//  145 #define D_1_2                   (256 + 2)
//  146 #define D_1_4                   (256 + 4)
//  147 #define D_1_8                   (256 + 8)
//  148 #define D_1_10                  (256 + 10)
//  149 #define D_1_24                  (256 + 24)
//  150 #define D_1_28                  (256 + 28)
//  151 #define D_1_36                  (256 + 36)
//  152 #define D_1_40                  (256 + 40)
//  153 #define D_1_44                  (256 + 44)
//  154 #define D_1_72                  (256 + 72)
//  155 #define D_1_74                  (256 + 74)
//  156 #define D_1_79                  (256 + 79)
//  157 #define D_1_88                  (256 + 88)
//  158 #define D_1_90                  (256 + 90)
//  159 #define D_1_92                  (256 + 92)
//  160 #define D_1_96                  (256 + 96)
//  161 #define D_1_98                  (256 + 98)
//  162 #define D_1_106                 (256 + 106)
//  163 #define D_1_108                 (256 + 108)
//  164 #define D_1_112                 (256 + 112)
//  165 #define D_1_128                 (256 + 144)
//  166 #define D_1_152                 (256 + 12)
//  167 #define D_1_160                 (256 + 160)
//  168 #define D_1_176                 (256 + 176)
//  169 #define D_1_178                 (256 + 178)
//  170 #define D_1_218                 (256 + 218)
//  171 #define D_1_232                 (256 + 232)
//  172 #define D_1_236                 (256 + 236)
//  173 #define D_1_240                 (256 + 240)
//  174 #define D_1_244                 (256 + 244)
//  175 #define D_1_250                 (256 + 250)
//  176 #define D_1_252                 (256 + 252)
//  177 #define D_2_12                  (512 + 12)
//  178 #define D_2_96                  (512 + 96)
//  179 #define D_2_108                 (512 + 108)
//  180 #define D_2_208                 (512 + 208)
//  181 #define D_2_224                 (512 + 224)
//  182 #define D_2_236                 (512 + 236)
//  183 #define D_2_244                 (512 + 244)
//  184 #define D_2_248                 (512 + 248)
//  185 #define D_2_252                 (512 + 252)
//  186 
//  187 #define CPASS_BIAS_X            (35 * 16 + 4)
//  188 #define CPASS_BIAS_Y            (35 * 16 + 8)
//  189 #define CPASS_BIAS_Z            (35 * 16 + 12)
//  190 #define CPASS_MTX_00            (36 * 16)
//  191 #define CPASS_MTX_01            (36 * 16 + 4)
//  192 #define CPASS_MTX_02            (36 * 16 + 8)
//  193 #define CPASS_MTX_10            (36 * 16 + 12)
//  194 #define CPASS_MTX_11            (37 * 16)
//  195 #define CPASS_MTX_12            (37 * 16 + 4)
//  196 #define CPASS_MTX_20            (37 * 16 + 8)
//  197 #define CPASS_MTX_21            (37 * 16 + 12)
//  198 #define CPASS_MTX_22            (43 * 16 + 12)
//  199 #define D_EXT_GYRO_BIAS_X       (61 * 16)
//  200 #define D_EXT_GYRO_BIAS_Y       (61 * 16) + 4
//  201 #define D_EXT_GYRO_BIAS_Z       (61 * 16) + 8
//  202 #define D_ACT0                  (40 * 16)
//  203 #define D_ACSX                  (40 * 16 + 4)
//  204 #define D_ACSY                  (40 * 16 + 8)
//  205 #define D_ACSZ                  (40 * 16 + 12)
//  206 
//  207 #define FLICK_MSG               (45 * 16 + 4)
//  208 #define FLICK_COUNTER           (45 * 16 + 8)
//  209 #define FLICK_LOWER             (45 * 16 + 12)
//  210 #define FLICK_UPPER             (46 * 16 + 12)
//  211 
//  212 #define D_AUTH_OUT              (992)
//  213 #define D_AUTH_IN               (996)
//  214 #define D_AUTH_A                (1000)
//  215 #define D_AUTH_B                (1004)
//  216 
//  217 #define D_PEDSTD_BP_B           (768 + 0x1C)
//  218 #define D_PEDSTD_HP_A           (768 + 0x78)
//  219 #define D_PEDSTD_HP_B           (768 + 0x7C)
//  220 #define D_PEDSTD_BP_A4          (768 + 0x40)
//  221 #define D_PEDSTD_BP_A3          (768 + 0x44)
//  222 #define D_PEDSTD_BP_A2          (768 + 0x48)
//  223 #define D_PEDSTD_BP_A1          (768 + 0x4C)
//  224 #define D_PEDSTD_INT_THRSH      (768 + 0x68)
//  225 #define D_PEDSTD_CLIP           (768 + 0x6C)
//  226 #define D_PEDSTD_SB             (768 + 0x28)
//  227 #define D_PEDSTD_SB_TIME        (768 + 0x2C)
//  228 #define D_PEDSTD_PEAKTHRSH      (768 + 0x98)
//  229 #define D_PEDSTD_TIML           (768 + 0x2A)
//  230 #define D_PEDSTD_TIMH           (768 + 0x2E)
//  231 #define D_PEDSTD_PEAK           (768 + 0X94)
//  232 #define D_PEDSTD_STEPCTR        (768 + 0x60)
//  233 #define D_PEDSTD_TIMECTR        (964)
//  234 #define D_PEDSTD_DECI           (768 + 0xA0)
//  235 
//  236 #define D_HOST_NO_MOT           (976)
//  237 #define D_ACCEL_BIAS            (660)
//  238 
//  239 #define D_ORIENT_GAP            (76)
//  240 
//  241 #define D_TILT0_H               (48)
//  242 #define D_TILT0_L               (50)
//  243 #define D_TILT1_H               (52)
//  244 #define D_TILT1_L               (54)
//  245 #define D_TILT2_H               (56)
//  246 #define D_TILT2_L               (58)
//  247 #define D_TILT3_H               (60)
//  248 #define D_TILT3_L               (62)
//  249 
//  250 #define DMP_CODE_SIZE           (3062)
//  251 

        RSEG XDATA_ROM_C:CONST:REORDER:NOROOT(0)
        DATA8
//  252 static const unsigned char dmp_memory[DMP_CODE_SIZE] = {
dmp_memory:
        DB 0
        DB 0
        DB 112
        DB 0
        DB 0
        DB 0
        DB 0
        DB 36
        DB 0
        DB 0
        DB 0
        DB 2
        DB 0
        DB 3
        DB 0
        DB 0
        DB 0
        DB 101
        DB 0
        DB 84
        DB 255
        DB 239
        DB 0
        DB 0
        DB 250
        DB 128
        DB 0
        DB 11
        DB 18
        DB 130
        DB 0
        DB 1
        DB 3
        DB 12
        DB 48
        DB 195
        DB 14
        DB 140
        DB 140
        DB 233
        DB 20
        DB 213
        DB 64
        DB 2
        DB 19
        DB 113
        DB 15
        DB 142
        DB 56
        DB 131
        DB 248
        DB 131
        DB 48
        DB 0
        DB 248
        DB 131
        DB 37
        DB 142
        DB 248
        DB 131
        DB 48
        DB 0
        DB 248
        DB 131
        DB 255
        DB 255
        DB 255
        DB 255
        DB 15
        DB 254
        DB 169
        DB 214
        DB 36
        DB 0
        DB 4
        DB 0
        DB 26
        DB 130
        DB 121
        DB 161
        DB 0
        DB 0
        DB 0
        DB 60
        DB 255
        DB 255
        DB 0
        DB 0
        DB 0
        DB 16
        DB 0
        DB 0
        DB 56
        DB 131
        DB 111
        DB 162
        DB 0
        DB 62
        DB 3
        DB 48
        DB 64
        DB 0
        DB 0
        DB 0
        DB 2
        DB 202
        DB 227
        DB 9
        DB 62
        DB 128
        DB 0
        DB 0
        DB 32
        DB 0
        DB 0
        DB 0
        DB 0
        DB 0
        DB 0
        DB 0
        DB 64
        DB 0
        DB 0
        DB 0
        DB 96
        DB 0
        DB 0
        DB 0
        DB 0
        DB 12
        DB 0
        DB 0
        DB 0
        DB 12
        DB 24
        DB 110
        DB 0
        DB 0
        DB 6
        DB 146
        DB 10
        DB 22
        DB 192
        DB 223
        DB 255
        DB 255
        DB 2
        DB 86
        DB 253
        DB 140
        DB 211
        DB 119
        DB 255
        DB 225
        DB 196
        DB 150
        DB 224
        DB 197
        DB 190
        DB 170
        DB 0
        DB 0
        DB 0
        DB 0
        DB 255
        DB 255
        DB 11
        DB 43
        DB 0
        DB 0
        DB 22
        DB 87
        DB 0
        DB 0
        DB 3
        DB 89
        DB 64
        DB 0
        DB 0
        DB 0
        DB 0
        DB 0
        DB 29
        DB 250
        DB 0
        DB 2
        DB 108
        DB 29
        DB 0
        DB 0
        DB 0
        DB 0
        DB 63
        DB 255
        DB 223
        DB 235
        DB 0
        DB 62
        DB 179
        DB 182
        DB 0
        DB 13
        DB 34
        DB 120
        DB 0
        DB 0
        DB 47
        DB 60
        DB 0
        DB 0
        DB 0
        DB 0
        DB 0
        DB 25
        DB 66
        DB 181
        DB 0
        DB 0
        DB 57
        DB 162
        DB 0
        DB 0
        DB 179
        DB 101
        DB 217
        DB 14
        DB 159
        DB 201
        DB 29
        DB 207
        DB 76
        DB 52
        DB 48
        DB 0
        DB 0
        DB 0
        DB 80
        DB 0
        DB 0
        DB 0
        DB 59
        DB 182
        DB 122
        DB 232
        DB 0
        DB 100
        DB 0
        DB 0
        DB 0
        DB 200
        DB 0
        DB 0
        DB 0
        DB 0
        DB 0
        DB 0
        DB 16
        DB 0
        DB 0
        DB 0
        DB 16
        DB 0
        DB 250
        DB 146
        DB 16
        DB 0
        DB 34
        DB 94
        DB 0
        DB 13
        DB 34
        DB 159
        DB 0
        DB 1
        DB 0
        DB 0
        DB 0
        DB 50
        DB 0
        DB 0
        DB 255
        DB 70
        DB 0
        DB 0
        DB 99
        DB 212
        DB 0
        DB 0
        DB 16
        DB 0
        DB 0
        DB 0
        DB 4
        DB 214
        DB 0
        DB 0
        DB 4
        DB 204
        DB 0
        DB 0
        DB 4
        DB 204
        DB 0
        DB 0
        DB 0
        DB 0
        DB 16
        DB 114
        DB 0
        DB 0
        DB 0
        DB 64
        DB 0
        DB 0
        DB 0
        DB 0
        DB 0
        DB 0
        DB 0
        DB 0
        DB 0
        DB 6
        DB 0
        DB 2
        DB 0
        DB 5
        DB 0
        DB 7
        DB 0
        DB 0
        DB 0
        DB 0
        DB 0
        DB 100
        DB 0
        DB 0
        DB 0
        DB 0
        DB 0
        DB 0
        DB 0
        DB 0
        DB 0
        DB 5
        DB 0
        DB 5
        DB 0
        DB 100
        DB 0
        DB 32
        DB 0
        DB 0
        DB 0
        DB 0
        DB 0
        DB 0
        DB 0
        DB 0
        DB 0
        DB 0
        DB 0
        DB 0
        DB 64
        DB 0
        DB 0
        DB 0
        DB 3
        DB 0
        DB 0
        DB 0
        DB 0
        DB 50
        DB 248
        DB 152
        DB 0
        DB 0
        DB 255
        DB 101
        DB 0
        DB 0
        DB 131
        DB 15
        DB 0
        DB 0
        DB 255
        DB 155
        DB 252
        DB 0
        DB 0
        DB 0
        DB 0
        DB 0
        DB 0
        DB 0
        DB 0
        DB 0
        DB 0
        DB 0
        DB 0
        DB 0
        DB 0
        DB 0
        DB 0
        DB 0
        DB 0
        DB 0
        DB 0
        DB 0
        DB 0
        DB 0
        DB 0
        DB 0
        DB 0
        DB 0
        DB 0
        DB 0
        DB 0
        DB 0
        DB 0
        DB 0
        DB 0
        DB 0
        DB 0
        DB 0
        DB 0
        DB 0
        DB 0
        DB 0
        DB 0
        DB 0
        DB 16
        DB 0
        DB 64
        DB 0
        DB 0
        DB 0
        DB 0
        DB 0
        DB 0
        DB 6
        DB 0
        DB 0
        DB 178
        DB 106
        DB 0
        DB 2
        DB 0
        DB 0
        DB 0
        DB 1
        DB 251
        DB 131
        DB 0
        DB 104
        DB 0
        DB 0
        DB 0
        DB 217
        DB 252
        DB 0
        DB 124
        DB 241
        DB 255
        DB 131
        DB 0
        DB 0
        DB 0
        DB 0
        DB 0
        DB 101
        DB 0
        DB 0
        DB 0
        DB 100
        DB 3
        DB 232
        DB 0
        DB 100
        DB 0
        DB 40
        DB 0
        DB 0
        DB 0
        DB 37
        DB 0
        DB 0
        DB 0
        DB 0
        DB 22
        DB 160
        DB 0
        DB 0
        DB 0
        DB 0
        DB 16
        DB 0
        DB 0
        DB 0
        DB 16
        DB 0
        DB 0
        DB 47
        DB 0
        DB 0
        DB 0
        DB 0
        DB 1
        DB 244
        DB 0
        DB 0
        DB 16
        DB 0
        DB 0
        DB 40
        DB 0
        DB 0
        DB 255
        DB 255
        DB 69
        DB 129
        DB 255
        DB 255
        DB 250
        DB 114
        DB 0
        DB 0
        DB 0
        DB 0
        DB 0
        DB 0
        DB 0
        DB 0
        DB 0
        DB 68
        DB 0
        DB 5
        DB 0
        DB 5
        DB 186
        DB 198
        DB 0
        DB 71
        DB 120
        DB 162
        DB 0
        DB 0
        DB 0
        DB 1
        DB 0
        DB 0
        DB 0
        DB 0
        DB 0
        DB 0
        DB 6
        DB 0
        DB 0
        DB 0
        DB 0
        DB 20
        DB 0
        DB 0
        DB 37
        DB 77
        DB 0
        DB 47
        DB 112
        DB 109
        DB 0
        DB 0
        DB 5
        DB 174
        DB 0
        DB 12
        DB 2
        DB 208
        DB 0
        DB 0
        DB 0
        DB 0
        DB 0
        DB 0
        DB 0
        DB 0
        DB 0
        DB 0
        DB 0
        DB 0
        DB 0
        DB 0
        DB 0
        DB 0
        DB 0
        DB 27
        DB 0
        DB 0
        DB 0
        DB 0
        DB 0
        DB 0
        DB 0
        DB 0
        DB 0
        DB 0
        DB 0
        DB 0
        DB 0
        DB 0
        DB 0
        DB 100
        DB 0
        DB 0
        DB 0
        DB 8
        DB 0
        DB 0
        DB 0
        DB 0
        DB 0
        DB 0
        DB 0
        DB 0
        DB 0
        DB 0
        DB 0
        DB 0
        DB 0
        DB 0
        DB 0
        DB 0
        DB 0
        DB 0
        DB 0
        DB 0
        DB 0
        DB 0
        DB 0
        DB 0
        DB 0
        DB 0
        DB 0
        DB 0
        DB 0
        DB 0
        DB 0
        DB 0
        DB 0
        DB 0
        DB 0
        DB 0
        DB 0
        DB 0
        DB 0
        DB 0
        DB 0
        DB 0
        DB 0
        DB 0
        DB 0
        DB 0
        DB 0
        DB 0
        DB 0
        DB 0
        DB 0
        DB 0
        DB 0
        DB 0
        DB 0
        DB 0
        DB 0
        DB 0
        DB 0
        DB 0
        DB 0
        DB 0
        DB 0
        DB 0
        DB 0
        DB 0
        DB 0
        DB 0
        DB 0
        DB 0
        DB 0
        DB 0
        DB 0
        DB 0
        DB 0
        DB 0
        DB 0
        DB 0
        DB 0
        DB 0
        DB 0
        DB 0
        DB 0
        DB 0
        DB 0
        DB 0
        DB 0
        DB 0
        DB 0
        DB 0
        DB 0
        DB 27
        DB 0
        DB 0
        DB 0
        DB 0
        DB 0
        DB 0
        DB 0
        DB 0
        DB 0
        DB 0
        DB 0
        DB 14
        DB 0
        DB 14
        DB 0
        DB 0
        DB 10
        DB 199
        DB 0
        DB 4
        DB 0
        DB 0
        DB 0
        DB 0
        DB 0
        DB 50
        DB 255
        DB 255
        DB 255
        DB 156
        DB 0
        DB 0
        DB 11
        DB 43
        DB 0
        DB 0
        DB 0
        DB 2
        DB 0
        DB 0
        DB 0
        DB 1
        DB 0
        DB 0
        DB 0
        DB 100
        DB 255
        DB 229
        DB 0
        DB 0
        DB 0
        DB 0
        DB 0
        DB 0
        DB 0
        DB 0
        DB 0
        DB 0
        DB 0
        DB 0
        DB 0
        DB 0
        DB 0
        DB 0
        DB 0
        DB 1
        DB 0
        DB 0
        DB 0
        DB 0
        DB 0
        DB 1
        DB 0
        DB 0
        DB 0
        DB 0
        DB 0
        DB 0
        DB 0
        DB 1
        DB 128
        DB 0
        DB 0
        DB 1
        DB 128
        DB 0
        DB 0
        DB 1
        DB 128
        DB 0
        DB 0
        DB 36
        DB 38
        DB 211
        DB 0
        DB 0
        DB 0
        DB 0
        DB 0
        DB 0
        DB 0
        DB 0
        DB 0
        DB 6
        DB 0
        DB 16
        DB 0
        DB 150
        DB 0
        DB 60
        DB 0
        DB 0
        DB 0
        DB 0
        DB 0
        DB 0
        DB 0
        DB 0
        DB 0
        DB 0
        DB 0
        DB 0
        DB 0
        DB 0
        DB 0
        DB 0
        DB 12
        DB 10
        DB 78
        DB 104
        DB 205
        DB 207
        DB 119
        DB 9
        DB 80
        DB 22
        DB 103
        DB 89
        DB 198
        DB 25
        DB 206
        DB 130
        DB 0
        DB 0
        DB 0
        DB 0
        DB 0
        DB 0
        DB 0
        DB 0
        DB 0
        DB 0
        DB 0
        DB 0
        DB 0
        DB 0
        DB 0
        DB 0
        DB 0
        DB 0
        DB 0
        DB 0
        DB 0
        DB 0
        DB 0
        DB 0
        DB 23
        DB 215
        DB 132
        DB 0
        DB 3
        DB 0
        DB 0
        DB 0
        DB 0
        DB 0
        DB 0
        DB 0
        DB 0
        DB 0
        DB 0
        DB 0
        DB 199
        DB 147
        DB 143
        DB 157
        DB 30
        DB 27
        DB 28
        DB 25
        DB 0
        DB 0
        DB 0
        DB 0
        DB 0
        DB 0
        DB 0
        DB 0
        DB 0
        DB 0
        DB 0
        DB 0
        DB 0
        DB 0
        DB 0
        DB 0
        DB 0
        DB 0
        DB 0
        DB 0
        DB 0
        DB 0
        DB 0
        DB 0
        DB 2
        DB 3
        DB 24
        DB 133
        DB 0
        DB 0
        DB 64
        DB 0
        DB 0
        DB 0
        DB 0
        DB 3
        DB 0
        DB 0
        DB 0
        DB 3
        DB 0
        DB 0
        DB 0
        DB 0
        DB 0
        DB 0
        DB 0
        DB 0
        DB 64
        DB 0
        DB 0
        DB 0
        DB 0
        DB 0
        DB 0
        DB 0
        DB 0
        DB 0
        DB 0
        DB 0
        DB 0
        DB 0
        DB 0
        DB 0
        DB 0
        DB 0
        DB 0
        DB 0
        DB 0
        DB 0
        DB 0
        DB 0
        DB 0
        DB 0
        DB 0
        DB 0
        DB 0
        DB 0
        DB 0
        DB 0
        DB 0
        DB 0
        DB 0
        DB 0
        DB 0
        DB 0
        DB 0
        DB 0
        DB 0
        DB 0
        DB 0
        DB 0
        DB 0
        DB 0
        DB 0
        DB 0
        DB 0
        DB 0
        DB 0
        DB 0
        DB 103
        DB 125
        DB 223
        DB 126
        DB 114
        DB 144
        DB 46
        DB 85
        DB 76
        DB 246
        DB 230
        DB 136
        DB 0
        DB 0
        DB 0
        DB 0
        DB 0
        DB 0
        DB 0
        DB 0
        DB 0
        DB 0
        DB 0
        DB 0
        DB 0
        DB 0
        DB 0
        DB 0
        DB 216
        DB 220
        DB 180
        DB 184
        DB 176
        DB 216
        DB 185
        DB 171
        DB 243
        DB 248
        DB 250
        DB 179
        DB 183
        DB 187
        DB 142
        DB 158
        DB 174
        DB 241
        DB 50
        DB 245
        DB 27
        DB 241
        DB 180
        DB 184
        DB 176
        DB 128
        DB 151
        DB 241
        DB 169
        DB 223
        DB 223
        DB 223
        DB 170
        DB 223
        DB 223
        DB 223
        DB 242
        DB 170
        DB 197
        DB 205
        DB 199
        DB 169
        DB 12
        DB 201
        DB 44
        DB 151
        DB 241
        DB 169
        DB 137
        DB 38
        DB 70
        DB 102
        DB 178
        DB 137
        DB 153
        DB 169
        DB 45
        DB 85
        DB 125
        DB 176
        DB 176
        DB 138
        DB 168
        DB 150
        DB 54
        DB 86
        DB 118
        DB 241
        DB 186
        DB 163
        DB 180
        DB 178
        DB 128
        DB 192
        DB 184
        DB 168
        DB 151
        DB 17
        DB 178
        DB 131
        DB 152
        DB 186
        DB 163
        DB 240
        DB 36
        DB 8
        DB 68
        DB 16
        DB 100
        DB 24
        DB 178
        DB 185
        DB 180
        DB 152
        DB 131
        DB 241
        DB 163
        DB 41
        DB 85
        DB 125
        DB 186
        DB 181
        DB 177
        DB 163
        DB 131
        DB 147
        DB 240
        DB 0
        DB 40
        DB 80
        DB 245
        DB 178
        DB 182
        DB 170
        DB 131
        DB 147
        DB 40
        DB 84
        DB 124
        DB 241
        DB 185
        DB 163
        DB 130
        DB 147
        DB 97
        DB 186
        DB 162
        DB 218
        DB 222
        DB 223
        DB 219
        DB 129
        DB 154
        DB 185
        DB 174
        DB 245
        DB 96
        DB 104
        DB 112
        DB 241
        DB 218
        DB 186
        DB 162
        DB 223
        DB 217
        DB 186
        DB 162
        DB 250
        DB 185
        DB 163
        DB 130
        DB 146
        DB 219
        DB 49
        DB 186
        DB 162
        DB 217
        DB 186
        DB 162
        DB 248
        DB 223
        DB 133
        DB 164
        DB 208
        DB 193
        DB 187
        DB 173
        DB 131
        DB 194
        DB 197
        DB 199
        DB 184
        DB 162
        DB 223
        DB 223
        DB 223
        DB 186
        DB 160
        DB 223
        DB 223
        DB 223
        DB 216
        DB 216
        DB 241
        DB 184
        DB 170
        DB 179
        DB 141
        DB 180
        DB 152
        DB 13
        DB 53
        DB 93
        DB 178
        DB 182
        DB 186
        DB 175
        DB 140
        DB 150
        DB 25
        DB 143
        DB 159
        DB 167
        DB 14
        DB 22
        DB 30
        DB 180
        DB 154
        DB 184
        DB 170
        DB 135
        DB 44
        DB 84
        DB 124
        DB 186
        DB 164
        DB 176
        DB 138
        DB 182
        DB 145
        DB 50
        DB 86
        DB 118
        DB 178
        DB 132
        DB 148
        DB 164
        DB 200
        DB 8
        DB 205
        DB 216
        DB 184
        DB 180
        DB 176
        DB 241
        DB 153
        DB 130
        DB 168
        DB 45
        DB 85
        DB 125
        DB 152
        DB 168
        DB 14
        DB 22
        DB 30
        DB 162
        DB 44
        DB 84
        DB 124
        DB 146
        DB 164
        DB 240
        DB 44
        DB 80
        DB 120
        DB 241
        DB 132
        DB 168
        DB 152
        DB 196
        DB 205
        DB 252
        DB 216
        DB 13
        DB 219
        DB 168
        DB 252
        DB 45
        DB 243
        DB 217
        DB 186
        DB 166
        DB 248
        DB 218
        DB 186
        DB 166
        DB 222
        DB 216
        DB 186
        DB 178
        DB 182
        DB 134
        DB 150
        DB 166
        DB 208
        DB 243
        DB 200
        DB 65
        DB 218
        DB 166
        DB 200
        DB 248
        DB 216
        DB 176
        DB 180
        DB 184
        DB 130
        DB 168
        DB 146
        DB 245
        DB 44
        DB 84
        DB 136
        DB 152
        DB 241
        DB 53
        DB 217
        DB 244
        DB 24
        DB 216
        DB 241
        DB 162
        DB 208
        DB 248
        DB 249
        DB 168
        DB 132
        DB 217
        DB 199
        DB 223
        DB 248
        DB 248
        DB 131
        DB 197
        DB 218
        DB 223
        DB 105
        DB 223
        DB 131
        DB 193
        DB 216
        DB 244
        DB 1
        DB 20
        DB 241
        DB 168
        DB 130
        DB 78
        DB 168
        DB 132
        DB 243
        DB 17
        DB 209
        DB 130
        DB 245
        DB 217
        DB 146
        DB 40
        DB 151
        DB 136
        DB 241
        DB 9
        DB 244
        DB 28
        DB 28
        DB 216
        DB 132
        DB 168
        DB 243
        DB 192
        DB 249
        DB 209
        DB 217
        DB 151
        DB 130
        DB 241
        DB 41
        DB 244
        DB 13
        DB 216
        DB 243
        DB 249
        DB 249
        DB 209
        DB 217
        DB 130
        DB 244
        DB 194
        DB 3
        DB 216
        DB 222
        DB 223
        DB 26
        DB 216
        DB 241
        DB 162
        DB 250
        DB 249
        DB 168
        DB 132
        DB 152
        DB 217
        DB 199
        DB 223
        DB 248
        DB 248
        DB 248
        DB 131
        DB 199
        DB 218
        DB 223
        DB 105
        DB 223
        DB 248
        DB 131
        DB 195
        DB 216
        DB 244
        DB 1
        DB 20
        DB 241
        DB 152
        DB 168
        DB 130
        DB 46
        DB 168
        DB 132
        DB 243
        DB 17
        DB 209
        DB 130
        DB 245
        DB 217
        DB 146
        DB 80
        DB 151
        DB 136
        DB 241
        DB 9
        DB 244
        DB 28
        DB 216
        DB 132
        DB 168
        DB 243
        DB 192
        DB 248
        DB 249
        DB 209
        DB 217
        DB 151
        DB 130
        DB 241
        DB 73
        DB 244
        DB 13
        DB 216
        DB 243
        DB 249
        DB 249
        DB 209
        DB 217
        DB 130
        DB 244
        DB 196
        DB 3
        DB 216
        DB 222
        DB 223
        DB 216
        DB 241
        DB 173
        DB 136
        DB 152
        DB 204
        DB 168
        DB 9
        DB 249
        DB 217
        DB 130
        DB 146
        DB 168
        DB 245
        DB 124
        DB 241
        DB 136
        DB 58
        DB 207
        DB 148
        DB 74
        DB 110
        DB 152
        DB 219
        DB 105
        DB 49
        DB 218
        DB 173
        DB 242
        DB 222
        DB 249
        DB 216
        DB 135
        DB 149
        DB 168
        DB 242
        DB 33
        DB 209
        DB 218
        DB 165
        DB 249
        DB 244
        DB 23
        DB 217
        DB 241
        DB 174
        DB 142
        DB 208
        DB 192
        DB 195
        DB 174
        DB 130
        DB 198
        DB 132
        DB 195
        DB 168
        DB 133
        DB 149
        DB 200
        DB 165
        DB 136
        DB 242
        DB 192
        DB 241
        DB 244
        DB 1
        DB 14
        DB 241
        DB 142
        DB 158
        DB 168
        DB 198
        DB 62
        DB 86
        DB 245
        DB 84
        DB 241
        DB 136
        DB 114
        DB 244
        DB 1
        DB 21
        DB 241
        DB 152
        DB 69
        DB 133
        DB 110
        DB 245
        DB 142
        DB 158
        DB 4
        DB 136
        DB 241
        DB 66
        DB 152
        DB 90
        DB 142
        DB 158
        DB 6
        DB 136
        DB 105
        DB 244
        DB 1
        DB 28
        DB 241
        DB 152
        DB 30
        DB 17
        DB 8
        DB 208
        DB 245
        DB 4
        DB 241
        DB 30
        DB 151
        DB 2
        DB 2
        DB 152
        DB 54
        DB 37
        DB 219
        DB 249
        DB 217
        DB 133
        DB 165
        DB 243
        DB 193
        DB 218
        DB 133
        DB 165
        DB 243
        DB 223
        DB 216
        DB 133
        DB 149
        DB 168
        DB 243
        DB 9
        DB 218
        DB 165
        DB 250
        DB 216
        DB 130
        DB 146
        DB 168
        DB 245
        DB 120
        DB 241
        DB 136
        DB 26
        DB 132
        DB 159
        DB 38
        DB 136
        DB 152
        DB 33
        DB 218
        DB 244
        DB 29
        DB 243
        DB 216
        DB 135
        DB 159
        DB 57
        DB 209
        DB 175
        DB 217
        DB 223
        DB 223
        DB 251
        DB 249
        DB 244
        DB 12
        DB 243
        DB 216
        DB 250
        DB 208
        DB 248
        DB 218
        DB 249
        DB 249
        DB 208
        DB 223
        DB 217
        DB 249
        DB 216
        DB 244
        DB 11
        DB 216
        DB 243
        DB 135
        DB 159
        DB 57
        DB 209
        DB 175
        DB 217
        DB 223
        DB 223
        DB 244
        DB 29
        DB 243
        DB 216
        DB 250
        DB 252
        DB 168
        DB 105
        DB 249
        DB 249
        DB 175
        DB 208
        DB 218
        DB 222
        DB 250
        DB 217
        DB 248
        DB 143
        DB 159
        DB 168
        DB 241
        DB 204
        DB 243
        DB 152
        DB 219
        DB 69
        DB 217
        DB 175
        DB 223
        DB 208
        DB 248
        DB 216
        DB 241
        DB 143
        DB 159
        DB 168
        DB 202
        DB 243
        DB 136
        DB 9
        DB 218
        DB 175
        DB 143
        DB 203
        DB 248
        DB 216
        DB 242
        DB 173
        DB 151
        DB 141
        DB 12
        DB 217
        DB 165
        DB 223
        DB 249
        DB 186
        DB 166
        DB 243
        DB 250
        DB 244
        DB 18
        DB 242
        DB 216
        DB 149
        DB 13
        DB 209
        DB 217
        DB 186
        DB 166
        DB 243
        DB 250
        DB 218
        DB 165
        DB 242
        DB 193
        DB 186
        DB 166
        DB 243
        DB 223
        DB 216
        DB 241
        DB 186
        DB 178
        DB 182
        DB 134
        DB 150
        DB 166
        DB 208
        DB 202
        DB 243
        DB 73
        DB 218
        DB 166
        DB 203
        DB 248
        DB 216
        DB 176
        DB 180
        DB 184
        DB 216
        DB 173
        DB 132
        DB 242
        DB 192
        DB 223
        DB 241
        DB 143
        DB 203
        DB 195
        DB 168
        DB 178
        DB 182
        DB 134
        DB 150
        DB 200
        DB 193
        DB 203
        DB 195
        DB 243
        DB 176
        DB 180
        DB 136
        DB 152
        DB 168
        DB 33
        DB 219
        DB 113
        DB 141
        DB 157
        DB 113
        DB 133
        DB 149
        DB 33
        DB 217
        DB 173
        DB 242
        DB 250
        DB 216
        DB 133
        DB 151
        DB 168
        DB 40
        DB 217
        DB 244
        DB 8
        DB 216
        DB 242
        DB 141
        DB 41
        DB 218
        DB 244
        DB 5
        DB 217
        DB 242
        DB 133
        DB 164
        DB 194
        DB 242
        DB 216
        DB 168
        DB 141
        DB 148
        DB 1
        DB 209
        DB 217
        DB 244
        DB 17
        DB 242
        DB 216
        DB 135
        DB 33
        DB 216
        DB 244
        DB 10
        DB 216
        DB 242
        DB 132
        DB 152
        DB 168
        DB 200
        DB 1
        DB 209
        DB 217
        DB 244
        DB 17
        DB 216
        DB 243
        DB 164
        DB 200
        DB 187
        DB 175
        DB 208
        DB 242
        DB 222
        DB 248
        DB 248
        DB 248
        DB 248
        DB 248
        DB 248
        DB 248
        DB 248
        DB 216
        DB 241
        DB 184
        DB 246
        DB 181
        DB 185
        DB 176
        DB 138
        DB 149
        DB 163
        DB 222
        DB 60
        DB 163
        DB 217
        DB 248
        DB 216
        DB 92
        DB 163
        DB 217
        DB 248
        DB 216
        DB 124
        DB 163
        DB 217
        DB 248
        DB 216
        DB 248
        DB 249
        DB 209
        DB 165
        DB 217
        DB 223
        DB 218
        DB 250
        DB 216
        DB 177
        DB 133
        DB 48
        DB 247
        DB 217
        DB 222
        DB 216
        DB 248
        DB 48
        DB 173
        DB 218
        DB 222
        DB 216
        DB 242
        DB 180
        DB 140
        DB 153
        DB 163
        DB 45
        DB 85
        DB 125
        DB 160
        DB 131
        DB 223
        DB 223
        DB 223
        DB 181
        DB 145
        DB 160
        DB 246
        DB 41
        DB 217
        DB 251
        DB 216
        DB 160
        DB 252
        DB 41
        DB 217
        DB 250
        DB 216
        DB 160
        DB 208
        DB 81
        DB 217
        DB 248
        DB 216
        DB 252
        DB 81
        DB 217
        DB 249
        DB 216
        DB 121
        DB 217
        DB 251
        DB 216
        DB 160
        DB 208
        DB 252
        DB 121
        DB 217
        DB 250
        DB 216
        DB 161
        DB 249
        DB 249
        DB 249
        DB 249
        DB 249
        DB 160
        DB 218
        DB 223
        DB 223
        DB 223
        DB 216
        DB 161
        DB 248
        DB 248
        DB 248
        DB 248
        DB 248
        DB 172
        DB 222
        DB 248
        DB 173
        DB 222
        DB 131
        DB 147
        DB 172
        DB 44
        DB 84
        DB 124
        DB 241
        DB 168
        DB 223
        DB 223
        DB 223
        DB 246
        DB 157
        DB 44
        DB 218
        DB 160
        DB 223
        DB 217
        DB 250
        DB 219
        DB 45
        DB 248
        DB 216
        DB 168
        DB 80
        DB 218
        DB 160
        DB 208
        DB 222
        DB 217
        DB 208
        DB 248
        DB 248
        DB 248
        DB 219
        DB 85
        DB 248
        DB 216
        DB 168
        DB 120
        DB 218
        DB 160
        DB 208
        DB 223
        DB 217
        DB 208
        DB 250
        DB 248
        DB 248
        DB 248
        DB 248
        DB 219
        DB 125
        DB 248
        DB 216
        DB 156
        DB 168
        DB 140
        DB 245
        DB 48
        DB 219
        DB 56
        DB 217
        DB 208
        DB 222
        DB 223
        DB 160
        DB 208
        DB 222
        DB 223
        DB 216
        DB 168
        DB 72
        DB 219
        DB 88
        DB 217
        DB 223
        DB 208
        DB 222
        DB 160
        DB 223
        DB 208
        DB 222
        DB 216
        DB 168
        DB 104
        DB 219
        DB 112
        DB 217
        DB 223
        DB 223
        DB 160
        DB 223
        DB 223
        DB 216
        DB 241
        DB 168
        DB 136
        DB 144
        DB 44
        DB 84
        DB 124
        DB 152
        DB 168
        DB 208
        DB 92
        DB 56
        DB 209
        DB 218
        DB 242
        DB 174
        DB 140
        DB 223
        DB 249
        DB 216
        DB 176
        DB 135
        DB 168
        DB 193
        DB 193
        DB 177
        DB 136
        DB 168
        DB 198
        DB 249
        DB 249
        DB 218
        DB 54
        DB 216
        DB 168
        DB 249
        DB 218
        DB 54
        DB 216
        DB 168
        DB 249
        DB 218
        DB 54
        DB 216
        DB 168
        DB 249
        DB 218
        DB 54
        DB 216
        DB 168
        DB 249
        DB 218
        DB 54
        DB 216
        DB 247
        DB 141
        DB 157
        DB 173
        DB 248
        DB 24
        DB 218
        DB 242
        DB 174
        DB 223
        DB 216
        DB 247
        DB 173
        DB 250
        DB 48
        DB 217
        DB 164
        DB 222
        DB 249
        DB 216
        DB 242
        DB 174
        DB 222
        DB 250
        DB 249
        DB 131
        DB 167
        DB 217
        DB 195
        DB 197
        DB 199
        DB 241
        DB 136
        DB 155
        DB 167
        DB 122
        DB 173
        DB 247
        DB 222
        DB 223
        DB 164
        DB 248
        DB 132
        DB 148
        DB 8
        DB 167
        DB 151
        DB 243
        DB 0
        DB 174
        DB 242
        DB 152
        DB 25
        DB 164
        DB 136
        DB 198
        DB 163
        DB 148
        DB 136
        DB 246
        DB 50
        DB 223
        DB 242
        DB 131
        DB 147
        DB 219
        DB 9
        DB 217
        DB 242
        DB 170
        DB 223
        DB 216
        DB 216
        DB 174
        DB 248
        DB 249
        DB 209
        DB 218
        DB 243
        DB 164
        DB 222
        DB 167
        DB 241
        DB 136
        DB 155
        DB 122
        DB 216
        DB 243
        DB 132
        DB 148
        DB 174
        DB 25
        DB 249
        DB 218
        DB 170
        DB 241
        DB 223
        DB 216
        DB 168
        DB 129
        DB 192
        DB 195
        DB 197
        DB 199
        DB 163
        DB 146
        DB 131
        DB 246
        DB 40
        DB 173
        DB 222
        DB 217
        DB 248
        DB 216
        DB 163
        DB 80
        DB 173
        DB 217
        DB 248
        DB 216
        DB 163
        DB 120
        DB 173
        DB 217
        DB 248
        DB 216
        DB 248
        DB 249
        DB 209
        DB 161
        DB 218
        DB 222
        DB 195
        DB 197
        DB 199
        DB 216
        DB 161
        DB 129
        DB 148
        DB 248
        DB 24
        DB 242
        DB 176
        DB 137
        DB 172
        DB 195
        DB 197
        DB 199
        DB 241
        DB 216
        DB 184
        DB 180
        DB 176
        DB 151
        DB 134
        DB 168
        DB 49
        DB 155
        DB 6
        DB 153
        DB 7
        DB 171
        DB 151
        DB 40
        DB 136
        DB 155
        DB 240
        DB 12
        DB 32
        DB 20
        DB 64
        DB 176
        DB 180
        DB 184
        DB 240
        DB 168
        DB 138
        DB 154
        DB 40
        DB 80
        DB 120
        DB 183
        DB 155
        DB 168
        DB 41
        DB 81
        DB 121
        DB 36
        DB 112
        DB 89
        DB 68
        DB 105
        DB 56
        DB 100
        DB 72
        DB 49
        DB 241
        DB 187
        DB 171
        DB 136
        DB 0
        DB 44
        DB 84
        DB 124
        DB 240
        DB 179
        DB 139
        DB 184
        DB 168
        DB 4
        DB 40
        DB 80
        DB 120
        DB 241
        DB 176
        DB 136
        DB 180
        DB 151
        DB 38
        DB 168
        DB 89
        DB 152
        DB 187
        DB 171
        DB 179
        DB 139
        DB 2
        DB 38
        DB 70
        DB 102
        DB 176
        DB 184
        DB 240
        DB 138
        DB 156
        DB 168
        DB 41
        DB 81
        DB 121
        DB 139
        DB 41
        DB 81
        DB 121
        DB 138
        DB 36
        DB 112
        DB 89
        DB 139
        DB 32
        DB 88
        DB 113
        DB 138
        DB 68
        DB 105
        DB 56
        DB 139
        DB 57
        DB 64
        DB 104
        DB 138
        DB 100
        DB 72
        DB 49
        DB 139
        DB 48
        DB 73
        DB 96
        DB 136
        DB 241
        DB 172
        DB 0
        DB 44
        DB 84
        DB 124
        DB 240
        DB 140
        DB 168
        DB 4
        DB 40
        DB 80
        DB 120
        DB 241
        DB 136
        DB 151
        DB 38
        DB 168
        DB 89
        DB 152
        DB 172
        DB 140
        DB 2
        DB 38
        DB 70
        DB 102
        DB 240
        DB 137
        DB 156
        DB 168
        DB 41
        DB 81
        DB 121
        DB 36
        DB 112
        DB 89
        DB 68
        DB 105
        DB 56
        DB 100
        DB 72
        DB 49
        DB 169
        DB 136
        DB 9
        DB 32
        DB 89
        DB 112
        DB 171
        DB 17
        DB 56
        DB 64
        DB 105
        DB 168
        DB 25
        DB 49
        DB 72
        DB 96
        DB 140
        DB 168
        DB 60
        DB 65
        DB 92
        DB 32
        DB 124
        DB 0
        DB 241
        DB 135
        DB 152
        DB 25
        DB 134
        DB 168
        DB 110
        DB 118
        DB 126
        DB 169
        DB 153
        DB 136
        DB 45
        DB 85
        DB 125
        DB 216
        DB 177
        DB 181
        DB 185
        DB 163
        DB 223
        DB 223
        DB 223
        DB 174
        DB 208
        DB 223
        DB 170
        DB 208
        DB 222
        DB 242
        DB 171
        DB 248
        DB 249
        DB 217
        DB 176
        DB 135
        DB 196
        DB 170
        DB 241
        DB 223
        DB 223
        DB 187
        DB 175
        DB 223
        DB 223
        DB 185
        DB 216
        DB 177
        DB 241
        DB 163
        DB 151
        DB 142
        DB 96
        DB 223
        DB 176
        DB 132
        DB 242
        DB 200
        DB 248
        DB 249
        DB 217
        DB 222
        DB 216
        DB 147
        DB 133
        DB 241
        DB 74
        DB 177
        DB 131
        DB 163
        DB 8
        DB 181
        DB 131
        DB 154
        DB 8
        DB 16
        DB 183
        DB 159
        DB 16
        DB 216
        DB 241
        DB 176
        DB 186
        DB 174
        DB 176
        DB 138
        DB 194
        DB 178
        DB 182
        DB 142
        DB 158
        DB 241
        DB 251
        DB 217
        DB 244
        DB 29
        DB 216
        DB 249
        DB 217
        DB 12
        DB 241
        DB 216
        DB 248
        DB 248
        DB 173
        DB 97
        DB 217
        DB 174
        DB 251
        DB 216
        DB 244
        DB 12
        DB 241
        DB 216
        DB 248
        DB 248
        DB 173
        DB 25
        DB 217
        DB 174
        DB 251
        DB 223
        DB 216
        DB 244
        DB 22
        DB 241
        DB 216
        DB 248
        DB 173
        DB 141
        DB 97
        DB 217
        DB 244
        DB 244
        DB 172
        DB 245
        DB 156
        DB 156
        DB 141
        DB 223
        DB 43
        DB 186
        DB 182
        DB 174
        DB 250
        DB 248
        DB 244
        DB 11
        DB 216
        DB 241
        DB 174
        DB 208
        DB 248
        DB 173
        DB 81
        DB 218
        DB 174
        DB 250
        DB 248
        DB 241
        DB 216
        DB 185
        DB 177
        DB 182
        DB 163
        DB 131
        DB 156
        DB 8
        DB 185
        DB 177
        DB 131
        DB 154
        DB 181
        DB 170
        DB 192
        DB 253
        DB 48
        DB 131
        DB 183
        DB 159
        DB 16
        DB 181
        DB 139
        DB 147
        DB 242
        DB 2
        DB 2
        DB 209
        DB 171
        DB 218
        DB 222
        DB 216
        DB 241
        DB 176
        DB 128
        DB 186
        DB 171
        DB 192
        DB 195
        DB 178
        DB 132
        DB 193
        DB 195
        DB 216
        DB 177
        DB 185
        DB 243
        DB 139
        DB 163
        DB 145
        DB 182
        DB 9
        DB 180
        DB 217
        DB 171
        DB 222
        DB 176
        DB 135
        DB 156
        DB 185
        DB 163
        DB 221
        DB 241
        DB 179
        DB 139
        DB 139
        DB 139
        DB 139
        DB 139
        DB 176
        DB 135
        DB 163
        DB 163
        DB 163
        DB 163
        DB 178
        DB 139
        DB 182
        DB 155
        DB 242
        DB 163
        DB 163
        DB 163
        DB 163
        DB 163
        DB 163
        DB 163
        DB 163
        DB 163
        DB 163
        DB 241
        DB 176
        DB 135
        DB 181
        DB 154
        DB 163
        DB 243
        DB 155
        DB 163
        DB 163
        DB 220
        DB 186
        DB 172
        DB 223
        DB 185
        DB 163
        DB 163
        DB 163
        DB 163
        DB 163
        DB 163
        DB 163
        DB 163
        DB 163
        DB 163
        DB 163
        DB 163
        DB 163
        DB 163
        DB 163
        DB 163
        DB 216
        DB 216
        DB 216
        DB 187
        DB 179
        DB 183
        DB 241
        DB 170
        DB 249
        DB 218
        DB 255
        DB 217
        DB 128
        DB 154
        DB 170
        DB 40
        DB 180
        DB 128
        DB 152
        DB 167
        DB 32
        DB 183
        DB 151
        DB 135
        DB 168
        DB 102
        DB 136
        DB 240
        DB 121
        DB 81
        DB 241
        DB 144
        DB 44
        DB 135
        DB 12
        DB 167
        DB 129
        DB 151
        DB 98
        DB 147
        DB 240
        DB 113
        DB 113
        DB 96
        DB 133
        DB 148
        DB 1
        DB 41
        DB 81
        DB 121
        DB 144
        DB 165
        DB 241
        DB 40
        DB 76
        DB 108
        DB 135
        DB 12
        DB 149
        DB 24
        DB 133
        DB 120
        DB 163
        DB 131
        DB 144
        DB 40
        DB 76
        DB 108
        DB 136
        DB 108
        DB 216
        DB 243
        DB 162
        DB 130
        DB 0
        DB 242
        DB 16
        DB 168
        DB 146
        DB 25
        DB 128
        DB 162
        DB 242
        DB 217
        DB 38
        DB 216
        DB 241
        DB 136
        DB 168
        DB 77
        DB 217
        DB 72
        DB 216
        DB 150
        DB 168
        DB 57
        DB 128
        DB 217
        DB 60
        DB 216
        DB 149
        DB 128
        DB 168
        DB 57
        DB 166
        DB 134
        DB 152
        DB 217
        DB 44
        DB 218
        DB 135
        DB 167
        DB 44
        DB 216
        DB 168
        DB 137
        DB 149
        DB 25
        DB 169
        DB 128
        DB 217
        DB 56
        DB 216
        DB 168
        DB 137
        DB 57
        DB 169
        DB 128
        DB 218
        DB 60
        DB 216
        DB 168
        DB 46
        DB 168
        DB 57
        DB 144
        DB 217
        DB 12
        DB 216
        DB 168
        DB 149
        DB 49
        DB 152
        DB 217
        DB 12
        DB 216
        DB 168
        DB 9
        DB 217
        DB 255
        DB 216
        DB 1
        DB 218
        DB 255
        DB 216
        DB 149
        DB 57
        DB 169
        DB 218
        DB 38
        DB 255
        DB 216
        DB 144
        DB 168
        DB 13
        DB 137
        DB 153
        DB 168
        DB 16
        DB 128
        DB 152
        DB 33
        DB 218
        DB 46
        DB 216
        DB 137
        DB 153
        DB 168
        DB 49
        DB 128
        DB 218
        DB 46
        DB 216
        DB 168
        DB 134
        DB 150
        DB 49
        DB 128
        DB 218
        DB 46
        DB 216
        DB 168
        DB 135
        DB 49
        DB 128
        DB 218
        DB 46
        DB 216
        DB 168
        DB 130
        DB 146
        DB 243
        DB 65
        DB 128
        DB 241
        DB 217
        DB 46
        DB 216
        DB 168
        DB 130
        DB 243
        DB 25
        DB 128
        DB 241
        DB 217
        DB 46
        DB 216
        DB 130
        DB 172
        DB 243
        DB 192
        DB 162
        DB 128
        DB 34
        DB 241
        DB 166
        DB 46
        DB 167
        DB 46
        DB 169
        DB 34
        DB 152
        DB 168
        DB 41
        DB 218
        DB 172
        DB 222
        DB 255
        DB 216
        DB 162
        DB 242
        DB 42
        DB 241
        DB 169
        DB 46
        DB 130
        DB 146
        DB 168
        DB 242
        DB 49
        DB 128
        DB 166
        DB 150
        DB 241
        DB 217
        DB 0
        DB 172
        DB 140
        DB 156
        DB 12
        DB 48
        DB 172
        DB 222
        DB 208
        DB 222
        DB 255
        DB 216
        DB 140
        DB 156
        DB 172
        DB 208
        DB 16
        DB 172
        DB 222
        DB 128
        DB 146
        DB 162
        DB 242
        DB 76
        DB 130
        DB 168
        DB 241
        DB 202
        DB 242
        DB 53
        DB 241
        DB 150
        DB 136
        DB 166
        DB 217
        DB 0
        DB 216
        DB 241
        DB 255
//  253     /* bank # 0 */
//  254     0x00, 0x00, 0x70, 0x00, 0x00, 0x00, 0x00, 0x24, 0x00, 0x00, 0x00, 0x02, 0x00, 0x03, 0x00, 0x00,
//  255     0x00, 0x65, 0x00, 0x54, 0xff, 0xef, 0x00, 0x00, 0xfa, 0x80, 0x00, 0x0b, 0x12, 0x82, 0x00, 0x01,
//  256     0x03, 0x0c, 0x30, 0xc3, 0x0e, 0x8c, 0x8c, 0xe9, 0x14, 0xd5, 0x40, 0x02, 0x13, 0x71, 0x0f, 0x8e,
//  257     0x38, 0x83, 0xf8, 0x83, 0x30, 0x00, 0xf8, 0x83, 0x25, 0x8e, 0xf8, 0x83, 0x30, 0x00, 0xf8, 0x83,
//  258     0xff, 0xff, 0xff, 0xff, 0x0f, 0xfe, 0xa9, 0xd6, 0x24, 0x00, 0x04, 0x00, 0x1a, 0x82, 0x79, 0xa1,
//  259     0x00, 0x00, 0x00, 0x3c, 0xff, 0xff, 0x00, 0x00, 0x00, 0x10, 0x00, 0x00, 0x38, 0x83, 0x6f, 0xa2,
//  260     0x00, 0x3e, 0x03, 0x30, 0x40, 0x00, 0x00, 0x00, 0x02, 0xca, 0xe3, 0x09, 0x3e, 0x80, 0x00, 0x00,
//  261     0x20, 0x00, 0x00, 0x00, 0x00, 0x00, 0x00, 0x00, 0x40, 0x00, 0x00, 0x00, 0x60, 0x00, 0x00, 0x00,
//  262     0x00, 0x0c, 0x00, 0x00, 0x00, 0x0c, 0x18, 0x6e, 0x00, 0x00, 0x06, 0x92, 0x0a, 0x16, 0xc0, 0xdf,
//  263     0xff, 0xff, 0x02, 0x56, 0xfd, 0x8c, 0xd3, 0x77, 0xff, 0xe1, 0xc4, 0x96, 0xe0, 0xc5, 0xbe, 0xaa,
//  264     0x00, 0x00, 0x00, 0x00, 0xff, 0xff, 0x0b, 0x2b, 0x00, 0x00, 0x16, 0x57, 0x00, 0x00, 0x03, 0x59,
//  265     0x40, 0x00, 0x00, 0x00, 0x00, 0x00, 0x1d, 0xfa, 0x00, 0x02, 0x6c, 0x1d, 0x00, 0x00, 0x00, 0x00,
//  266     0x3f, 0xff, 0xdf, 0xeb, 0x00, 0x3e, 0xb3, 0xb6, 0x00, 0x0d, 0x22, 0x78, 0x00, 0x00, 0x2f, 0x3c,
//  267     0x00, 0x00, 0x00, 0x00, 0x00, 0x19, 0x42, 0xb5, 0x00, 0x00, 0x39, 0xa2, 0x00, 0x00, 0xb3, 0x65,
//  268     0xd9, 0x0e, 0x9f, 0xc9, 0x1d, 0xcf, 0x4c, 0x34, 0x30, 0x00, 0x00, 0x00, 0x50, 0x00, 0x00, 0x00,
//  269     0x3b, 0xb6, 0x7a, 0xe8, 0x00, 0x64, 0x00, 0x00, 0x00, 0xc8, 0x00, 0x00, 0x00, 0x00, 0x00, 0x00,
//  270     /* bank # 1 */
//  271     0x10, 0x00, 0x00, 0x00, 0x10, 0x00, 0xfa, 0x92, 0x10, 0x00, 0x22, 0x5e, 0x00, 0x0d, 0x22, 0x9f,
//  272     0x00, 0x01, 0x00, 0x00, 0x00, 0x32, 0x00, 0x00, 0xff, 0x46, 0x00, 0x00, 0x63, 0xd4, 0x00, 0x00,
//  273     0x10, 0x00, 0x00, 0x00, 0x04, 0xd6, 0x00, 0x00, 0x04, 0xcc, 0x00, 0x00, 0x04, 0xcc, 0x00, 0x00,
//  274     0x00, 0x00, 0x10, 0x72, 0x00, 0x00, 0x00, 0x40, 0x00, 0x00, 0x00, 0x00, 0x00, 0x00, 0x00, 0x00,
//  275     0x00, 0x06, 0x00, 0x02, 0x00, 0x05, 0x00, 0x07, 0x00, 0x00, 0x00, 0x00, 0x00, 0x64, 0x00, 0x00,
//  276     0x00, 0x00, 0x00, 0x00, 0x00, 0x00, 0x00, 0x05, 0x00, 0x05, 0x00, 0x64, 0x00, 0x20, 0x00, 0x00,
//  277     0x00, 0x00, 0x00, 0x00, 0x00, 0x00, 0x00, 0x00, 0x00, 0x00, 0x40, 0x00, 0x00, 0x00, 0x03, 0x00,
//  278     0x00, 0x00, 0x00, 0x32, 0xf8, 0x98, 0x00, 0x00, 0xff, 0x65, 0x00, 0x00, 0x83, 0x0f, 0x00, 0x00,
//  279     0xff, 0x9b, 0xfc, 0x00, 0x00, 0x00, 0x00, 0x00, 0x00, 0x00, 0x00, 0x00, 0x00, 0x00, 0x00, 0x00,
//  280     0x00, 0x00, 0x00, 0x00, 0x00, 0x00, 0x00, 0x00, 0x00, 0x00, 0x00, 0x00, 0x00, 0x00, 0x00, 0x00,
//  281     0x00, 0x00, 0x00, 0x00, 0x00, 0x00, 0x00, 0x00, 0x00, 0x00, 0x00, 0x00, 0x00, 0x00, 0x10, 0x00,
//  282     0x40, 0x00, 0x00, 0x00, 0x00, 0x00, 0x00, 0x06, 0x00, 0x00, 0xb2, 0x6a, 0x00, 0x02, 0x00, 0x00,
//  283     0x00, 0x01, 0xfb, 0x83, 0x00, 0x68, 0x00, 0x00, 0x00, 0xd9, 0xfc, 0x00, 0x7c, 0xf1, 0xff, 0x83,
//  284     0x00, 0x00, 0x00, 0x00, 0x00, 0x65, 0x00, 0x00, 0x00, 0x64, 0x03, 0xe8, 0x00, 0x64, 0x00, 0x28,
//  285     0x00, 0x00, 0x00, 0x25, 0x00, 0x00, 0x00, 0x00, 0x16, 0xa0, 0x00, 0x00, 0x00, 0x00, 0x10, 0x00,
//  286     0x00, 0x00, 0x10, 0x00, 0x00, 0x2f, 0x00, 0x00, 0x00, 0x00, 0x01, 0xf4, 0x00, 0x00, 0x10, 0x00,
//  287     /* bank # 2 */
//  288     0x00, 0x28, 0x00, 0x00, 0xff, 0xff, 0x45, 0x81, 0xff, 0xff, 0xfa, 0x72, 0x00, 0x00, 0x00, 0x00,
//  289     0x00, 0x00, 0x00, 0x00, 0x00, 0x44, 0x00, 0x05, 0x00, 0x05, 0xba, 0xc6, 0x00, 0x47, 0x78, 0xa2,
//  290     0x00, 0x00, 0x00, 0x01, 0x00, 0x00, 0x00, 0x00, 0x00, 0x00, 0x06, 0x00, 0x00, 0x00, 0x00, 0x14,
//  291     0x00, 0x00, 0x25, 0x4d, 0x00, 0x2f, 0x70, 0x6d, 0x00, 0x00, 0x05, 0xae, 0x00, 0x0c, 0x02, 0xd0,
//  292     0x00, 0x00, 0x00, 0x00, 0x00, 0x00, 0x00, 0x00, 0x00, 0x00, 0x00, 0x00, 0x00, 0x00, 0x00, 0x00,
//  293     0x00, 0x1b, 0x00, 0x00, 0x00, 0x00, 0x00, 0x00, 0x00, 0x00, 0x00, 0x00, 0x00, 0x00, 0x00, 0x00,
//  294     0x00, 0x64, 0x00, 0x00, 0x00, 0x08, 0x00, 0x00, 0x00, 0x00, 0x00, 0x00, 0x00, 0x00, 0x00, 0x00,
//  295     0x00, 0x00, 0x00, 0x00, 0x00, 0x00, 0x00, 0x00, 0x00, 0x00, 0x00, 0x00, 0x00, 0x00, 0x00, 0x00,
//  296     0x00, 0x00, 0x00, 0x00, 0x00, 0x00, 0x00, 0x00, 0x00, 0x00, 0x00, 0x00, 0x00, 0x00, 0x00, 0x00,
//  297     0x00, 0x00, 0x00, 0x00, 0x00, 0x00, 0x00, 0x00, 0x00, 0x00, 0x00, 0x00, 0x00, 0x00, 0x00, 0x00,
//  298     0x00, 0x00, 0x00, 0x00, 0x00, 0x00, 0x00, 0x00, 0x00, 0x00, 0x00, 0x00, 0x00, 0x00, 0x00, 0x00,
//  299     0x00, 0x00, 0x00, 0x00, 0x00, 0x00, 0x00, 0x00, 0x00, 0x00, 0x00, 0x00, 0x00, 0x00, 0x00, 0x00,
//  300     0x00, 0x1b, 0x00, 0x00, 0x00, 0x00, 0x00, 0x00, 0x00, 0x00, 0x00, 0x00, 0x00, 0x0e, 0x00, 0x0e,
//  301     0x00, 0x00, 0x0a, 0xc7, 0x00, 0x04, 0x00, 0x00, 0x00, 0x00, 0x00, 0x32, 0xff, 0xff, 0xff, 0x9c,
//  302     0x00, 0x00, 0x0b, 0x2b, 0x00, 0x00, 0x00, 0x02, 0x00, 0x00, 0x00, 0x01, 0x00, 0x00, 0x00, 0x64,
//  303     0xff, 0xe5, 0x00, 0x00, 0x00, 0x00, 0x00, 0x00, 0x00, 0x00, 0x00, 0x00, 0x00, 0x00, 0x00, 0x00,
//  304     /* bank # 3 */
//  305     0x00, 0x00, 0x00, 0x01, 0x00, 0x00, 0x00, 0x00, 0x00, 0x01, 0x00, 0x00, 0x00, 0x00, 0x00, 0x00,
//  306     0x00, 0x01, 0x80, 0x00, 0x00, 0x01, 0x80, 0x00, 0x00, 0x01, 0x80, 0x00, 0x00, 0x24, 0x26, 0xd3,
//  307     0x00, 0x00, 0x00, 0x00, 0x00, 0x00, 0x00, 0x00, 0x00, 0x06, 0x00, 0x10, 0x00, 0x96, 0x00, 0x3c,
//  308     0x00, 0x00, 0x00, 0x00, 0x00, 0x00, 0x00, 0x00, 0x00, 0x00, 0x00, 0x00, 0x00, 0x00, 0x00, 0x00,
//  309     0x0c, 0x0a, 0x4e, 0x68, 0xcd, 0xcf, 0x77, 0x09, 0x50, 0x16, 0x67, 0x59, 0xc6, 0x19, 0xce, 0x82,
//  310     0x00, 0x00, 0x00, 0x00, 0x00, 0x00, 0x00, 0x00, 0x00, 0x00, 0x00, 0x00, 0x00, 0x00, 0x00, 0x00,
//  311     0x00, 0x00, 0x00, 0x00, 0x00, 0x00, 0x00, 0x00, 0x17, 0xd7, 0x84, 0x00, 0x03, 0x00, 0x00, 0x00,
//  312     0x00, 0x00, 0x00, 0x00, 0x00, 0x00, 0x00, 0x00, 0xc7, 0x93, 0x8f, 0x9d, 0x1e, 0x1b, 0x1c, 0x19,
//  313     0x00, 0x00, 0x00, 0x00, 0x00, 0x00, 0x00, 0x00, 0x00, 0x00, 0x00, 0x00, 0x00, 0x00, 0x00, 0x00,
//  314     0x00, 0x00, 0x00, 0x00, 0x00, 0x00, 0x00, 0x00, 0x02, 0x03, 0x18, 0x85, 0x00, 0x00, 0x40, 0x00,
//  315     0x00, 0x00, 0x00, 0x03, 0x00, 0x00, 0x00, 0x03, 0x00, 0x00, 0x00, 0x00, 0x00, 0x00, 0x00, 0x00,
//  316     0x40, 0x00, 0x00, 0x00, 0x00, 0x00, 0x00, 0x00, 0x00, 0x00, 0x00, 0x00, 0x00, 0x00, 0x00, 0x00,
//  317     0x00, 0x00, 0x00, 0x00, 0x00, 0x00, 0x00, 0x00, 0x00, 0x00, 0x00, 0x00, 0x00, 0x00, 0x00, 0x00,
//  318     0x00, 0x00, 0x00, 0x00, 0x00, 0x00, 0x00, 0x00, 0x00, 0x00, 0x00, 0x00, 0x00, 0x00, 0x00, 0x00,
//  319     0x00, 0x00, 0x00, 0x00, 0x67, 0x7d, 0xdf, 0x7e, 0x72, 0x90, 0x2e, 0x55, 0x4c, 0xf6, 0xe6, 0x88,
//  320     0x00, 0x00, 0x00, 0x00, 0x00, 0x00, 0x00, 0x00, 0x00, 0x00, 0x00, 0x00, 0x00, 0x00, 0x00, 0x00,
//  321 
//  322     /* bank # 4 */
//  323     0xd8, 0xdc, 0xb4, 0xb8, 0xb0, 0xd8, 0xb9, 0xab, 0xf3, 0xf8, 0xfa, 0xb3, 0xb7, 0xbb, 0x8e, 0x9e,
//  324     0xae, 0xf1, 0x32, 0xf5, 0x1b, 0xf1, 0xb4, 0xb8, 0xb0, 0x80, 0x97, 0xf1, 0xa9, 0xdf, 0xdf, 0xdf,
//  325     0xaa, 0xdf, 0xdf, 0xdf, 0xf2, 0xaa, 0xc5, 0xcd, 0xc7, 0xa9, 0x0c, 0xc9, 0x2c, 0x97, 0xf1, 0xa9,
//  326     0x89, 0x26, 0x46, 0x66, 0xb2, 0x89, 0x99, 0xa9, 0x2d, 0x55, 0x7d, 0xb0, 0xb0, 0x8a, 0xa8, 0x96,
//  327     0x36, 0x56, 0x76, 0xf1, 0xba, 0xa3, 0xb4, 0xb2, 0x80, 0xc0, 0xb8, 0xa8, 0x97, 0x11, 0xb2, 0x83,
//  328     0x98, 0xba, 0xa3, 0xf0, 0x24, 0x08, 0x44, 0x10, 0x64, 0x18, 0xb2, 0xb9, 0xb4, 0x98, 0x83, 0xf1,
//  329     0xa3, 0x29, 0x55, 0x7d, 0xba, 0xb5, 0xb1, 0xa3, 0x83, 0x93, 0xf0, 0x00, 0x28, 0x50, 0xf5, 0xb2,
//  330     0xb6, 0xaa, 0x83, 0x93, 0x28, 0x54, 0x7c, 0xf1, 0xb9, 0xa3, 0x82, 0x93, 0x61, 0xba, 0xa2, 0xda,
//  331     0xde, 0xdf, 0xdb, 0x81, 0x9a, 0xb9, 0xae, 0xf5, 0x60, 0x68, 0x70, 0xf1, 0xda, 0xba, 0xa2, 0xdf,
//  332     0xd9, 0xba, 0xa2, 0xfa, 0xb9, 0xa3, 0x82, 0x92, 0xdb, 0x31, 0xba, 0xa2, 0xd9, 0xba, 0xa2, 0xf8,
//  333     0xdf, 0x85, 0xa4, 0xd0, 0xc1, 0xbb, 0xad, 0x83, 0xc2, 0xc5, 0xc7, 0xb8, 0xa2, 0xdf, 0xdf, 0xdf,
//  334     0xba, 0xa0, 0xdf, 0xdf, 0xdf, 0xd8, 0xd8, 0xf1, 0xb8, 0xaa, 0xb3, 0x8d, 0xb4, 0x98, 0x0d, 0x35,
//  335     0x5d, 0xb2, 0xb6, 0xba, 0xaf, 0x8c, 0x96, 0x19, 0x8f, 0x9f, 0xa7, 0x0e, 0x16, 0x1e, 0xb4, 0x9a,
//  336     0xb8, 0xaa, 0x87, 0x2c, 0x54, 0x7c, 0xba, 0xa4, 0xb0, 0x8a, 0xb6, 0x91, 0x32, 0x56, 0x76, 0xb2,
//  337     0x84, 0x94, 0xa4, 0xc8, 0x08, 0xcd, 0xd8, 0xb8, 0xb4, 0xb0, 0xf1, 0x99, 0x82, 0xa8, 0x2d, 0x55,
//  338     0x7d, 0x98, 0xa8, 0x0e, 0x16, 0x1e, 0xa2, 0x2c, 0x54, 0x7c, 0x92, 0xa4, 0xf0, 0x2c, 0x50, 0x78,
//  339     /* bank # 5 */
//  340     0xf1, 0x84, 0xa8, 0x98, 0xc4, 0xcd, 0xfc, 0xd8, 0x0d, 0xdb, 0xa8, 0xfc, 0x2d, 0xf3, 0xd9, 0xba,
//  341     0xa6, 0xf8, 0xda, 0xba, 0xa6, 0xde, 0xd8, 0xba, 0xb2, 0xb6, 0x86, 0x96, 0xa6, 0xd0, 0xf3, 0xc8,
//  342     0x41, 0xda, 0xa6, 0xc8, 0xf8, 0xd8, 0xb0, 0xb4, 0xb8, 0x82, 0xa8, 0x92, 0xf5, 0x2c, 0x54, 0x88,
//  343     0x98, 0xf1, 0x35, 0xd9, 0xf4, 0x18, 0xd8, 0xf1, 0xa2, 0xd0, 0xf8, 0xf9, 0xa8, 0x84, 0xd9, 0xc7,
//  344     0xdf, 0xf8, 0xf8, 0x83, 0xc5, 0xda, 0xdf, 0x69, 0xdf, 0x83, 0xc1, 0xd8, 0xf4, 0x01, 0x14, 0xf1,
//  345     0xa8, 0x82, 0x4e, 0xa8, 0x84, 0xf3, 0x11, 0xd1, 0x82, 0xf5, 0xd9, 0x92, 0x28, 0x97, 0x88, 0xf1,
//  346     0x09, 0xf4, 0x1c, 0x1c, 0xd8, 0x84, 0xa8, 0xf3, 0xc0, 0xf9, 0xd1, 0xd9, 0x97, 0x82, 0xf1, 0x29,
//  347     0xf4, 0x0d, 0xd8, 0xf3, 0xf9, 0xf9, 0xd1, 0xd9, 0x82, 0xf4, 0xc2, 0x03, 0xd8, 0xde, 0xdf, 0x1a,
//  348     0xd8, 0xf1, 0xa2, 0xfa, 0xf9, 0xa8, 0x84, 0x98, 0xd9, 0xc7, 0xdf, 0xf8, 0xf8, 0xf8, 0x83, 0xc7,
//  349     0xda, 0xdf, 0x69, 0xdf, 0xf8, 0x83, 0xc3, 0xd8, 0xf4, 0x01, 0x14, 0xf1, 0x98, 0xa8, 0x82, 0x2e,
//  350     0xa8, 0x84, 0xf3, 0x11, 0xd1, 0x82, 0xf5, 0xd9, 0x92, 0x50, 0x97, 0x88, 0xf1, 0x09, 0xf4, 0x1c,
//  351     0xd8, 0x84, 0xa8, 0xf3, 0xc0, 0xf8, 0xf9, 0xd1, 0xd9, 0x97, 0x82, 0xf1, 0x49, 0xf4, 0x0d, 0xd8,
//  352     0xf3, 0xf9, 0xf9, 0xd1, 0xd9, 0x82, 0xf4, 0xc4, 0x03, 0xd8, 0xde, 0xdf, 0xd8, 0xf1, 0xad, 0x88,
//  353     0x98, 0xcc, 0xa8, 0x09, 0xf9, 0xd9, 0x82, 0x92, 0xa8, 0xf5, 0x7c, 0xf1, 0x88, 0x3a, 0xcf, 0x94,
//  354     0x4a, 0x6e, 0x98, 0xdb, 0x69, 0x31, 0xda, 0xad, 0xf2, 0xde, 0xf9, 0xd8, 0x87, 0x95, 0xa8, 0xf2,
//  355     0x21, 0xd1, 0xda, 0xa5, 0xf9, 0xf4, 0x17, 0xd9, 0xf1, 0xae, 0x8e, 0xd0, 0xc0, 0xc3, 0xae, 0x82,
//  356     /* bank # 6 */
//  357     0xc6, 0x84, 0xc3, 0xa8, 0x85, 0x95, 0xc8, 0xa5, 0x88, 0xf2, 0xc0, 0xf1, 0xf4, 0x01, 0x0e, 0xf1,
//  358     0x8e, 0x9e, 0xa8, 0xc6, 0x3e, 0x56, 0xf5, 0x54, 0xf1, 0x88, 0x72, 0xf4, 0x01, 0x15, 0xf1, 0x98,
//  359     0x45, 0x85, 0x6e, 0xf5, 0x8e, 0x9e, 0x04, 0x88, 0xf1, 0x42, 0x98, 0x5a, 0x8e, 0x9e, 0x06, 0x88,
//  360     0x69, 0xf4, 0x01, 0x1c, 0xf1, 0x98, 0x1e, 0x11, 0x08, 0xd0, 0xf5, 0x04, 0xf1, 0x1e, 0x97, 0x02,
//  361     0x02, 0x98, 0x36, 0x25, 0xdb, 0xf9, 0xd9, 0x85, 0xa5, 0xf3, 0xc1, 0xda, 0x85, 0xa5, 0xf3, 0xdf,
//  362     0xd8, 0x85, 0x95, 0xa8, 0xf3, 0x09, 0xda, 0xa5, 0xfa, 0xd8, 0x82, 0x92, 0xa8, 0xf5, 0x78, 0xf1,
//  363     0x88, 0x1a, 0x84, 0x9f, 0x26, 0x88, 0x98, 0x21, 0xda, 0xf4, 0x1d, 0xf3, 0xd8, 0x87, 0x9f, 0x39,
//  364     0xd1, 0xaf, 0xd9, 0xdf, 0xdf, 0xfb, 0xf9, 0xf4, 0x0c, 0xf3, 0xd8, 0xfa, 0xd0, 0xf8, 0xda, 0xf9,
//  365     0xf9, 0xd0, 0xdf, 0xd9, 0xf9, 0xd8, 0xf4, 0x0b, 0xd8, 0xf3, 0x87, 0x9f, 0x39, 0xd1, 0xaf, 0xd9,
//  366     0xdf, 0xdf, 0xf4, 0x1d, 0xf3, 0xd8, 0xfa, 0xfc, 0xa8, 0x69, 0xf9, 0xf9, 0xaf, 0xd0, 0xda, 0xde,
//  367     0xfa, 0xd9, 0xf8, 0x8f, 0x9f, 0xa8, 0xf1, 0xcc, 0xf3, 0x98, 0xdb, 0x45, 0xd9, 0xaf, 0xdf, 0xd0,
//  368     0xf8, 0xd8, 0xf1, 0x8f, 0x9f, 0xa8, 0xca, 0xf3, 0x88, 0x09, 0xda, 0xaf, 0x8f, 0xcb, 0xf8, 0xd8,
//  369     0xf2, 0xad, 0x97, 0x8d, 0x0c, 0xd9, 0xa5, 0xdf, 0xf9, 0xba, 0xa6, 0xf3, 0xfa, 0xf4, 0x12, 0xf2,
//  370     0xd8, 0x95, 0x0d, 0xd1, 0xd9, 0xba, 0xa6, 0xf3, 0xfa, 0xda, 0xa5, 0xf2, 0xc1, 0xba, 0xa6, 0xf3,
//  371     0xdf, 0xd8, 0xf1, 0xba, 0xb2, 0xb6, 0x86, 0x96, 0xa6, 0xd0, 0xca, 0xf3, 0x49, 0xda, 0xa6, 0xcb,
//  372     0xf8, 0xd8, 0xb0, 0xb4, 0xb8, 0xd8, 0xad, 0x84, 0xf2, 0xc0, 0xdf, 0xf1, 0x8f, 0xcb, 0xc3, 0xa8,
//  373     /* bank # 7 */
//  374     0xb2, 0xb6, 0x86, 0x96, 0xc8, 0xc1, 0xcb, 0xc3, 0xf3, 0xb0, 0xb4, 0x88, 0x98, 0xa8, 0x21, 0xdb,
//  375     0x71, 0x8d, 0x9d, 0x71, 0x85, 0x95, 0x21, 0xd9, 0xad, 0xf2, 0xfa, 0xd8, 0x85, 0x97, 0xa8, 0x28,
//  376     0xd9, 0xf4, 0x08, 0xd8, 0xf2, 0x8d, 0x29, 0xda, 0xf4, 0x05, 0xd9, 0xf2, 0x85, 0xa4, 0xc2, 0xf2,
//  377     0xd8, 0xa8, 0x8d, 0x94, 0x01, 0xd1, 0xd9, 0xf4, 0x11, 0xf2, 0xd8, 0x87, 0x21, 0xd8, 0xf4, 0x0a,
//  378     0xd8, 0xf2, 0x84, 0x98, 0xa8, 0xc8, 0x01, 0xd1, 0xd9, 0xf4, 0x11, 0xd8, 0xf3, 0xa4, 0xc8, 0xbb,
//  379     0xaf, 0xd0, 0xf2, 0xde, 0xf8, 0xf8, 0xf8, 0xf8, 0xf8, 0xf8, 0xf8, 0xf8, 0xd8, 0xf1, 0xb8, 0xf6,
//  380     0xb5, 0xb9, 0xb0, 0x8a, 0x95, 0xa3, 0xde, 0x3c, 0xa3, 0xd9, 0xf8, 0xd8, 0x5c, 0xa3, 0xd9, 0xf8,
//  381     0xd8, 0x7c, 0xa3, 0xd9, 0xf8, 0xd8, 0xf8, 0xf9, 0xd1, 0xa5, 0xd9, 0xdf, 0xda, 0xfa, 0xd8, 0xb1,
//  382     0x85, 0x30, 0xf7, 0xd9, 0xde, 0xd8, 0xf8, 0x30, 0xad, 0xda, 0xde, 0xd8, 0xf2, 0xb4, 0x8c, 0x99,
//  383     0xa3, 0x2d, 0x55, 0x7d, 0xa0, 0x83, 0xdf, 0xdf, 0xdf, 0xb5, 0x91, 0xa0, 0xf6, 0x29, 0xd9, 0xfb,
//  384     0xd8, 0xa0, 0xfc, 0x29, 0xd9, 0xfa, 0xd8, 0xa0, 0xd0, 0x51, 0xd9, 0xf8, 0xd8, 0xfc, 0x51, 0xd9,
//  385     0xf9, 0xd8, 0x79, 0xd9, 0xfb, 0xd8, 0xa0, 0xd0, 0xfc, 0x79, 0xd9, 0xfa, 0xd8, 0xa1, 0xf9, 0xf9,
//  386     0xf9, 0xf9, 0xf9, 0xa0, 0xda, 0xdf, 0xdf, 0xdf, 0xd8, 0xa1, 0xf8, 0xf8, 0xf8, 0xf8, 0xf8, 0xac,
//  387     0xde, 0xf8, 0xad, 0xde, 0x83, 0x93, 0xac, 0x2c, 0x54, 0x7c, 0xf1, 0xa8, 0xdf, 0xdf, 0xdf, 0xf6,
//  388     0x9d, 0x2c, 0xda, 0xa0, 0xdf, 0xd9, 0xfa, 0xdb, 0x2d, 0xf8, 0xd8, 0xa8, 0x50, 0xda, 0xa0, 0xd0,
//  389     0xde, 0xd9, 0xd0, 0xf8, 0xf8, 0xf8, 0xdb, 0x55, 0xf8, 0xd8, 0xa8, 0x78, 0xda, 0xa0, 0xd0, 0xdf,
//  390     /* bank # 8 */
//  391     0xd9, 0xd0, 0xfa, 0xf8, 0xf8, 0xf8, 0xf8, 0xdb, 0x7d, 0xf8, 0xd8, 0x9c, 0xa8, 0x8c, 0xf5, 0x30,
//  392     0xdb, 0x38, 0xd9, 0xd0, 0xde, 0xdf, 0xa0, 0xd0, 0xde, 0xdf, 0xd8, 0xa8, 0x48, 0xdb, 0x58, 0xd9,
//  393     0xdf, 0xd0, 0xde, 0xa0, 0xdf, 0xd0, 0xde, 0xd8, 0xa8, 0x68, 0xdb, 0x70, 0xd9, 0xdf, 0xdf, 0xa0,
//  394     0xdf, 0xdf, 0xd8, 0xf1, 0xa8, 0x88, 0x90, 0x2c, 0x54, 0x7c, 0x98, 0xa8, 0xd0, 0x5c, 0x38, 0xd1,
//  395     0xda, 0xf2, 0xae, 0x8c, 0xdf, 0xf9, 0xd8, 0xb0, 0x87, 0xa8, 0xc1, 0xc1, 0xb1, 0x88, 0xa8, 0xc6,
//  396     0xf9, 0xf9, 0xda, 0x36, 0xd8, 0xa8, 0xf9, 0xda, 0x36, 0xd8, 0xa8, 0xf9, 0xda, 0x36, 0xd8, 0xa8,
//  397     0xf9, 0xda, 0x36, 0xd8, 0xa8, 0xf9, 0xda, 0x36, 0xd8, 0xf7, 0x8d, 0x9d, 0xad, 0xf8, 0x18, 0xda,
//  398     0xf2, 0xae, 0xdf, 0xd8, 0xf7, 0xad, 0xfa, 0x30, 0xd9, 0xa4, 0xde, 0xf9, 0xd8, 0xf2, 0xae, 0xde,
//  399     0xfa, 0xf9, 0x83, 0xa7, 0xd9, 0xc3, 0xc5, 0xc7, 0xf1, 0x88, 0x9b, 0xa7, 0x7a, 0xad, 0xf7, 0xde,
//  400     0xdf, 0xa4, 0xf8, 0x84, 0x94, 0x08, 0xa7, 0x97, 0xf3, 0x00, 0xae, 0xf2, 0x98, 0x19, 0xa4, 0x88,
//  401     0xc6, 0xa3, 0x94, 0x88, 0xf6, 0x32, 0xdf, 0xf2, 0x83, 0x93, 0xdb, 0x09, 0xd9, 0xf2, 0xaa, 0xdf,
//  402     0xd8, 0xd8, 0xae, 0xf8, 0xf9, 0xd1, 0xda, 0xf3, 0xa4, 0xde, 0xa7, 0xf1, 0x88, 0x9b, 0x7a, 0xd8,
//  403     0xf3, 0x84, 0x94, 0xae, 0x19, 0xf9, 0xda, 0xaa, 0xf1, 0xdf, 0xd8, 0xa8, 0x81, 0xc0, 0xc3, 0xc5,
//  404     0xc7, 0xa3, 0x92, 0x83, 0xf6, 0x28, 0xad, 0xde, 0xd9, 0xf8, 0xd8, 0xa3, 0x50, 0xad, 0xd9, 0xf8,
//  405     0xd8, 0xa3, 0x78, 0xad, 0xd9, 0xf8, 0xd8, 0xf8, 0xf9, 0xd1, 0xa1, 0xda, 0xde, 0xc3, 0xc5, 0xc7,
//  406     0xd8, 0xa1, 0x81, 0x94, 0xf8, 0x18, 0xf2, 0xb0, 0x89, 0xac, 0xc3, 0xc5, 0xc7, 0xf1, 0xd8, 0xb8,
//  407     /* bank # 9 */
//  408     0xb4, 0xb0, 0x97, 0x86, 0xa8, 0x31, 0x9b, 0x06, 0x99, 0x07, 0xab, 0x97, 0x28, 0x88, 0x9b, 0xf0,
//  409     0x0c, 0x20, 0x14, 0x40, 0xb0, 0xb4, 0xb8, 0xf0, 0xa8, 0x8a, 0x9a, 0x28, 0x50, 0x78, 0xb7, 0x9b,
//  410     0xa8, 0x29, 0x51, 0x79, 0x24, 0x70, 0x59, 0x44, 0x69, 0x38, 0x64, 0x48, 0x31, 0xf1, 0xbb, 0xab,
//  411     0x88, 0x00, 0x2c, 0x54, 0x7c, 0xf0, 0xb3, 0x8b, 0xb8, 0xa8, 0x04, 0x28, 0x50, 0x78, 0xf1, 0xb0,
//  412     0x88, 0xb4, 0x97, 0x26, 0xa8, 0x59, 0x98, 0xbb, 0xab, 0xb3, 0x8b, 0x02, 0x26, 0x46, 0x66, 0xb0,
//  413     0xb8, 0xf0, 0x8a, 0x9c, 0xa8, 0x29, 0x51, 0x79, 0x8b, 0x29, 0x51, 0x79, 0x8a, 0x24, 0x70, 0x59,
//  414     0x8b, 0x20, 0x58, 0x71, 0x8a, 0x44, 0x69, 0x38, 0x8b, 0x39, 0x40, 0x68, 0x8a, 0x64, 0x48, 0x31,
//  415     0x8b, 0x30, 0x49, 0x60, 0x88, 0xf1, 0xac, 0x00, 0x2c, 0x54, 0x7c, 0xf0, 0x8c, 0xa8, 0x04, 0x28,
//  416     0x50, 0x78, 0xf1, 0x88, 0x97, 0x26, 0xa8, 0x59, 0x98, 0xac, 0x8c, 0x02, 0x26, 0x46, 0x66, 0xf0,
//  417     0x89, 0x9c, 0xa8, 0x29, 0x51, 0x79, 0x24, 0x70, 0x59, 0x44, 0x69, 0x38, 0x64, 0x48, 0x31, 0xa9,
//  418     0x88, 0x09, 0x20, 0x59, 0x70, 0xab, 0x11, 0x38, 0x40, 0x69, 0xa8, 0x19, 0x31, 0x48, 0x60, 0x8c,
//  419     0xa8, 0x3c, 0x41, 0x5c, 0x20, 0x7c, 0x00, 0xf1, 0x87, 0x98, 0x19, 0x86, 0xa8, 0x6e, 0x76, 0x7e,
//  420     0xa9, 0x99, 0x88, 0x2d, 0x55, 0x7d, 0xd8, 0xb1, 0xb5, 0xb9, 0xa3, 0xdf, 0xdf, 0xdf, 0xae, 0xd0,
//  421     0xdf, 0xaa, 0xd0, 0xde, 0xf2, 0xab, 0xf8, 0xf9, 0xd9, 0xb0, 0x87, 0xc4, 0xaa, 0xf1, 0xdf, 0xdf,
//  422     0xbb, 0xaf, 0xdf, 0xdf, 0xb9, 0xd8, 0xb1, 0xf1, 0xa3, 0x97, 0x8e, 0x60, 0xdf, 0xb0, 0x84, 0xf2,
//  423     0xc8, 0xf8, 0xf9, 0xd9, 0xde, 0xd8, 0x93, 0x85, 0xf1, 0x4a, 0xb1, 0x83, 0xa3, 0x08, 0xb5, 0x83,
//  424     /* bank # 10 */
//  425     0x9a, 0x08, 0x10, 0xb7, 0x9f, 0x10, 0xd8, 0xf1, 0xb0, 0xba, 0xae, 0xb0, 0x8a, 0xc2, 0xb2, 0xb6,
//  426     0x8e, 0x9e, 0xf1, 0xfb, 0xd9, 0xf4, 0x1d, 0xd8, 0xf9, 0xd9, 0x0c, 0xf1, 0xd8, 0xf8, 0xf8, 0xad,
//  427     0x61, 0xd9, 0xae, 0xfb, 0xd8, 0xf4, 0x0c, 0xf1, 0xd8, 0xf8, 0xf8, 0xad, 0x19, 0xd9, 0xae, 0xfb,
//  428     0xdf, 0xd8, 0xf4, 0x16, 0xf1, 0xd8, 0xf8, 0xad, 0x8d, 0x61, 0xd9, 0xf4, 0xf4, 0xac, 0xf5, 0x9c,
//  429     0x9c, 0x8d, 0xdf, 0x2b, 0xba, 0xb6, 0xae, 0xfa, 0xf8, 0xf4, 0x0b, 0xd8, 0xf1, 0xae, 0xd0, 0xf8,
//  430     0xad, 0x51, 0xda, 0xae, 0xfa, 0xf8, 0xf1, 0xd8, 0xb9, 0xb1, 0xb6, 0xa3, 0x83, 0x9c, 0x08, 0xb9,
//  431     0xb1, 0x83, 0x9a, 0xb5, 0xaa, 0xc0, 0xfd, 0x30, 0x83, 0xb7, 0x9f, 0x10, 0xb5, 0x8b, 0x93, 0xf2,
//  432     0x02, 0x02, 0xd1, 0xab, 0xda, 0xde, 0xd8, 0xf1, 0xb0, 0x80, 0xba, 0xab, 0xc0, 0xc3, 0xb2, 0x84,
//  433     0xc1, 0xc3, 0xd8, 0xb1, 0xb9, 0xf3, 0x8b, 0xa3, 0x91, 0xb6, 0x09, 0xb4, 0xd9, 0xab, 0xde, 0xb0,
//  434     0x87, 0x9c, 0xb9, 0xa3, 0xdd, 0xf1, 0xb3, 0x8b, 0x8b, 0x8b, 0x8b, 0x8b, 0xb0, 0x87, 0xa3, 0xa3,
//  435     0xa3, 0xa3, 0xb2, 0x8b, 0xb6, 0x9b, 0xf2, 0xa3, 0xa3, 0xa3, 0xa3, 0xa3, 0xa3, 0xa3, 0xa3, 0xa3,
//  436     0xa3, 0xf1, 0xb0, 0x87, 0xb5, 0x9a, 0xa3, 0xf3, 0x9b, 0xa3, 0xa3, 0xdc, 0xba, 0xac, 0xdf, 0xb9,
//  437     0xa3, 0xa3, 0xa3, 0xa3, 0xa3, 0xa3, 0xa3, 0xa3, 0xa3, 0xa3, 0xa3, 0xa3, 0xa3, 0xa3, 0xa3, 0xa3,
//  438     0xd8, 0xd8, 0xd8, 0xbb, 0xb3, 0xb7, 0xf1, 0xaa, 0xf9, 0xda, 0xff, 0xd9, 0x80, 0x9a, 0xaa, 0x28,
//  439     0xb4, 0x80, 0x98, 0xa7, 0x20, 0xb7, 0x97, 0x87, 0xa8, 0x66, 0x88, 0xf0, 0x79, 0x51, 0xf1, 0x90,
//  440     0x2c, 0x87, 0x0c, 0xa7, 0x81, 0x97, 0x62, 0x93, 0xf0, 0x71, 0x71, 0x60, 0x85, 0x94, 0x01, 0x29,
//  441     /* bank # 11 */
//  442     0x51, 0x79, 0x90, 0xa5, 0xf1, 0x28, 0x4c, 0x6c, 0x87, 0x0c, 0x95, 0x18, 0x85, 0x78, 0xa3, 0x83,
//  443     0x90, 0x28, 0x4c, 0x6c, 0x88, 0x6c, 0xd8, 0xf3, 0xa2, 0x82, 0x00, 0xf2, 0x10, 0xa8, 0x92, 0x19,
//  444     0x80, 0xa2, 0xf2, 0xd9, 0x26, 0xd8, 0xf1, 0x88, 0xa8, 0x4d, 0xd9, 0x48, 0xd8, 0x96, 0xa8, 0x39,
//  445     0x80, 0xd9, 0x3c, 0xd8, 0x95, 0x80, 0xa8, 0x39, 0xa6, 0x86, 0x98, 0xd9, 0x2c, 0xda, 0x87, 0xa7,
//  446     0x2c, 0xd8, 0xa8, 0x89, 0x95, 0x19, 0xa9, 0x80, 0xd9, 0x38, 0xd8, 0xa8, 0x89, 0x39, 0xa9, 0x80,
//  447     0xda, 0x3c, 0xd8, 0xa8, 0x2e, 0xa8, 0x39, 0x90, 0xd9, 0x0c, 0xd8, 0xa8, 0x95, 0x31, 0x98, 0xd9,
//  448     0x0c, 0xd8, 0xa8, 0x09, 0xd9, 0xff, 0xd8, 0x01, 0xda, 0xff, 0xd8, 0x95, 0x39, 0xa9, 0xda, 0x26,
//  449     0xff, 0xd8, 0x90, 0xa8, 0x0d, 0x89, 0x99, 0xa8, 0x10, 0x80, 0x98, 0x21, 0xda, 0x2e, 0xd8, 0x89,
//  450     0x99, 0xa8, 0x31, 0x80, 0xda, 0x2e, 0xd8, 0xa8, 0x86, 0x96, 0x31, 0x80, 0xda, 0x2e, 0xd8, 0xa8,
//  451     0x87, 0x31, 0x80, 0xda, 0x2e, 0xd8, 0xa8, 0x82, 0x92, 0xf3, 0x41, 0x80, 0xf1, 0xd9, 0x2e, 0xd8,
//  452     0xa8, 0x82, 0xf3, 0x19, 0x80, 0xf1, 0xd9, 0x2e, 0xd8, 0x82, 0xac, 0xf3, 0xc0, 0xa2, 0x80, 0x22,
//  453     0xf1, 0xa6, 0x2e, 0xa7, 0x2e, 0xa9, 0x22, 0x98, 0xa8, 0x29, 0xda, 0xac, 0xde, 0xff, 0xd8, 0xa2,
//  454     0xf2, 0x2a, 0xf1, 0xa9, 0x2e, 0x82, 0x92, 0xa8, 0xf2, 0x31, 0x80, 0xa6, 0x96, 0xf1, 0xd9, 0x00,
//  455     0xac, 0x8c, 0x9c, 0x0c, 0x30, 0xac, 0xde, 0xd0, 0xde, 0xff, 0xd8, 0x8c, 0x9c, 0xac, 0xd0, 0x10,
//  456     0xac, 0xde, 0x80, 0x92, 0xa2, 0xf2, 0x4c, 0x82, 0xa8, 0xf1, 0xca, 0xf2, 0x35, 0xf1, 0x96, 0x88,
//  457     0xa6, 0xd9, 0x00, 0xd8, 0xf1, 0xff
//  458 };
//  459 
//  460 static const unsigned short sStartAddress = 0x0400;
//  461 
//  462 /* END OF SECTION COPIED FROM dmpDefaultMPU6050.c */
//  463 
//  464 #define INT_SRC_TAP             (0x01)
//  465 #define INT_SRC_ANDROID_ORIENT  (0x08)
//  466 
//  467 #define DMP_FEATURE_SEND_ANY_GYRO   (DMP_FEATURE_SEND_RAW_GYRO | \ 
//  468                                      DMP_FEATURE_SEND_CAL_GYRO)
//  469 
//  470 #define MAX_PACKET_LENGTH   (32)
//  471 
//  472 #define DMP_SAMPLE_RATE     (200)
//  473 #define GYRO_SF             (46850825LL * 200 / DMP_SAMPLE_RATE)
//  474 
//  475 #define FIFO_CORRUPTION_CHECK
//  476 #ifdef FIFO_CORRUPTION_CHECK
//  477 #define QUAT_ERROR_THRESH       (1L<<24)
//  478 #define QUAT_MAG_SQ_NORMALIZED  (1L<<28)
//  479 #define QUAT_MAG_SQ_MIN         (QUAT_MAG_SQ_NORMALIZED - QUAT_ERROR_THRESH)
//  480 #define QUAT_MAG_SQ_MAX         (QUAT_MAG_SQ_NORMALIZED + QUAT_ERROR_THRESH)
//  481 #endif
//  482 
//  483 struct dmp_s {
//  484     void (*tap_cb)(unsigned char count, unsigned char direction);
//  485     void (*android_orient_cb)(unsigned char orientation);
//  486     unsigned short orient;
//  487     unsigned short feature_mask;
//  488     unsigned short fifo_rate;
//  489     unsigned char packet_length;
//  490 };
//  491 
//  492 //static struct dmp_s dmp = {
//  493 //    .tap_cb = NULL,
//  494 //    .android_orient_cb = NULL,
//  495 //    .orient = 0,
//  496 //    .feature_mask = 0,
//  497 //    .fifo_rate = 0,
//  498 //    .packet_length = 0
//  499 //};
//  500 

        RSEG XDATA_Z:XDATA:NOROOT(0)
        DATA8
//  501 static struct dmp_s dmp={
dmp:
        DS 11
        REQUIRE __INIT_XDATA_Z
//  502   NULL,
//  503   NULL,
//  504   0,
//  505   0,
//  506   0,
//  507   0
//  508 };
//  509 
//  510 /**
//  511  *  @brief  Load the DMP with this image.
//  512  *  @return 0 if successful.
//  513  */

        RSEG BANKED_CODE:CODE:NOROOT(0)
//  514 int dmp_load_motion_driver_firmware(void)
dmp_load_motion_driver_firmware:
        CFI Block cfiBlock0 Using cfiCommon0
        CFI Function dmp_load_motion_driver_firmware
        CODE
//  515 {
        FUNCALL dmp_load_motion_driver_firmware, mpu_load_firmware
        LOCFRAME ISTACK, 0, STACK
        LOCFRAME PSTACK, 0, STACK
        LOCFRAME XSTACK, 14, STACK
        LOCFRAME IOVERLAY, 0, STATIC
        LOCFRAME DOVERLAY, 0, STATIC
        ARGFRAME ISTACK, 0, STACK
        ARGFRAME PSTACK, 0, STACK
        ARGFRAME XSTACK, 14, STACK
        ARGFRAME IOVERLAY, 0, STATIC
        ARGFRAME DOVERLAY, 0, STATIC
        MOV     A,#-0xa
        LCALL   ?BANKED_ENTER_XDATA
        CFI DPH0 load(1, XDATA, add(CFA_XSP16, literal(-1)))
        CFI DPL0 load(1, XDATA, add(CFA_XSP16, literal(-2)))
        CFI ?BRET_EXT load(1, XDATA, add(CFA_XSP16, literal(-3)))
        CFI ?RET_HIGH load(1, XDATA, add(CFA_XSP16, literal(-4)))
        CFI ?RET_LOW load(1, XDATA, add(CFA_XSP16, literal(-5)))
        CFI R7 load(1, XDATA, add(CFA_XSP16, literal(-6)))
        CFI V1 load(1, XDATA, add(CFA_XSP16, literal(-7)))
        CFI V0 load(1, XDATA, add(CFA_XSP16, literal(-8)))
        CFI VB load(1, XDATA, add(CFA_XSP16, literal(-9)))
        CFI R6 load(1, XDATA, add(CFA_XSP16, literal(-10)))
        CFI CFA_SP SP+0
        CFI CFA_XSP16 add(XSP16, 10)
        ; Saved register size: 10
        ; Auto size: 0
//  516     return mpu_load_firmware(DMP_CODE_SIZE, dmp_memory, sStartAddress,
//  517         DMP_SAMPLE_RATE);
        ; Setup parameters for call to function mpu_load_firmware
        MOV     ?V0 + 0,#-0x38
        MOV     ?V0 + 1,#0x0
        MOV     R0,#?V0 + 0
        LCALL   ?PUSH_XSTACK_I_TWO
        CFI CFA_XSP16 add(XSP16, 12)
        MOV     ?V0 + 0,#0x0
        MOV     ?V0 + 1,#0x4
        MOV     R0,#?V0 + 0
        LCALL   ?PUSH_XSTACK_I_TWO
        CFI CFA_XSP16 add(XSP16, 14)
        MOV     R4,#dmp_memory & 0xff
        MOV     R5,#(dmp_memory >> 8) & 0xff
        MOV     R2,#-0xa
        MOV     R3,#0xb
        LCALL   ??mpu_load_firmware?relay
        LJMP    ??Subroutine45_0 & 0xFFFF
        CFI EndBlock cfiBlock0
//  518 }
//  519 
//  520 /**
//  521  *  @brief      Push gyro and accel orientation to the DMP.
//  522  *  The orientation is represented here as the output of
//  523  *  @e inv_orientation_matrix_to_scalar.
//  524  *  @param[in]  orient  Gyro and accel orientation in body frame.
//  525  *  @return     0 if successful.
//  526  */

        RSEG BANKED_CODE:CODE:NOROOT(0)
//  527 int dmp_set_orientation(unsigned short orient)
dmp_set_orientation:
        CFI Block cfiBlock1 Using cfiCommon0
        CFI Function dmp_set_orientation
        CODE
//  528 {
        FUNCALL dmp_set_orientation, mpu_write_mem
        LOCFRAME ISTACK, 0, STACK
        LOCFRAME PSTACK, 0, STACK
        LOCFRAME XSTACK, 30, STACK
        LOCFRAME IOVERLAY, 0, STATIC
        LOCFRAME DOVERLAY, 0, STATIC
        ARGFRAME ISTACK, 0, STACK
        ARGFRAME PSTACK, 0, STACK
        ARGFRAME XSTACK, 30, STACK
        ARGFRAME IOVERLAY, 0, STATIC
        ARGFRAME DOVERLAY, 0, STATIC
        FUNCALL dmp_set_orientation, mpu_write_mem
        LOCFRAME ISTACK, 0, STACK
        LOCFRAME PSTACK, 0, STACK
        LOCFRAME XSTACK, 30, STACK
        LOCFRAME IOVERLAY, 0, STATIC
        LOCFRAME DOVERLAY, 0, STATIC
        ARGFRAME ISTACK, 0, STACK
        ARGFRAME PSTACK, 0, STACK
        ARGFRAME XSTACK, 30, STACK
        ARGFRAME IOVERLAY, 0, STATIC
        ARGFRAME DOVERLAY, 0, STATIC
        FUNCALL dmp_set_orientation, memcpy
        LOCFRAME ISTACK, 0, STACK
        LOCFRAME PSTACK, 0, STACK
        LOCFRAME XSTACK, 30, STACK
        LOCFRAME IOVERLAY, 0, STATIC
        LOCFRAME DOVERLAY, 0, STATIC
        ARGFRAME ISTACK, 0, STACK
        ARGFRAME PSTACK, 0, STACK
        ARGFRAME XSTACK, 30, STACK
        ARGFRAME IOVERLAY, 0, STATIC
        ARGFRAME DOVERLAY, 0, STATIC
        FUNCALL dmp_set_orientation, memcpy
        LOCFRAME ISTACK, 0, STACK
        LOCFRAME PSTACK, 0, STACK
        LOCFRAME XSTACK, 30, STACK
        LOCFRAME IOVERLAY, 0, STATIC
        LOCFRAME DOVERLAY, 0, STATIC
        ARGFRAME ISTACK, 0, STACK
        ARGFRAME PSTACK, 0, STACK
        ARGFRAME XSTACK, 30, STACK
        ARGFRAME IOVERLAY, 0, STATIC
        ARGFRAME DOVERLAY, 0, STATIC
        FUNCALL dmp_set_orientation, mpu_write_mem
        LOCFRAME ISTACK, 0, STACK
        LOCFRAME PSTACK, 0, STACK
        LOCFRAME XSTACK, 30, STACK
        LOCFRAME IOVERLAY, 0, STATIC
        LOCFRAME DOVERLAY, 0, STATIC
        ARGFRAME ISTACK, 0, STACK
        ARGFRAME PSTACK, 0, STACK
        ARGFRAME XSTACK, 30, STACK
        ARGFRAME IOVERLAY, 0, STATIC
        ARGFRAME DOVERLAY, 0, STATIC
        FUNCALL dmp_set_orientation, mpu_write_mem
        LOCFRAME ISTACK, 0, STACK
        LOCFRAME PSTACK, 0, STACK
        LOCFRAME XSTACK, 30, STACK
        LOCFRAME IOVERLAY, 0, STATIC
        LOCFRAME DOVERLAY, 0, STATIC
        ARGFRAME ISTACK, 0, STACK
        ARGFRAME PSTACK, 0, STACK
        ARGFRAME XSTACK, 30, STACK
        ARGFRAME IOVERLAY, 0, STATIC
        ARGFRAME DOVERLAY, 0, STATIC
        MOV     A,#-0xa
        LCALL   ?BANKED_ENTER_XDATA
        CFI DPH0 load(1, XDATA, add(CFA_XSP16, literal(-1)))
        CFI DPL0 load(1, XDATA, add(CFA_XSP16, literal(-2)))
        CFI ?BRET_EXT load(1, XDATA, add(CFA_XSP16, literal(-3)))
        CFI ?RET_HIGH load(1, XDATA, add(CFA_XSP16, literal(-4)))
        CFI ?RET_LOW load(1, XDATA, add(CFA_XSP16, literal(-5)))
        CFI R7 load(1, XDATA, add(CFA_XSP16, literal(-6)))
        CFI V1 load(1, XDATA, add(CFA_XSP16, literal(-7)))
        CFI V0 load(1, XDATA, add(CFA_XSP16, literal(-8)))
        CFI VB load(1, XDATA, add(CFA_XSP16, literal(-9)))
        CFI R6 load(1, XDATA, add(CFA_XSP16, literal(-10)))
        CFI CFA_SP SP+0
        CFI CFA_XSP16 add(XSP16, 10)
        ; Saved register size: 10
        ; Auto size: 18
        MOV     A,#-0x12
        LCALL   ?ALLOC_XSTACK8
        CFI CFA_XSP16 add(XSP16, 28)
        MOV     A,R2
        MOV     R6,A
        MOV     A,R3
        MOV     R7,A
//  529     unsigned char gyro_regs[3], accel_regs[3];
//  530     const unsigned char gyro_axes[3] = {DINA4C, DINACD, DINA6C};
        MOV     A,#0x9
        LCALL   ?XSTACK_DISP0_8
        MOV     R4,DPL
        MOV     R5,DPH
        MOV     DPH,#(`?<Constant {76, 205, 108}>` >> 8) & 0xff
        MOV     DPL,#`?<Constant {76, 205, 108}>` & 0xff
        MOV     A,#0x3
        LCALL   ?MOVE_LONG8_XDATA_XDATA
//  531     const unsigned char accel_axes[3] = {DINA0C, DINAC9, DINA2C};
        MOV     A,#0x6
        LCALL   ?XSTACK_DISP0_8
        MOV     R4,DPL
        MOV     R5,DPH
        MOV     DPH,#(`?<Constant {12, 201, 44}>` >> 8) & 0xff
        MOV     DPL,#`?<Constant {12, 201, 44}>` & 0xff
        MOV     A,#0x3
        LCALL   ?MOVE_LONG8_XDATA_XDATA
//  532     const unsigned char gyro_sign[3] = {DINA36, DINA56, DINA76};
        MOV     A,#0xf
        LCALL   ?XSTACK_DISP0_8
        MOV     R4,DPL
        MOV     R5,DPH
        MOV     DPH,#(`?<Constant {54, 86, 118}>` >> 8) & 0xff
        MOV     DPL,#`?<Constant {54, 86, 118}>` & 0xff
        MOV     A,#0x3
        LCALL   ?MOVE_LONG8_XDATA_XDATA
//  533     const unsigned char accel_sign[3] = {DINA26, DINA46, DINA66};
        MOV     A,#0xc
        LCALL   ?XSTACK_DISP0_8
        MOV     R4,DPL
        MOV     R5,DPH
        MOV     DPH,#(`?<Constant {38, 70, 102}>` >> 8) & 0xff
        MOV     DPL,#`?<Constant {38, 70, 102}>` & 0xff
        MOV     A,#0x3
        LCALL   ?MOVE_LONG8_XDATA_XDATA
        MOV     A,R6
        ANL     A,#0x3
        MOV     R2,A
        MOV     A,#0x9
        LCALL   ?XSTACK_DISP0_8
        LCALL   ?Subroutine7 & 0xFFFF
??CrossCallReturnLabel_71:
        PUSH    A
        CFI CFA_SP SP+-1
        MOV     A,#0x3
        LCALL   ?XSTACK_DISP0_8
        POP     A
        CFI CFA_SP SP+0
        MOVX    @DPTR,A
//  534 
//  535     gyro_regs[0] = gyro_axes[orient & 3];
//  536     gyro_regs[1] = gyro_axes[(orient >> 3) & 3];
        MOV     A,R6
        RRC     A
        RRC     A
        RRC     A
        ANL     A,#0x1f
        ANL     A,#0x3
        MOV     R0,A
        MOV     A,#0x9
        LCALL   ?XSTACK_DISP0_8
        MOV     A,DPL
        ADD     A,R0
        LCALL   ??Subroutine42_0 & 0xFFFF
??CrossCallReturnLabel_67:
        PUSH    A
        CFI CFA_SP SP+-1
        MOV     A,#0x4
        LCALL   ?XSTACK_DISP0_8
        POP     A
        CFI CFA_SP SP+0
        MOVX    @DPTR,A
//  537     gyro_regs[2] = gyro_axes[(orient >> 6) & 3];
        MOV     A,R6
        SWAP    A
        RRC     A
        RRC     A
        ANL     A,#0x3
        MOV     R4,A
        MOV     A,#0x9
        LCALL   ?XSTACK_DISP0_8
        MOV     A,DPL
        ADD     A,R4
        LCALL   ??Subroutine42_0 & 0xFFFF
??CrossCallReturnLabel_68:
        PUSH    A
        CFI CFA_SP SP+-1
        MOV     A,#0x5
        LCALL   ?XSTACK_DISP0_8
        POP     A
        CFI CFA_SP SP+0
        MOVX    @DPTR,A
//  538     accel_regs[0] = accel_axes[orient & 3];
        MOV     A,#0x6
        LCALL   ?XSTACK_DISP0_8
        LCALL   ?Subroutine7 & 0xFFFF
??CrossCallReturnLabel_72:
        MOV     DPL,?XSP + 0
        MOV     DPH,?XSP + 1
        MOVX    @DPTR,A
//  539     accel_regs[1] = accel_axes[(orient >> 3) & 3];
        MOV     A,#0x6
        LCALL   ?XSTACK_DISP0_8
        MOV     A,DPL
        ADD     A,R0
        LCALL   ??Subroutine42_0 & 0xFFFF
??CrossCallReturnLabel_69:
        PUSH    A
        CFI CFA_SP SP+-1
        MOV     A,#0x1
        LCALL   ?XSTACK_DISP0_8
        POP     A
        CFI CFA_SP SP+0
        MOVX    @DPTR,A
//  540     accel_regs[2] = accel_axes[(orient >> 6) & 3];
        MOV     A,#0x6
        LCALL   ?XSTACK_DISP0_8
        MOV     A,DPL
        ADD     A,R4
        LCALL   ??Subroutine42_0 & 0xFFFF
??CrossCallReturnLabel_70:
        PUSH    A
        CFI CFA_SP SP+-1
        MOV     A,#0x2
        LCALL   ?XSTACK_DISP0_8
        POP     A
        CFI CFA_SP SP+0
        MOVX    @DPTR,A
//  541 
//  542     /* Chip-to-body, axes only. */
//  543     if (mpu_write_mem(FCFG_1, 3, gyro_regs))
        ; Setup parameters for call to function mpu_write_mem
        MOV     A,#0x3
        LCALL   ?XSTACK_DISP0_8
        MOV     ?V0 + 0,DPL
        MOV     ?V0 + 1,DPH
        MOV     R0,#?V0 + 0
        LCALL   ?PUSH_XSTACK_I_TWO
        CFI CFA_XSP16 add(XSP16, 30)
        MOV     R4,#0x3
        MOV     R5,#0x0
        MOV     R2,#0x26
        MOV     R3,#0x4
        LCALL   ??Subroutine52_0 & 0xFFFF
??CrossCallReturnLabel_110:
        LCALL   ?DEALLOC_XSTACK8
        CFI CFA_XSP16 add(XSP16, 28)
        MOV     ?V0 + 1,R3
        MOV     A,R2
        ORL     A,?V0 + 1
        JZ      ??dmp_set_orientation_0
//  544         return -1;
??dmp_set_orientation_1:
        MOV     R2,#-0x1
        MOV     R3,#-0x1
        LJMP    ??CrossCallReturnLabel_53 & 0xFFFF
//  545     if (mpu_write_mem(FCFG_2, 3, accel_regs))
??dmp_set_orientation_0:
        ; Setup parameters for call to function mpu_write_mem
        MOV     DPL,?XSP + 0
        MOV     DPH,?XSP + 1
        MOV     ?V0 + 0,DPL
        MOV     ?V0 + 1,DPH
        MOV     R0,#?V0 + 0
        LCALL   ?PUSH_XSTACK_I_TWO
        CFI CFA_XSP16 add(XSP16, 30)
        MOV     R4,#0x3
        MOV     R5,#0x0
        MOV     R2,#0x2a
        MOV     R3,#0x4
        LCALL   ??Subroutine52_0 & 0xFFFF
??CrossCallReturnLabel_111:
        LCALL   ?DEALLOC_XSTACK8
        CFI CFA_XSP16 add(XSP16, 28)
        MOV     ?V0 + 1,R3
        MOV     A,R2
        ORL     A,?V0 + 1
        JNZ     ??dmp_set_orientation_1
//  546         return -1;
//  547 
//  548     memcpy(gyro_regs, gyro_sign, 3);
        ; Setup parameters for call to function memcpy
        MOV     ?V0 + 0,#0x3
        MOV     ?V0 + 1,#0x0
        MOV     R0,#?V0 + 0
        LCALL   ?PUSH_XSTACK_I_TWO
        CFI CFA_XSP16 add(XSP16, 30)
        MOV     A,#0x11
        LCALL   ?XSTACK_DISP0_8
        MOV     R4,DPL
        MOV     R5,DPH
        MOV     A,#0x5
        LCALL   ?XSTACK_DISP0_8
        MOV     R2,DPL
        MOV     R3,DPH
        LCALL   ??memcpy?relay
        MOV     A,#0x2
        LCALL   ?DEALLOC_XSTACK8
        CFI CFA_XSP16 add(XSP16, 28)
//  549     memcpy(accel_regs, accel_sign, 3);
        ; Setup parameters for call to function memcpy
        MOV     R0,#?V0 + 0
        LCALL   ?PUSH_XSTACK_I_TWO
        CFI CFA_XSP16 add(XSP16, 30)
        MOV     A,#0xe
        LCALL   ?XSTACK_DISP0_8
        MOV     R4,DPL
        MOV     R5,DPH
        MOV     A,#0x2
        LCALL   ?XSTACK_DISP0_8
        MOV     R2,DPL
        MOV     R3,DPH
        LCALL   ??memcpy?relay
        MOV     A,#0x2
        LCALL   ?DEALLOC_XSTACK8
        CFI CFA_XSP16 add(XSP16, 28)
//  550     if (orient & 4) {
        MOV     A,R6
        ANL     A,#0x4
        JZ      ??CrossCallReturnLabel_33
//  551         gyro_regs[0] |= 1;
        MOV     A,#0x3
        LCALL   ?XSTACK_DISP0_8
        LCALL   ?Subroutine24 & 0xFFFF
//  552         accel_regs[0] |= 1;
??CrossCallReturnLabel_32:
        MOV     DPL,?XSP + 0
        MOV     DPH,?XSP + 1
        LCALL   ?Subroutine24 & 0xFFFF
//  553     }
//  554     if (orient & 0x20) {
??CrossCallReturnLabel_33:
        MOV     A,R6
        ANL     A,#0x20
        JZ      ??CrossCallReturnLabel_35
//  555         gyro_regs[1] |= 1;
        MOV     A,#0x4
        LCALL   ?XSTACK_DISP0_8
        LCALL   ?Subroutine24 & 0xFFFF
//  556         accel_regs[1] |= 1;
??CrossCallReturnLabel_34:
        MOV     A,#0x1
        LCALL   ?XSTACK_DISP0_8
        LCALL   ?Subroutine24 & 0xFFFF
//  557     }
//  558     if (orient & 0x100) {
??CrossCallReturnLabel_35:
        MOV     A,R7
        ANL     A,#0x1
        JZ      ??CrossCallReturnLabel_37
//  559         gyro_regs[2] |= 1;
        MOV     A,#0x5
        LCALL   ?XSTACK_DISP0_8
        LCALL   ?Subroutine24 & 0xFFFF
//  560         accel_regs[2] |= 1;
??CrossCallReturnLabel_36:
        MOV     A,#0x2
        LCALL   ?XSTACK_DISP0_8
        LCALL   ?Subroutine24 & 0xFFFF
//  561     }
//  562 
//  563     /* Chip-to-body, sign only. */
//  564     if (mpu_write_mem(FCFG_3, 3, gyro_regs))
??CrossCallReturnLabel_37:
        ; Setup parameters for call to function mpu_write_mem
        MOV     A,#0x3
        LCALL   ?XSTACK_DISP0_8
        MOV     ?V0 + 0,DPL
        MOV     ?V0 + 1,DPH
        MOV     R0,#?V0 + 0
        LCALL   ?PUSH_XSTACK_I_TWO
        CFI CFA_XSP16 add(XSP16, 30)
        MOV     R4,#0x3
        MOV     R5,#0x0
        MOV     R2,#0x40
        MOV     R3,#0x4
        LCALL   ??Subroutine52_0 & 0xFFFF
??CrossCallReturnLabel_112:
        LCALL   ?DEALLOC_XSTACK8
        CFI CFA_XSP16 add(XSP16, 28)
        MOV     ?V0 + 1,R3
        MOV     A,R2
        ORL     A,?V0 + 1
        JZ      $+5
        LJMP    ??dmp_set_orientation_1 & 0xFFFF
//  565         return -1;
//  566     if (mpu_write_mem(FCFG_7, 3, accel_regs))
        ; Setup parameters for call to function mpu_write_mem
        MOV     DPL,?XSP + 0
        MOV     DPH,?XSP + 1
        MOV     ?V0 + 0,DPL
        MOV     ?V0 + 1,DPH
        MOV     R0,#?V0 + 0
        LCALL   ?PUSH_XSTACK_I_TWO
        CFI CFA_XSP16 add(XSP16, 30)
        MOV     R4,#0x3
        MOV     R5,#0x0
        MOV     R2,#0x31
        MOV     R3,#0x4
        LCALL   ??Subroutine52_0 & 0xFFFF
??CrossCallReturnLabel_113:
        LCALL   ?DEALLOC_XSTACK8
        CFI CFA_XSP16 add(XSP16, 28)
        MOV     ?V0 + 1,R3
        MOV     A,R2
        ORL     A,?V0 + 1
        JZ      $+5
        LJMP    ??dmp_set_orientation_1 & 0xFFFF
//  567         return -1;
//  568     dmp.orient = orient;
        MOV     DPTR,#dmp + 4
        LCALL   ?Subroutine32 & 0xFFFF
//  569     return 0;
??CrossCallReturnLabel_53:
        MOV     A,#0x12
        LJMP    ??Subroutine46_0 & 0xFFFF
        CFI EndBlock cfiBlock1
//  570 }

        RSEG BANKED_CODE:CODE:NOROOT(0)
?Subroutine24:
        CFI Block cfiCond2 Using cfiCommon0
        CFI NoFunction
        CFI Conditional ??CrossCallReturnLabel_32
        CFI R6 load(1, XDATA, add(CFA_XSP16, literal(-10)))
        CFI VB load(1, XDATA, add(CFA_XSP16, literal(-9)))
        CFI V0 load(1, XDATA, add(CFA_XSP16, literal(-8)))
        CFI V1 load(1, XDATA, add(CFA_XSP16, literal(-7)))
        CFI R7 load(1, XDATA, add(CFA_XSP16, literal(-6)))
        CFI ?RET_LOW load(1, XDATA, add(CFA_XSP16, literal(-5)))
        CFI ?RET_HIGH load(1, XDATA, add(CFA_XSP16, literal(-4)))
        CFI ?BRET_EXT load(1, XDATA, add(CFA_XSP16, literal(-3)))
        CFI DPL0 load(1, XDATA, add(CFA_XSP16, literal(-2)))
        CFI DPH0 load(1, XDATA, add(CFA_XSP16, literal(-1)))
        CFI CFA_SP SP+0
        CFI CFA_XSP16 add(XSP16, 28)
        CFI Block cfiCond3 Using cfiCommon0
        CFI (cfiCond3) NoFunction
        CFI (cfiCond3) Conditional ??CrossCallReturnLabel_33
        CFI (cfiCond3) R6 load(1, XDATA, add(CFA_XSP16, literal(-10)))
        CFI (cfiCond3) VB load(1, XDATA, add(CFA_XSP16, literal(-9)))
        CFI (cfiCond3) V0 load(1, XDATA, add(CFA_XSP16, literal(-8)))
        CFI (cfiCond3) V1 load(1, XDATA, add(CFA_XSP16, literal(-7)))
        CFI (cfiCond3) R7 load(1, XDATA, add(CFA_XSP16, literal(-6)))
        CFI (cfiCond3) ?RET_LOW load(1, XDATA, add(CFA_XSP16, literal(-5)))
        CFI (cfiCond3) ?RET_HIGH load(1, XDATA, add(CFA_XSP16, literal(-4)))
        CFI (cfiCond3) ?BRET_EXT load(1, XDATA, add(CFA_XSP16, literal(-3)))
        CFI (cfiCond3) DPL0 load(1, XDATA, add(CFA_XSP16, literal(-2)))
        CFI (cfiCond3) DPH0 load(1, XDATA, add(CFA_XSP16, literal(-1)))
        CFI (cfiCond3) CFA_SP SP+0
        CFI (cfiCond3) CFA_XSP16 add(XSP16, 28)
        CFI Block cfiCond4 Using cfiCommon0
        CFI (cfiCond4) NoFunction
        CFI (cfiCond4) Conditional ??CrossCallReturnLabel_34
        CFI (cfiCond4) R6 load(1, XDATA, add(CFA_XSP16, literal(-10)))
        CFI (cfiCond4) VB load(1, XDATA, add(CFA_XSP16, literal(-9)))
        CFI (cfiCond4) V0 load(1, XDATA, add(CFA_XSP16, literal(-8)))
        CFI (cfiCond4) V1 load(1, XDATA, add(CFA_XSP16, literal(-7)))
        CFI (cfiCond4) R7 load(1, XDATA, add(CFA_XSP16, literal(-6)))
        CFI (cfiCond4) ?RET_LOW load(1, XDATA, add(CFA_XSP16, literal(-5)))
        CFI (cfiCond4) ?RET_HIGH load(1, XDATA, add(CFA_XSP16, literal(-4)))
        CFI (cfiCond4) ?BRET_EXT load(1, XDATA, add(CFA_XSP16, literal(-3)))
        CFI (cfiCond4) DPL0 load(1, XDATA, add(CFA_XSP16, literal(-2)))
        CFI (cfiCond4) DPH0 load(1, XDATA, add(CFA_XSP16, literal(-1)))
        CFI (cfiCond4) CFA_SP SP+0
        CFI (cfiCond4) CFA_XSP16 add(XSP16, 28)
        CFI Block cfiCond5 Using cfiCommon0
        CFI (cfiCond5) NoFunction
        CFI (cfiCond5) Conditional ??CrossCallReturnLabel_35
        CFI (cfiCond5) R6 load(1, XDATA, add(CFA_XSP16, literal(-10)))
        CFI (cfiCond5) VB load(1, XDATA, add(CFA_XSP16, literal(-9)))
        CFI (cfiCond5) V0 load(1, XDATA, add(CFA_XSP16, literal(-8)))
        CFI (cfiCond5) V1 load(1, XDATA, add(CFA_XSP16, literal(-7)))
        CFI (cfiCond5) R7 load(1, XDATA, add(CFA_XSP16, literal(-6)))
        CFI (cfiCond5) ?RET_LOW load(1, XDATA, add(CFA_XSP16, literal(-5)))
        CFI (cfiCond5) ?RET_HIGH load(1, XDATA, add(CFA_XSP16, literal(-4)))
        CFI (cfiCond5) ?BRET_EXT load(1, XDATA, add(CFA_XSP16, literal(-3)))
        CFI (cfiCond5) DPL0 load(1, XDATA, add(CFA_XSP16, literal(-2)))
        CFI (cfiCond5) DPH0 load(1, XDATA, add(CFA_XSP16, literal(-1)))
        CFI (cfiCond5) CFA_SP SP+0
        CFI (cfiCond5) CFA_XSP16 add(XSP16, 28)
        CFI Block cfiCond6 Using cfiCommon0
        CFI (cfiCond6) NoFunction
        CFI (cfiCond6) Conditional ??CrossCallReturnLabel_36
        CFI (cfiCond6) R6 load(1, XDATA, add(CFA_XSP16, literal(-10)))
        CFI (cfiCond6) VB load(1, XDATA, add(CFA_XSP16, literal(-9)))
        CFI (cfiCond6) V0 load(1, XDATA, add(CFA_XSP16, literal(-8)))
        CFI (cfiCond6) V1 load(1, XDATA, add(CFA_XSP16, literal(-7)))
        CFI (cfiCond6) R7 load(1, XDATA, add(CFA_XSP16, literal(-6)))
        CFI (cfiCond6) ?RET_LOW load(1, XDATA, add(CFA_XSP16, literal(-5)))
        CFI (cfiCond6) ?RET_HIGH load(1, XDATA, add(CFA_XSP16, literal(-4)))
        CFI (cfiCond6) ?BRET_EXT load(1, XDATA, add(CFA_XSP16, literal(-3)))
        CFI (cfiCond6) DPL0 load(1, XDATA, add(CFA_XSP16, literal(-2)))
        CFI (cfiCond6) DPH0 load(1, XDATA, add(CFA_XSP16, literal(-1)))
        CFI (cfiCond6) CFA_SP SP+0
        CFI (cfiCond6) CFA_XSP16 add(XSP16, 28)
        CFI Block cfiCond7 Using cfiCommon0
        CFI (cfiCond7) NoFunction
        CFI (cfiCond7) Conditional ??CrossCallReturnLabel_37
        CFI (cfiCond7) R6 load(1, XDATA, add(CFA_XSP16, literal(-10)))
        CFI (cfiCond7) VB load(1, XDATA, add(CFA_XSP16, literal(-9)))
        CFI (cfiCond7) V0 load(1, XDATA, add(CFA_XSP16, literal(-8)))
        CFI (cfiCond7) V1 load(1, XDATA, add(CFA_XSP16, literal(-7)))
        CFI (cfiCond7) R7 load(1, XDATA, add(CFA_XSP16, literal(-6)))
        CFI (cfiCond7) ?RET_LOW load(1, XDATA, add(CFA_XSP16, literal(-5)))
        CFI (cfiCond7) ?RET_HIGH load(1, XDATA, add(CFA_XSP16, literal(-4)))
        CFI (cfiCond7) ?BRET_EXT load(1, XDATA, add(CFA_XSP16, literal(-3)))
        CFI (cfiCond7) DPL0 load(1, XDATA, add(CFA_XSP16, literal(-2)))
        CFI (cfiCond7) DPH0 load(1, XDATA, add(CFA_XSP16, literal(-1)))
        CFI (cfiCond7) CFA_SP SP+0
        CFI (cfiCond7) CFA_XSP16 add(XSP16, 28)
        CFI Block cfiPicker8 Using cfiCommon1
        CFI (cfiPicker8) NoFunction
        CFI (cfiPicker8) Picker
        MOVX    A,@DPTR
        SETB    0xE0 /* A   */.0
        MOVX    @DPTR,A
        RET
        CFI EndBlock cfiCond2
        CFI EndBlock cfiCond3
        CFI EndBlock cfiCond4
        CFI EndBlock cfiCond5
        CFI EndBlock cfiCond6
        CFI EndBlock cfiCond7
        CFI EndBlock cfiPicker8

        RSEG BANKED_CODE:CODE:NOROOT(0)
?Subroutine7:
        CFI Block cfiCond9 Using cfiCommon0
        CFI NoFunction
        CFI Conditional ??CrossCallReturnLabel_71
        CFI R6 load(1, XDATA, add(CFA_XSP16, literal(-10)))
        CFI VB load(1, XDATA, add(CFA_XSP16, literal(-9)))
        CFI V0 load(1, XDATA, add(CFA_XSP16, literal(-8)))
        CFI V1 load(1, XDATA, add(CFA_XSP16, literal(-7)))
        CFI R7 load(1, XDATA, add(CFA_XSP16, literal(-6)))
        CFI ?RET_LOW load(1, XDATA, add(CFA_XSP16, literal(-5)))
        CFI ?RET_HIGH load(1, XDATA, add(CFA_XSP16, literal(-4)))
        CFI ?BRET_EXT load(1, XDATA, add(CFA_XSP16, literal(-3)))
        CFI DPL0 load(1, XDATA, add(CFA_XSP16, literal(-2)))
        CFI DPH0 load(1, XDATA, add(CFA_XSP16, literal(-1)))
        CFI CFA_SP SP+0
        CFI CFA_XSP16 add(XSP16, 28)
        CFI Block cfiCond10 Using cfiCommon0
        CFI (cfiCond10) NoFunction
        CFI (cfiCond10) Conditional ??CrossCallReturnLabel_72
        CFI (cfiCond10) R6 load(1, XDATA, add(CFA_XSP16, literal(-10)))
        CFI (cfiCond10) VB load(1, XDATA, add(CFA_XSP16, literal(-9)))
        CFI (cfiCond10) V0 load(1, XDATA, add(CFA_XSP16, literal(-8)))
        CFI (cfiCond10) V1 load(1, XDATA, add(CFA_XSP16, literal(-7)))
        CFI (cfiCond10) R7 load(1, XDATA, add(CFA_XSP16, literal(-6)))
        CFI (cfiCond10) ?RET_LOW load(1, XDATA, add(CFA_XSP16, literal(-5)))
        CFI (cfiCond10) ?RET_HIGH load(1, XDATA, add(CFA_XSP16, literal(-4)))
        CFI (cfiCond10) ?BRET_EXT load(1, XDATA, add(CFA_XSP16, literal(-3)))
        CFI (cfiCond10) DPL0 load(1, XDATA, add(CFA_XSP16, literal(-2)))
        CFI (cfiCond10) DPH0 load(1, XDATA, add(CFA_XSP16, literal(-1)))
        CFI (cfiCond10) CFA_SP SP+0
        CFI (cfiCond10) CFA_XSP16 add(XSP16, 28)
        CFI Block cfiPicker11 Using cfiCommon1
        CFI (cfiPicker11) NoFunction
        CFI (cfiPicker11) Picker
        MOV     A,DPL
        ADD     A,R2
        CFI EndBlock cfiCond9
        CFI EndBlock cfiCond10
        CFI EndBlock cfiPicker11
        REQUIRE ??Subroutine42_0
        ; // Fall through to label ??Subroutine42_0

        RSEG BANKED_CODE:CODE:NOROOT(0)
??Subroutine42_0:
        CFI Block cfiCond12 Using cfiCommon0
        CFI NoFunction
        CFI Conditional ??CrossCallReturnLabel_67
        CFI R6 load(1, XDATA, add(CFA_XSP16, literal(-10)))
        CFI VB load(1, XDATA, add(CFA_XSP16, literal(-9)))
        CFI V0 load(1, XDATA, add(CFA_XSP16, literal(-8)))
        CFI V1 load(1, XDATA, add(CFA_XSP16, literal(-7)))
        CFI R7 load(1, XDATA, add(CFA_XSP16, literal(-6)))
        CFI ?RET_LOW load(1, XDATA, add(CFA_XSP16, literal(-5)))
        CFI ?RET_HIGH load(1, XDATA, add(CFA_XSP16, literal(-4)))
        CFI ?BRET_EXT load(1, XDATA, add(CFA_XSP16, literal(-3)))
        CFI DPL0 load(1, XDATA, add(CFA_XSP16, literal(-2)))
        CFI DPH0 load(1, XDATA, add(CFA_XSP16, literal(-1)))
        CFI CFA_SP SP+0
        CFI CFA_XSP16 add(XSP16, 28)
        CFI Block cfiCond13 Using cfiCommon0
        CFI (cfiCond13) NoFunction
        CFI (cfiCond13) Conditional ??CrossCallReturnLabel_68
        CFI (cfiCond13) R6 load(1, XDATA, add(CFA_XSP16, literal(-10)))
        CFI (cfiCond13) VB load(1, XDATA, add(CFA_XSP16, literal(-9)))
        CFI (cfiCond13) V0 load(1, XDATA, add(CFA_XSP16, literal(-8)))
        CFI (cfiCond13) V1 load(1, XDATA, add(CFA_XSP16, literal(-7)))
        CFI (cfiCond13) R7 load(1, XDATA, add(CFA_XSP16, literal(-6)))
        CFI (cfiCond13) ?RET_LOW load(1, XDATA, add(CFA_XSP16, literal(-5)))
        CFI (cfiCond13) ?RET_HIGH load(1, XDATA, add(CFA_XSP16, literal(-4)))
        CFI (cfiCond13) ?BRET_EXT load(1, XDATA, add(CFA_XSP16, literal(-3)))
        CFI (cfiCond13) DPL0 load(1, XDATA, add(CFA_XSP16, literal(-2)))
        CFI (cfiCond13) DPH0 load(1, XDATA, add(CFA_XSP16, literal(-1)))
        CFI (cfiCond13) CFA_SP SP+0
        CFI (cfiCond13) CFA_XSP16 add(XSP16, 28)
        CFI Block cfiCond14 Using cfiCommon0
        CFI (cfiCond14) NoFunction
        CFI (cfiCond14) Conditional ??CrossCallReturnLabel_69
        CFI (cfiCond14) R6 load(1, XDATA, add(CFA_XSP16, literal(-10)))
        CFI (cfiCond14) VB load(1, XDATA, add(CFA_XSP16, literal(-9)))
        CFI (cfiCond14) V0 load(1, XDATA, add(CFA_XSP16, literal(-8)))
        CFI (cfiCond14) V1 load(1, XDATA, add(CFA_XSP16, literal(-7)))
        CFI (cfiCond14) R7 load(1, XDATA, add(CFA_XSP16, literal(-6)))
        CFI (cfiCond14) ?RET_LOW load(1, XDATA, add(CFA_XSP16, literal(-5)))
        CFI (cfiCond14) ?RET_HIGH load(1, XDATA, add(CFA_XSP16, literal(-4)))
        CFI (cfiCond14) ?BRET_EXT load(1, XDATA, add(CFA_XSP16, literal(-3)))
        CFI (cfiCond14) DPL0 load(1, XDATA, add(CFA_XSP16, literal(-2)))
        CFI (cfiCond14) DPH0 load(1, XDATA, add(CFA_XSP16, literal(-1)))
        CFI (cfiCond14) CFA_SP SP+0
        CFI (cfiCond14) CFA_XSP16 add(XSP16, 28)
        CFI Block cfiCond15 Using cfiCommon0
        CFI (cfiCond15) NoFunction
        CFI (cfiCond15) Conditional ??CrossCallReturnLabel_70
        CFI (cfiCond15) R6 load(1, XDATA, add(CFA_XSP16, literal(-10)))
        CFI (cfiCond15) VB load(1, XDATA, add(CFA_XSP16, literal(-9)))
        CFI (cfiCond15) V0 load(1, XDATA, add(CFA_XSP16, literal(-8)))
        CFI (cfiCond15) V1 load(1, XDATA, add(CFA_XSP16, literal(-7)))
        CFI (cfiCond15) R7 load(1, XDATA, add(CFA_XSP16, literal(-6)))
        CFI (cfiCond15) ?RET_LOW load(1, XDATA, add(CFA_XSP16, literal(-5)))
        CFI (cfiCond15) ?RET_HIGH load(1, XDATA, add(CFA_XSP16, literal(-4)))
        CFI (cfiCond15) ?BRET_EXT load(1, XDATA, add(CFA_XSP16, literal(-3)))
        CFI (cfiCond15) DPL0 load(1, XDATA, add(CFA_XSP16, literal(-2)))
        CFI (cfiCond15) DPH0 load(1, XDATA, add(CFA_XSP16, literal(-1)))
        CFI (cfiCond15) CFA_SP SP+0
        CFI (cfiCond15) CFA_XSP16 add(XSP16, 28)
        CFI Block cfiCond16 Using cfiCommon0
        CFI (cfiCond16) NoFunction
        CFI (cfiCond16) Conditional ??CrossCallReturnLabel_71
        CFI (cfiCond16) R6 load(1, XDATA, add(CFA_XSP16, literal(-10)))
        CFI (cfiCond16) VB load(1, XDATA, add(CFA_XSP16, literal(-9)))
        CFI (cfiCond16) V0 load(1, XDATA, add(CFA_XSP16, literal(-8)))
        CFI (cfiCond16) V1 load(1, XDATA, add(CFA_XSP16, literal(-7)))
        CFI (cfiCond16) R7 load(1, XDATA, add(CFA_XSP16, literal(-6)))
        CFI (cfiCond16) ?RET_LOW load(1, XDATA, add(CFA_XSP16, literal(-5)))
        CFI (cfiCond16) ?RET_HIGH load(1, XDATA, add(CFA_XSP16, literal(-4)))
        CFI (cfiCond16) ?BRET_EXT load(1, XDATA, add(CFA_XSP16, literal(-3)))
        CFI (cfiCond16) DPL0 load(1, XDATA, add(CFA_XSP16, literal(-2)))
        CFI (cfiCond16) DPH0 load(1, XDATA, add(CFA_XSP16, literal(-1)))
        CFI (cfiCond16) CFA_SP SP+0
        CFI (cfiCond16) CFA_XSP16 add(XSP16, 28)
        CFI Block cfiCond17 Using cfiCommon0
        CFI (cfiCond17) NoFunction
        CFI (cfiCond17) Conditional ??CrossCallReturnLabel_72
        CFI (cfiCond17) R6 load(1, XDATA, add(CFA_XSP16, literal(-10)))
        CFI (cfiCond17) VB load(1, XDATA, add(CFA_XSP16, literal(-9)))
        CFI (cfiCond17) V0 load(1, XDATA, add(CFA_XSP16, literal(-8)))
        CFI (cfiCond17) V1 load(1, XDATA, add(CFA_XSP16, literal(-7)))
        CFI (cfiCond17) R7 load(1, XDATA, add(CFA_XSP16, literal(-6)))
        CFI (cfiCond17) ?RET_LOW load(1, XDATA, add(CFA_XSP16, literal(-5)))
        CFI (cfiCond17) ?RET_HIGH load(1, XDATA, add(CFA_XSP16, literal(-4)))
        CFI (cfiCond17) ?BRET_EXT load(1, XDATA, add(CFA_XSP16, literal(-3)))
        CFI (cfiCond17) DPL0 load(1, XDATA, add(CFA_XSP16, literal(-2)))
        CFI (cfiCond17) DPH0 load(1, XDATA, add(CFA_XSP16, literal(-1)))
        CFI (cfiCond17) CFA_SP SP+0
        CFI (cfiCond17) CFA_XSP16 add(XSP16, 28)
        CFI Block cfiPicker18 Using cfiCommon1
        CFI (cfiPicker18) NoFunction
        CFI (cfiPicker18) Picker
        MOV     DPL,A
        MOV     A,DPH
        ADDC    A,#0x0
        MOV     DPH,A
        MOVX    A,@DPTR
        RET
        CFI EndBlock cfiCond12
        CFI EndBlock cfiCond13
        CFI EndBlock cfiCond14
        CFI EndBlock cfiCond15
        CFI EndBlock cfiCond16
        CFI EndBlock cfiCond17
        CFI EndBlock cfiPicker18
//  571 
//  572 /**
//  573  *  @brief      Push gyro biases to the DMP.
//  574  *  Because the gyro integration is handled in the DMP, any gyro biases
//  575  *  calculated by the MPL should be pushed down to DMP memory to remove
//  576  *  3-axis quaternion drift.
//  577  *  \n NOTE: If the DMP-based gyro calibration is enabled, the DMP will
//  578  *  overwrite the biases written to this location once a new one is computed.
//  579  *  @param[in]  bias    Gyro biases in q16.
//  580  *  @return     0 if successful.
//  581  */

        RSEG BANKED_CODE:CODE:NOROOT(0)
//  582 int dmp_set_gyro_bias(long *bias)
dmp_set_gyro_bias:
        CFI Block cfiBlock19 Using cfiCommon0
        CFI Function dmp_set_gyro_bias
        CODE
//  583 {
        FUNCALL dmp_set_gyro_bias, mpu_write_mem
        LOCFRAME ISTACK, 0, STACK
        LOCFRAME PSTACK, 0, STACK
        LOCFRAME XSTACK, 34, STACK
        LOCFRAME IOVERLAY, 0, STATIC
        LOCFRAME DOVERLAY, 0, STATIC
        ARGFRAME ISTACK, 0, STACK
        ARGFRAME PSTACK, 0, STACK
        ARGFRAME XSTACK, 34, STACK
        ARGFRAME IOVERLAY, 0, STATIC
        ARGFRAME DOVERLAY, 0, STATIC
        FUNCALL dmp_set_gyro_bias, mpu_write_mem
        LOCFRAME ISTACK, 0, STACK
        LOCFRAME PSTACK, 0, STACK
        LOCFRAME XSTACK, 34, STACK
        LOCFRAME IOVERLAY, 0, STATIC
        LOCFRAME DOVERLAY, 0, STATIC
        ARGFRAME ISTACK, 0, STACK
        ARGFRAME PSTACK, 0, STACK
        ARGFRAME XSTACK, 34, STACK
        ARGFRAME IOVERLAY, 0, STATIC
        ARGFRAME DOVERLAY, 0, STATIC
        FUNCALL dmp_set_gyro_bias, mpu_write_mem
        LOCFRAME ISTACK, 0, STACK
        LOCFRAME PSTACK, 0, STACK
        LOCFRAME XSTACK, 34, STACK
        LOCFRAME IOVERLAY, 0, STATIC
        LOCFRAME DOVERLAY, 0, STATIC
        ARGFRAME ISTACK, 0, STACK
        ARGFRAME PSTACK, 0, STACK
        ARGFRAME XSTACK, 34, STACK
        ARGFRAME IOVERLAY, 0, STATIC
        ARGFRAME DOVERLAY, 0, STATIC
        MOV     A,#-0x10
        LCALL   ?BANKED_ENTER_XDATA
        CFI DPH0 load(1, XDATA, add(CFA_XSP16, literal(-1)))
        CFI DPL0 load(1, XDATA, add(CFA_XSP16, literal(-2)))
        CFI ?BRET_EXT load(1, XDATA, add(CFA_XSP16, literal(-3)))
        CFI ?RET_HIGH load(1, XDATA, add(CFA_XSP16, literal(-4)))
        CFI ?RET_LOW load(1, XDATA, add(CFA_XSP16, literal(-5)))
        CFI R7 load(1, XDATA, add(CFA_XSP16, literal(-6)))
        CFI V7 load(1, XDATA, add(CFA_XSP16, literal(-7)))
        CFI V6 load(1, XDATA, add(CFA_XSP16, literal(-8)))
        CFI V5 load(1, XDATA, add(CFA_XSP16, literal(-9)))
        CFI V4 load(1, XDATA, add(CFA_XSP16, literal(-10)))
        CFI V3 load(1, XDATA, add(CFA_XSP16, literal(-11)))
        CFI V2 load(1, XDATA, add(CFA_XSP16, literal(-12)))
        CFI V1 load(1, XDATA, add(CFA_XSP16, literal(-13)))
        CFI V0 load(1, XDATA, add(CFA_XSP16, literal(-14)))
        CFI VB load(1, XDATA, add(CFA_XSP16, literal(-15)))
        CFI R6 load(1, XDATA, add(CFA_XSP16, literal(-16)))
        CFI CFA_SP SP+0
        CFI CFA_XSP16 add(XSP16, 16)
        ; Saved register size: 16
        ; Auto size: 16
        MOV     A,#-0x10
        LCALL   ?ALLOC_XSTACK8
        CFI CFA_XSP16 add(XSP16, 32)
        MOV     ?V0 + 0,R2
        MOV     ?V0 + 1,R3
//  584     long gyro_bias_body[3];
//  585     unsigned char regs[4];
//  586 
//  587     gyro_bias_body[0] = bias[dmp.orient & 3];
        LCALL   ?Subroutine9 & 0xFFFF
??CrossCallReturnLabel_2:
        LCALL   ?S_SHL
        MOV     A,R2
        ADD     A,?V0 + 2
        MOV     DPL,A
        MOV     A,R3
        LCALL   ??Subroutine44_0 & 0xFFFF
??CrossCallReturnLabel_73:
        LCALL   ?XLOAD_R2345
        MOV     A,#0x4
        LCALL   ?XSTACK_DISP0_8
        LCALL   ?XSTORE_R2345
//  588     if (dmp.orient & 4)
        MOV     A,R6
        ANL     A,#0x4
        JZ      ??dmp_set_gyro_bias_0
//  589         gyro_bias_body[0] *= -1;
        MOV     A,#0x4
        LCALL   ?XSTACK_DISP0_8
        MOV     R0,#?V0 + 4
        LCALL   ?L_MOV_X
        MOV     R0,#?V0 + 4
        LCALL   ?L_NEG
        MOV     A,#0x4
        LCALL   ?XSTACK_DISP0_8
        MOV     R0,#?V0 + 4
        LCALL   ?L_MOV_TO_X
//  590     gyro_bias_body[1] = bias[(dmp.orient >> 3) & 3];
??dmp_set_gyro_bias_0:
        LCALL   ?Subroutine10 & 0xFFFF
??CrossCallReturnLabel_4:
        LCALL   ?S_SHL
        MOV     A,?V0 + 0
        ADD     A,?V0 + 2
        LCALL   ??Subroutine43_0 & 0xFFFF
??CrossCallReturnLabel_74:
        LCALL   ?XLOAD_R2345
        MOV     A,#0x8
        LCALL   ?XSTACK_DISP0_8
        LCALL   ?XSTORE_R2345
//  591     if (dmp.orient & 0x20)
        MOV     A,R6
        ANL     A,#0x20
        JZ      ??dmp_set_gyro_bias_1
//  592         gyro_bias_body[1] *= -1;
        MOV     A,#0x8
        LCALL   ?XSTACK_DISP0_8
        MOV     R0,#?V0 + 4
        LCALL   ?L_MOV_X
        MOV     R0,#?V0 + 4
        LCALL   ?L_NEG
        MOV     A,#0x8
        LCALL   ?XSTACK_DISP0_8
        MOV     R0,#?V0 + 4
        LCALL   ?L_MOV_TO_X
//  593     gyro_bias_body[2] = bias[(dmp.orient >> 6) & 3];
??dmp_set_gyro_bias_1:
        LCALL   ?Subroutine11 & 0xFFFF
??CrossCallReturnLabel_77:
        LCALL   ?XLOAD_R2345
        MOV     A,#0xc
        LCALL   ?XSTACK_DISP0_8
        LCALL   ?XSTORE_R2345
//  594     if (dmp.orient & 0x100)
        MOV     A,R7
        ANL     A,#0x1
        JZ      ??dmp_set_gyro_bias_2
//  595         gyro_bias_body[2] *= -1;
        MOV     A,#0xc
        LCALL   ?XSTACK_DISP0_8
        MOV     R0,#?V0 + 0
        LCALL   ?L_MOV_X
        MOV     R0,#?V0 + 0
        LCALL   ?L_NEG
        MOV     A,#0xc
        LCALL   ?XSTACK_DISP0_8
        MOV     R0,#?V0 + 0
        LCALL   ?L_MOV_TO_X
//  596 
//  597 #ifdef EMPL_NO_64BIT
//  598     gyro_bias_body[0] = (long)(((float)gyro_bias_body[0] * GYRO_SF) / 1073741824.f);
//  599     gyro_bias_body[1] = (long)(((float)gyro_bias_body[1] * GYRO_SF) / 1073741824.f);
//  600     gyro_bias_body[2] = (long)(((float)gyro_bias_body[2] * GYRO_SF) / 1073741824.f);
//  601 #else
//  602     gyro_bias_body[0] = (long)(((long long)gyro_bias_body[0] * GYRO_SF) >> 30);
??dmp_set_gyro_bias_2:
        MOV     A,#0x4
        LCALL   ?XSTACK_DISP0_8
        MOV     R0,#?V0 + 0
        LCALL   ?L_MOV_X
        MOV     DPTR,#__Constant_3b86e0
        MOV     R0,#?V0 + 4
        LCALL   ?L_MOV_X
        MOV     R0,#?V0 + 0
        MOV     R1,#?V0 + 4
        LCALL   ?L_MUL
        MOV     A,#0x1e
        MOV     R0,#?V0 + 0
        LCALL   ?SL_SHR
        MOV     A,#0x4
        LCALL   ?XSTACK_DISP0_8
        MOV     R0,#?V0 + 0
        LCALL   ?L_MOV_TO_X
//  603     gyro_bias_body[1] = (long)(((long long)gyro_bias_body[1] * GYRO_SF) >> 30);
        MOV     A,#0x8
        LCALL   ?XSTACK_DISP0_8
        MOV     R0,#?V0 + 0
        LCALL   ?L_MOV_X
        MOV     DPTR,#__Constant_3b86e0
        MOV     R0,#?V0 + 4
        LCALL   ?L_MOV_X
        MOV     R0,#?V0 + 0
        MOV     R1,#?V0 + 4
        LCALL   ?L_MUL
        MOV     A,#0x1e
        MOV     R0,#?V0 + 0
        LCALL   ?SL_SHR
        MOV     A,#0x8
        LCALL   ?XSTACK_DISP0_8
        MOV     R0,#?V0 + 0
        LCALL   ?L_MOV_TO_X
//  604     gyro_bias_body[2] = (long)(((long long)gyro_bias_body[2] * GYRO_SF) >> 30);
        MOV     A,#0xc
        LCALL   ?XSTACK_DISP0_8
        MOV     R0,#?V0 + 0
        LCALL   ?L_MOV_X
        MOV     DPTR,#__Constant_3b86e0
        MOV     R0,#?V0 + 4
        LCALL   ?L_MOV_X
        MOV     R0,#?V0 + 0
        MOV     R1,#?V0 + 4
        LCALL   ?L_MUL
        MOV     A,#0x1e
        MOV     R0,#?V0 + 0
        LCALL   ?SL_SHR
        MOV     A,#0xc
        LCALL   ?XSTACK_DISP0_8
        MOV     R0,#?V0 + 0
        LCALL   ?L_MOV_TO_X
//  605 #endif
//  606 
//  607     regs[0] = (unsigned char)((gyro_bias_body[0] >> 24) & 0xFF);
        MOV     A,#0x4
        LCALL   ?XSTACK_DISP0_8
        MOV     R0,#?V0 + 0
        LCALL   ?L_MOV_X
        MOV     A,#0x18
        MOV     R0,#?V0 + 0
        LCALL   ?SL_SHR
        MOV     DPL,?XSP + 0
        MOV     DPH,?XSP + 1
        MOV     A,?V0 + 0
        MOVX    @DPTR,A
//  608     regs[1] = (unsigned char)((gyro_bias_body[0] >> 16) & 0xFF);
        MOV     A,#0x4
        LCALL   ?XSTACK_DISP0_8
        MOV     R0,#?V0 + 0
        LCALL   ?L_MOV_X
        MOV     A,#0x10
        MOV     R0,#?V0 + 0
        LCALL   ?SL_SHR
        INC     A
        LCALL   ?XSTACK_DISP0_8
        MOV     A,?V0 + 0
        MOVX    @DPTR,A
//  609     regs[2] = (unsigned char)((gyro_bias_body[0] >> 8) & 0xFF);
        MOV     A,#0x4
        LCALL   ?XSTACK_DISP0_8
        MOV     R0,#?V0 + 0
        LCALL   ?L_MOV_X
        MOV     A,#0x8
        MOV     R0,#?V0 + 0
        LCALL   ?SS_SHR
        MOV     A,#0x2
        LCALL   ?XSTACK_DISP0_8
        MOV     A,?V0 + 0
        MOVX    @DPTR,A
//  610     regs[3] = (unsigned char)(gyro_bias_body[0] & 0xFF);
        MOV     A,#0x4
        LCALL   ?XSTACK_DISP0_8
        MOV     R0,#?V0 + 0
        LCALL   ?L_MOV_X
        MOV     A,#0x3
        LCALL   ?XSTACK_DISP0_8
        MOV     A,?V0 + 0
        LCALL   ??Subroutine47_0 & 0xFFFF
//  611     if (mpu_write_mem(D_EXT_GYRO_BIAS_X, 4, regs))
??CrossCallReturnLabel_83:
        LCALL   ?PUSH_XSTACK_I_TWO
        CFI CFA_XSP16 add(XSP16, 34)
        MOV     R4,#0x4
        MOV     R5,#0x0
        MOV     R2,#-0x30
        MOV     R3,#0x3
        LCALL   ??Subroutine52_0 & 0xFFFF
??CrossCallReturnLabel_114:
        LCALL   ?DEALLOC_XSTACK8
        CFI CFA_XSP16 add(XSP16, 32)
        MOV     ?V0 + 1,R3
        MOV     A,R2
        ORL     A,?V0 + 1
        JZ      ??dmp_set_gyro_bias_3
//  612         return -1;
??dmp_set_gyro_bias_4:
        MOV     R2,#-0x1
        MOV     R3,#-0x1
        LJMP    ??dmp_set_gyro_bias_5 & 0xFFFF
//  613 
//  614     regs[0] = (unsigned char)((gyro_bias_body[1] >> 24) & 0xFF);
??dmp_set_gyro_bias_3:
        MOV     A,#0x8
        LCALL   ?XSTACK_DISP0_8
        MOV     R0,#?V0 + 4
        LCALL   ?L_MOV_X
        MOV     ?V0 + 0,?V0 + 4
        MOV     ?V0 + 1,?V0 + 5
        MOV     ?V0 + 2,?V0 + 6
        MOV     ?V0 + 3,?V0 + 7
        MOV     A,#0x18
        MOV     R0,#?V0 + 0
        LCALL   ?SL_SHR
        LCALL   ?Subroutine26 & 0xFFFF
//  615     regs[1] = (unsigned char)((gyro_bias_body[1] >> 16) & 0xFF);
??CrossCallReturnLabel_38:
        LCALL   ?SL_SHR
        INC     A
        LCALL   ?XSTACK_DISP0_8
        LCALL   ?Subroutine27 & 0xFFFF
//  616     regs[2] = (unsigned char)((gyro_bias_body[1] >> 8) & 0xFF);
??CrossCallReturnLabel_41:
        LCALL   ?SS_SHR
        MOV     A,#0x2
        LCALL   ?XSTACK_DISP0_8
        MOV     A,?V0 + 0
        MOVX    @DPTR,A
//  617     regs[3] = (unsigned char)(gyro_bias_body[1] & 0xFF);
        MOV     A,#0x3
        LCALL   ?XSTACK_DISP0_8
        LCALL   ?Subroutine25 & 0xFFFF
//  618     if (mpu_write_mem(D_EXT_GYRO_BIAS_Y, 4, regs))
??CrossCallReturnLabel_79:
        LCALL   ?PUSH_XSTACK_I_TWO
        CFI CFA_XSP16 add(XSP16, 34)
        MOV     R4,#0x4
        MOV     R5,#0x0
        MOV     R2,#-0x2c
        MOV     R3,#0x3
        LCALL   ??Subroutine52_0 & 0xFFFF
??CrossCallReturnLabel_115:
        LCALL   ?DEALLOC_XSTACK8
        CFI CFA_XSP16 add(XSP16, 32)
        MOV     ?V0 + 1,R3
        MOV     A,R2
        ORL     A,?V0 + 1
        JNZ     ??dmp_set_gyro_bias_4
//  619         return -1;
//  620 
//  621     regs[0] = (unsigned char)((gyro_bias_body[2] >> 24) & 0xFF);
        MOV     A,#0xc
        LCALL   ?XSTACK_DISP0_8
        MOV     R0,#?V0 + 4
        LCALL   ?L_MOV_X
        MOV     ?V0 + 0,?V0 + 4
        MOV     ?V0 + 1,?V0 + 5
        MOV     ?V0 + 2,?V0 + 6
        MOV     ?V0 + 3,?V0 + 7
        MOV     A,#0x18
        MOV     R0,#?V0 + 0
        LCALL   ?SL_SHR
        LCALL   ?Subroutine26 & 0xFFFF
//  622     regs[1] = (unsigned char)((gyro_bias_body[2] >> 16) & 0xFF);
??CrossCallReturnLabel_39:
        LCALL   ?SL_SHR
        INC     A
        LCALL   ?XSTACK_DISP0_8
        LCALL   ?Subroutine27 & 0xFFFF
//  623     regs[2] = (unsigned char)((gyro_bias_body[2] >> 8) & 0xFF);
??CrossCallReturnLabel_42:
        LCALL   ?SS_SHR
        MOV     A,#0x2
        LCALL   ?XSTACK_DISP0_8
        MOV     A,?V0 + 0
        MOVX    @DPTR,A
//  624     regs[3] = (unsigned char)(gyro_bias_body[2] & 0xFF);
        MOV     A,#0x3
        LCALL   ?XSTACK_DISP0_8
        LCALL   ?Subroutine25 & 0xFFFF
//  625     return mpu_write_mem(D_EXT_GYRO_BIAS_Z, 4, regs);
??CrossCallReturnLabel_80:
        LCALL   ?PUSH_XSTACK_I_TWO
        CFI CFA_XSP16 add(XSP16, 34)
        MOV     R4,#0x4
        MOV     R5,#0x0
        MOV     R2,#-0x28
        MOV     R3,#0x3
        LCALL   ??Subroutine52_0 & 0xFFFF
??CrossCallReturnLabel_116:
        LCALL   ?DEALLOC_XSTACK8
        CFI CFA_XSP16 add(XSP16, 32)
??dmp_set_gyro_bias_5:
        MOV     A,#0x10
        LJMP    ??Subroutine50_0 & 0xFFFF
        CFI EndBlock cfiBlock19
//  626 }
//  627 
//  628 /**
//  629  *  @brief      Push accel biases to the DMP.
//  630  *  These biases will be removed from the DMP 6-axis quaternion.
//  631  *  @param[in]  bias    Accel biases in q16.
//  632  *  @return     0 if successful.
//  633  */

        RSEG BANKED_CODE:CODE:NOROOT(0)
//  634 int dmp_set_accel_bias(long *bias)
dmp_set_accel_bias:
        CFI Block cfiBlock20 Using cfiCommon0
        CFI Function dmp_set_accel_bias
        CODE
//  635 {
        FUNCALL dmp_set_accel_bias, mpu_get_accel_sens
        LOCFRAME ISTACK, 0, STACK
        LOCFRAME PSTACK, 0, STACK
        LOCFRAME XSTACK, 46, STACK
        LOCFRAME IOVERLAY, 0, STATIC
        LOCFRAME DOVERLAY, 0, STATIC
        ARGFRAME ISTACK, 0, STACK
        ARGFRAME PSTACK, 0, STACK
        ARGFRAME XSTACK, 46, STACK
        ARGFRAME IOVERLAY, 0, STATIC
        ARGFRAME DOVERLAY, 0, STATIC
        FUNCALL dmp_set_accel_bias, mpu_write_mem
        LOCFRAME ISTACK, 0, STACK
        LOCFRAME PSTACK, 0, STACK
        LOCFRAME XSTACK, 48, STACK
        LOCFRAME IOVERLAY, 0, STATIC
        LOCFRAME DOVERLAY, 0, STATIC
        ARGFRAME ISTACK, 0, STACK
        ARGFRAME PSTACK, 0, STACK
        ARGFRAME XSTACK, 48, STACK
        ARGFRAME IOVERLAY, 0, STATIC
        ARGFRAME DOVERLAY, 0, STATIC
        MOV     A,#-0x14
        LCALL   ?BANKED_ENTER_XDATA
        CFI DPH0 load(1, XDATA, add(CFA_XSP16, literal(-1)))
        CFI DPL0 load(1, XDATA, add(CFA_XSP16, literal(-2)))
        CFI ?BRET_EXT load(1, XDATA, add(CFA_XSP16, literal(-3)))
        CFI ?RET_HIGH load(1, XDATA, add(CFA_XSP16, literal(-4)))
        CFI ?RET_LOW load(1, XDATA, add(CFA_XSP16, literal(-5)))
        CFI R7 load(1, XDATA, add(CFA_XSP16, literal(-6)))
        CFI V11 load(1, XDATA, add(CFA_XSP16, literal(-7)))
        CFI V10 load(1, XDATA, add(CFA_XSP16, literal(-8)))
        CFI V9 load(1, XDATA, add(CFA_XSP16, literal(-9)))
        CFI V8 load(1, XDATA, add(CFA_XSP16, literal(-10)))
        CFI V7 load(1, XDATA, add(CFA_XSP16, literal(-11)))
        CFI V6 load(1, XDATA, add(CFA_XSP16, literal(-12)))
        CFI V5 load(1, XDATA, add(CFA_XSP16, literal(-13)))
        CFI V4 load(1, XDATA, add(CFA_XSP16, literal(-14)))
        CFI V3 load(1, XDATA, add(CFA_XSP16, literal(-15)))
        CFI V2 load(1, XDATA, add(CFA_XSP16, literal(-16)))
        CFI V1 load(1, XDATA, add(CFA_XSP16, literal(-17)))
        CFI V0 load(1, XDATA, add(CFA_XSP16, literal(-18)))
        CFI VB load(1, XDATA, add(CFA_XSP16, literal(-19)))
        CFI R6 load(1, XDATA, add(CFA_XSP16, literal(-20)))
        CFI CFA_SP SP+0
        CFI CFA_XSP16 add(XSP16, 20)
        ; Saved register size: 20
        ; Auto size: 26
        MOV     A,#-0x1a
        LCALL   ?ALLOC_XSTACK8
        CFI CFA_XSP16 add(XSP16, 46)
        MOV     ?V0 + 0,R2
        MOV     ?V0 + 1,R3
//  636     long accel_bias_body[3];
//  637     unsigned char regs[12];
//  638     long long accel_sf;
//  639     unsigned short accel_sens;
//  640 
//  641     mpu_get_accel_sens(&accel_sens);
        ; Setup parameters for call to function mpu_get_accel_sens
        MOV     A,#0xc
        LCALL   ?XSTACK_DISP0_8
        MOV     R2,DPL
        MOV     R3,DPH
        LCALL   ??mpu_get_accel_sens?relay
//  642     accel_sf = (long long)accel_sens << 15;
        MOV     A,#0xc
        LCALL   ?XSTACK_DISP0_8
        MOVX    A,@DPTR
        MOV     ?V0 + 4,A
        INC     DPTR
        MOVX    A,@DPTR
        MOV     ?V0 + 5,A
        CLR     A
        MOV     ?V0 + 6,A
        MOV     ?V0 + 7,A
        MOV     A,#0xf
        MOV     R0,#?V0 + 4
        LCALL   ?L_SHL
//  643     //__no_operation();
//  644 
//  645     accel_bias_body[0] = bias[dmp.orient & 3];
        LCALL   ?Subroutine9 & 0xFFFF
??CrossCallReturnLabel_3:
        LCALL   ?S_SHL
        MOV     A,?V0 + 0
        ADD     A,?V0 + 2
        LCALL   ??Subroutine43_0 & 0xFFFF
??CrossCallReturnLabel_75:
        LCALL   ?XLOAD_R2345
        MOV     DPL,?XSP + 0
        MOV     DPH,?XSP + 1
        LCALL   ?XSTORE_R2345
//  646     if (dmp.orient & 4)
        MOV     A,R6
        ANL     A,#0x4
        JZ      ??dmp_set_accel_bias_0
//  647         accel_bias_body[0] *= -1;
        MOV     DPL,?XSP + 0
        MOV     DPH,?XSP + 1
        MOV     R0,#?V0 + 8
        LCALL   ?L_MOV_X
        MOV     R0,#?V0 + 8
        LCALL   ?L_NEG
        MOV     DPL,?XSP + 0
        MOV     DPH,?XSP + 1
        MOV     R0,#?V0 + 8
        LCALL   ?L_MOV_TO_X
//  648     accel_bias_body[1] = bias[(dmp.orient >> 3) & 3];
??dmp_set_accel_bias_0:
        LCALL   ?Subroutine10 & 0xFFFF
??CrossCallReturnLabel_5:
        LCALL   ?S_SHL
        MOV     A,?V0 + 0
        ADD     A,?V0 + 2
        LCALL   ??Subroutine43_0 & 0xFFFF
??CrossCallReturnLabel_76:
        LCALL   ?XLOAD_R2345
        MOV     A,#0x4
        LCALL   ?XSTACK_DISP0_8
        LCALL   ?XSTORE_R2345
//  649     if (dmp.orient & 0x20)
        MOV     A,R6
        ANL     A,#0x20
        JZ      ??dmp_set_accel_bias_1
//  650         accel_bias_body[1] *= -1;
        MOV     A,#0x4
        LCALL   ?XSTACK_DISP0_8
        MOV     R0,#?V0 + 8
        LCALL   ?L_MOV_X
        MOV     R0,#?V0 + 8
        LCALL   ?L_NEG
        MOV     A,#0x4
        LCALL   ?XSTACK_DISP0_8
        MOV     R0,#?V0 + 8
        LCALL   ?L_MOV_TO_X
//  651     accel_bias_body[2] = bias[(dmp.orient >> 6) & 3];
??dmp_set_accel_bias_1:
        LCALL   ?Subroutine11 & 0xFFFF
??CrossCallReturnLabel_78:
        LCALL   ?XLOAD_R2345
        MOV     A,#0x8
        LCALL   ?XSTACK_DISP0_8
        LCALL   ?XSTORE_R2345
//  652     if (dmp.orient & 0x100)
        MOV     A,R7
        ANL     A,#0x1
        JZ      ??dmp_set_accel_bias_2
//  653         accel_bias_body[2] *= -1;
        MOV     A,#0x8
        LCALL   ?XSTACK_DISP0_8
        MOV     R0,#?V0 + 0
        LCALL   ?L_MOV_X
        MOV     R0,#?V0 + 0
        LCALL   ?L_NEG
        MOV     A,#0x8
        LCALL   ?XSTACK_DISP0_8
        MOV     R0,#?V0 + 0
        LCALL   ?L_MOV_TO_X
//  654 
//  655 #ifdef EMPL_NO_64BIT
//  656     accel_bias_body[0] = (long)(((float)accel_bias_body[0] * accel_sf) / 1073741824.f);
//  657     accel_bias_body[1] = (long)(((float)accel_bias_body[1] * accel_sf) / 1073741824.f);
//  658     accel_bias_body[2] = (long)(((float)accel_bias_body[2] * accel_sf) / 1073741824.f);
//  659 #else
//  660     accel_bias_body[0] = (long)(((long long)accel_bias_body[0] * accel_sf) >> 30);
??dmp_set_accel_bias_2:
        MOV     DPL,?XSP + 0
        MOV     DPH,?XSP + 1
        MOV     R0,#?V0 + 0
        LCALL   ?L_MOV_X
        MOV     R0,#?V0 + 0
        MOV     R1,#?V0 + 4
        LCALL   ?L_MUL
        MOV     A,#0x1e
        MOV     R0,#?V0 + 0
        LCALL   ?SL_SHR
        MOV     DPL,?XSP + 0
        MOV     DPH,?XSP + 1
        MOV     R0,#?V0 + 0
        LCALL   ?L_MOV_TO_X
//  661     accel_bias_body[1] = (long)(((long long)accel_bias_body[1] * accel_sf) >> 30);
        MOV     A,#0x4
        LCALL   ?XSTACK_DISP0_8
        MOV     R0,#?V0 + 0
        LCALL   ?L_MOV_X
        MOV     R0,#?V0 + 0
        MOV     R1,#?V0 + 4
        LCALL   ?L_MUL
        MOV     A,#0x1e
        MOV     R0,#?V0 + 0
        LCALL   ?SL_SHR
        MOV     A,#0x4
        LCALL   ?XSTACK_DISP0_8
        MOV     R0,#?V0 + 0
        LCALL   ?L_MOV_TO_X
//  662     accel_bias_body[2] = (long)(((long long)accel_bias_body[2] * accel_sf) >> 30);
        MOV     A,#0x8
        LCALL   ?XSTACK_DISP0_8
        MOV     R0,#?V0 + 8
        LCALL   ?L_MOV_X
        MOV     R0,#?V0 + 8
        MOV     R1,#?V0 + 4
        LCALL   ?L_MUL
        MOV     A,#0x1e
        MOV     R0,#?V0 + 8
        LCALL   ?SL_SHR
        MOV     A,#0x8
        LCALL   ?XSTACK_DISP0_8
        MOV     R0,#?V0 + 8
        LCALL   ?L_MOV_TO_X
//  663 #endif
//  664 
//  665     regs[0] = (unsigned char)((accel_bias_body[0] >> 24) & 0xFF);
        MOV     DPL,?XSP + 0
        MOV     DPH,?XSP + 1
        MOV     R0,#?V0 + 4
        LCALL   ?L_MOV_X
        MOV     A,#0x18
        MOV     R0,#?V0 + 4
        LCALL   ?SL_SHR
        MOV     A,#0xe
        LCALL   ?XSTACK_DISP0_8
        LCALL   ?Subroutine28 & 0xFFFF
//  666     regs[1] = (unsigned char)((accel_bias_body[0] >> 16) & 0xFF);
??CrossCallReturnLabel_44:
        LCALL   ?L_MOV_X
        MOV     A,#0x10
        MOV     R0,#?V0 + 4
        LCALL   ?SL_SHR
        MOV     A,#0xf
        LCALL   ?XSTACK_DISP0_8
        LCALL   ?Subroutine28 & 0xFFFF
//  667     regs[2] = (unsigned char)((accel_bias_body[0] >> 8) & 0xFF);
??CrossCallReturnLabel_45:
        LCALL   ?L_MOV_X
        MOV     A,#0x8
        MOV     R0,#?V0 + 4
        LCALL   ?SS_SHR
        MOV     A,#0x10
        LCALL   ?XSTACK_DISP0_8
        LCALL   ?Subroutine28 & 0xFFFF
//  668     regs[3] = (unsigned char)(accel_bias_body[0] & 0xFF);
??CrossCallReturnLabel_46:
        LCALL   ?L_MOV_X
        MOV     A,#0x11
        LCALL   ?XSTACK_DISP0_8
        LCALL   ?Subroutine29 & 0xFFFF
//  669     regs[4] = (unsigned char)((accel_bias_body[1] >> 24) & 0xFF);
??CrossCallReturnLabel_47:
        MOV     A,#0x18
        MOV     R0,#?V0 + 4
        LCALL   ?SL_SHR
        MOV     A,#0x12
        LCALL   ?XSTACK_DISP0_8
        LCALL   ?Subroutine29 & 0xFFFF
//  670     regs[5] = (unsigned char)((accel_bias_body[1] >> 16) & 0xFF);
??CrossCallReturnLabel_48:
        MOV     A,#0x10
        MOV     R0,#?V0 + 4
        LCALL   ?SL_SHR
        MOV     A,#0x13
        LCALL   ?XSTACK_DISP0_8
        MOV     A,?V0 + 4
        MOVX    @DPTR,A
//  671     regs[6] = (unsigned char)((accel_bias_body[1] >> 8) & 0xFF);
        MOV     ?V0 + 4,?V0 + 0
        MOV     ?V0 + 5,?V0 + 1
        MOV     A,#0x8
        MOV     R0,#?V0 + 4
        LCALL   ?SS_SHR
        MOV     A,#0x14
        LCALL   ?XSTACK_DISP0_8
        MOV     A,?V0 + 4
        MOVX    @DPTR,A
//  672     regs[7] = (unsigned char)(accel_bias_body[1] & 0xFF);
        MOV     A,#0x15
        LCALL   ?XSTACK_DISP0_8
        LCALL   ?Subroutine30 & 0xFFFF
//  673     regs[8] = (unsigned char)((accel_bias_body[2] >> 24) & 0xFF);
??CrossCallReturnLabel_49:
        MOV     A,#0x18
        MOV     R0,#?V0 + 0
        LCALL   ?SL_SHR
        MOV     A,#0x16
        LCALL   ?XSTACK_DISP0_8
        LCALL   ?Subroutine30 & 0xFFFF
//  674     regs[9] = (unsigned char)((accel_bias_body[2] >> 16) & 0xFF);
??CrossCallReturnLabel_50:
        MOV     A,#0x10
        MOV     R0,#?V0 + 0
        LCALL   ?SL_SHR
        MOV     A,#0x17
        LCALL   ?XSTACK_DISP0_8
        MOV     A,?V0 + 0
        MOVX    @DPTR,A
//  675     regs[10] = (unsigned char)((accel_bias_body[2] >> 8) & 0xFF);
        MOV     ?V0 + 0,?V0 + 8
        MOV     ?V0 + 1,?V0 + 9
        MOV     A,#0x8
        MOV     R0,#?V0 + 0
        LCALL   ?SS_SHR
        MOV     A,#0x18
        LCALL   ?XSTACK_DISP0_8
        MOV     A,?V0 + 0
        MOVX    @DPTR,A
//  676     regs[11] = (unsigned char)(accel_bias_body[2] & 0xFF);
        MOV     A,#0x19
        LCALL   ?XSTACK_DISP0_8
        MOV     A,?V0 + 8
        MOVX    @DPTR,A
//  677     return mpu_write_mem(D_ACCEL_BIAS, 12, regs);
        ; Setup parameters for call to function mpu_write_mem
        MOV     A,#0xe
        LCALL   ?XSTACK_DISP0_8
        MOV     ?V0 + 0,DPL
        MOV     ?V0 + 1,DPH
        MOV     R0,#?V0 + 0
        LCALL   ?PUSH_XSTACK_I_TWO
        CFI CFA_XSP16 add(XSP16, 48)
        MOV     R4,#0xc
        MOV     R5,#0x0
        MOV     R2,#-0x6c
        MOV     R3,#0x2
        LCALL   ??Subroutine52_0 & 0xFFFF
??CrossCallReturnLabel_117:
        LCALL   ?DEALLOC_XSTACK8
        CFI CFA_XSP16 add(XSP16, 46)
        MOV     A,#0x1a
        CFI EndBlock cfiBlock20
        REQUIRE ?Subroutine2
        ; // Fall through to label ?Subroutine2
//  678 }

        RSEG BANKED_CODE:CODE:NOROOT(0)
?Subroutine2:
        CFI Block cfiBlock21 Using cfiCommon0
        CFI NoFunction
        CFI CFA_SP SP+0
        CFI CFA_XSP16 add(XSP16, 46)
        CFI VB load(1, XDATA, add(CFA_XSP16, literal(-19)))
        CFI DPL0 load(1, XDATA, add(CFA_XSP16, literal(-2)))
        CFI DPH0 load(1, XDATA, add(CFA_XSP16, literal(-1)))
        CFI R6 load(1, XDATA, add(CFA_XSP16, literal(-20)))
        CFI R7 load(1, XDATA, add(CFA_XSP16, literal(-6)))
        CFI V0 load(1, XDATA, add(CFA_XSP16, literal(-18)))
        CFI V1 load(1, XDATA, add(CFA_XSP16, literal(-17)))
        CFI V2 load(1, XDATA, add(CFA_XSP16, literal(-16)))
        CFI V3 load(1, XDATA, add(CFA_XSP16, literal(-15)))
        CFI V4 load(1, XDATA, add(CFA_XSP16, literal(-14)))
        CFI V5 load(1, XDATA, add(CFA_XSP16, literal(-13)))
        CFI V6 load(1, XDATA, add(CFA_XSP16, literal(-12)))
        CFI V7 load(1, XDATA, add(CFA_XSP16, literal(-11)))
        CFI V8 load(1, XDATA, add(CFA_XSP16, literal(-10)))
        CFI V9 load(1, XDATA, add(CFA_XSP16, literal(-9)))
        CFI V10 load(1, XDATA, add(CFA_XSP16, literal(-8)))
        CFI V11 load(1, XDATA, add(CFA_XSP16, literal(-7)))
        CFI ?BRET_EXT load(1, XDATA, add(CFA_XSP16, literal(-3)))
        CFI ?RET_HIGH load(1, XDATA, add(CFA_XSP16, literal(-4)))
        CFI ?RET_LOW load(1, XDATA, add(CFA_XSP16, literal(-5)))
        CFI Invalid
        LCALL   ?DEALLOC_XSTACK8
        CFI CFA_XSP16 add(XSP16, 20)
        CFI Valid
        MOV     R7,#0xc
        LJMP    ?BANKED_LEAVE_XDATA
        CFI EndBlock cfiBlock21

        RSEG BANKED_CODE:CODE:NOROOT(0)
?Subroutine30:
        CFI Block cfiCond22 Using cfiCommon0
        CFI NoFunction
        CFI Conditional ??CrossCallReturnLabel_49
        CFI R6 load(1, XDATA, add(CFA_XSP16, literal(-20)))
        CFI VB load(1, XDATA, add(CFA_XSP16, literal(-19)))
        CFI V0 load(1, XDATA, add(CFA_XSP16, literal(-18)))
        CFI V1 load(1, XDATA, add(CFA_XSP16, literal(-17)))
        CFI V2 load(1, XDATA, add(CFA_XSP16, literal(-16)))
        CFI V3 load(1, XDATA, add(CFA_XSP16, literal(-15)))
        CFI V4 load(1, XDATA, add(CFA_XSP16, literal(-14)))
        CFI V5 load(1, XDATA, add(CFA_XSP16, literal(-13)))
        CFI V6 load(1, XDATA, add(CFA_XSP16, literal(-12)))
        CFI V7 load(1, XDATA, add(CFA_XSP16, literal(-11)))
        CFI V8 load(1, XDATA, add(CFA_XSP16, literal(-10)))
        CFI V9 load(1, XDATA, add(CFA_XSP16, literal(-9)))
        CFI V10 load(1, XDATA, add(CFA_XSP16, literal(-8)))
        CFI V11 load(1, XDATA, add(CFA_XSP16, literal(-7)))
        CFI R7 load(1, XDATA, add(CFA_XSP16, literal(-6)))
        CFI ?RET_LOW load(1, XDATA, add(CFA_XSP16, literal(-5)))
        CFI ?RET_HIGH load(1, XDATA, add(CFA_XSP16, literal(-4)))
        CFI ?BRET_EXT load(1, XDATA, add(CFA_XSP16, literal(-3)))
        CFI DPL0 load(1, XDATA, add(CFA_XSP16, literal(-2)))
        CFI DPH0 load(1, XDATA, add(CFA_XSP16, literal(-1)))
        CFI CFA_SP SP+0
        CFI CFA_XSP16 add(XSP16, 46)
        CFI Block cfiCond23 Using cfiCommon0
        CFI (cfiCond23) NoFunction
        CFI (cfiCond23) Conditional ??CrossCallReturnLabel_50
        CFI (cfiCond23) R6 load(1, XDATA, add(CFA_XSP16, literal(-20)))
        CFI (cfiCond23) VB load(1, XDATA, add(CFA_XSP16, literal(-19)))
        CFI (cfiCond23) V0 load(1, XDATA, add(CFA_XSP16, literal(-18)))
        CFI (cfiCond23) V1 load(1, XDATA, add(CFA_XSP16, literal(-17)))
        CFI (cfiCond23) V2 load(1, XDATA, add(CFA_XSP16, literal(-16)))
        CFI (cfiCond23) V3 load(1, XDATA, add(CFA_XSP16, literal(-15)))
        CFI (cfiCond23) V4 load(1, XDATA, add(CFA_XSP16, literal(-14)))
        CFI (cfiCond23) V5 load(1, XDATA, add(CFA_XSP16, literal(-13)))
        CFI (cfiCond23) V6 load(1, XDATA, add(CFA_XSP16, literal(-12)))
        CFI (cfiCond23) V7 load(1, XDATA, add(CFA_XSP16, literal(-11)))
        CFI (cfiCond23) V8 load(1, XDATA, add(CFA_XSP16, literal(-10)))
        CFI (cfiCond23) V9 load(1, XDATA, add(CFA_XSP16, literal(-9)))
        CFI (cfiCond23) V10 load(1, XDATA, add(CFA_XSP16, literal(-8)))
        CFI (cfiCond23) V11 load(1, XDATA, add(CFA_XSP16, literal(-7)))
        CFI (cfiCond23) R7 load(1, XDATA, add(CFA_XSP16, literal(-6)))
        CFI (cfiCond23) ?RET_LOW load(1, XDATA, add(CFA_XSP16, literal(-5)))
        CFI (cfiCond23) ?RET_HIGH load(1, XDATA, add(CFA_XSP16, literal(-4)))
        CFI (cfiCond23) ?BRET_EXT load(1, XDATA, add(CFA_XSP16, literal(-3)))
        CFI (cfiCond23) DPL0 load(1, XDATA, add(CFA_XSP16, literal(-2)))
        CFI (cfiCond23) DPH0 load(1, XDATA, add(CFA_XSP16, literal(-1)))
        CFI (cfiCond23) CFA_SP SP+0
        CFI (cfiCond23) CFA_XSP16 add(XSP16, 46)
        CFI Block cfiPicker24 Using cfiCommon1
        CFI (cfiPicker24) NoFunction
        CFI (cfiPicker24) Picker
        MOV     A,?V0 + 0
        MOVX    @DPTR,A
        MOV     ?V0 + 0,?V0 + 8
        MOV     ?V0 + 1,?V0 + 9
        MOV     ?V0 + 2,?V0 + 10
        MOV     ?V0 + 3,?V0 + 11
        RET
        CFI EndBlock cfiCond22
        CFI EndBlock cfiCond23
        CFI EndBlock cfiPicker24

        RSEG BANKED_CODE:CODE:NOROOT(0)
?Subroutine29:
        CFI Block cfiCond25 Using cfiCommon0
        CFI NoFunction
        CFI Conditional ??CrossCallReturnLabel_47
        CFI R6 load(1, XDATA, add(CFA_XSP16, literal(-20)))
        CFI VB load(1, XDATA, add(CFA_XSP16, literal(-19)))
        CFI V0 load(1, XDATA, add(CFA_XSP16, literal(-18)))
        CFI V1 load(1, XDATA, add(CFA_XSP16, literal(-17)))
        CFI V2 load(1, XDATA, add(CFA_XSP16, literal(-16)))
        CFI V3 load(1, XDATA, add(CFA_XSP16, literal(-15)))
        CFI V4 load(1, XDATA, add(CFA_XSP16, literal(-14)))
        CFI V5 load(1, XDATA, add(CFA_XSP16, literal(-13)))
        CFI V6 load(1, XDATA, add(CFA_XSP16, literal(-12)))
        CFI V7 load(1, XDATA, add(CFA_XSP16, literal(-11)))
        CFI V8 load(1, XDATA, add(CFA_XSP16, literal(-10)))
        CFI V9 load(1, XDATA, add(CFA_XSP16, literal(-9)))
        CFI V10 load(1, XDATA, add(CFA_XSP16, literal(-8)))
        CFI V11 load(1, XDATA, add(CFA_XSP16, literal(-7)))
        CFI R7 load(1, XDATA, add(CFA_XSP16, literal(-6)))
        CFI ?RET_LOW load(1, XDATA, add(CFA_XSP16, literal(-5)))
        CFI ?RET_HIGH load(1, XDATA, add(CFA_XSP16, literal(-4)))
        CFI ?BRET_EXT load(1, XDATA, add(CFA_XSP16, literal(-3)))
        CFI DPL0 load(1, XDATA, add(CFA_XSP16, literal(-2)))
        CFI DPH0 load(1, XDATA, add(CFA_XSP16, literal(-1)))
        CFI CFA_SP SP+0
        CFI CFA_XSP16 add(XSP16, 46)
        CFI Block cfiCond26 Using cfiCommon0
        CFI (cfiCond26) NoFunction
        CFI (cfiCond26) Conditional ??CrossCallReturnLabel_48
        CFI (cfiCond26) R6 load(1, XDATA, add(CFA_XSP16, literal(-20)))
        CFI (cfiCond26) VB load(1, XDATA, add(CFA_XSP16, literal(-19)))
        CFI (cfiCond26) V0 load(1, XDATA, add(CFA_XSP16, literal(-18)))
        CFI (cfiCond26) V1 load(1, XDATA, add(CFA_XSP16, literal(-17)))
        CFI (cfiCond26) V2 load(1, XDATA, add(CFA_XSP16, literal(-16)))
        CFI (cfiCond26) V3 load(1, XDATA, add(CFA_XSP16, literal(-15)))
        CFI (cfiCond26) V4 load(1, XDATA, add(CFA_XSP16, literal(-14)))
        CFI (cfiCond26) V5 load(1, XDATA, add(CFA_XSP16, literal(-13)))
        CFI (cfiCond26) V6 load(1, XDATA, add(CFA_XSP16, literal(-12)))
        CFI (cfiCond26) V7 load(1, XDATA, add(CFA_XSP16, literal(-11)))
        CFI (cfiCond26) V8 load(1, XDATA, add(CFA_XSP16, literal(-10)))
        CFI (cfiCond26) V9 load(1, XDATA, add(CFA_XSP16, literal(-9)))
        CFI (cfiCond26) V10 load(1, XDATA, add(CFA_XSP16, literal(-8)))
        CFI (cfiCond26) V11 load(1, XDATA, add(CFA_XSP16, literal(-7)))
        CFI (cfiCond26) R7 load(1, XDATA, add(CFA_XSP16, literal(-6)))
        CFI (cfiCond26) ?RET_LOW load(1, XDATA, add(CFA_XSP16, literal(-5)))
        CFI (cfiCond26) ?RET_HIGH load(1, XDATA, add(CFA_XSP16, literal(-4)))
        CFI (cfiCond26) ?BRET_EXT load(1, XDATA, add(CFA_XSP16, literal(-3)))
        CFI (cfiCond26) DPL0 load(1, XDATA, add(CFA_XSP16, literal(-2)))
        CFI (cfiCond26) DPH0 load(1, XDATA, add(CFA_XSP16, literal(-1)))
        CFI (cfiCond26) CFA_SP SP+0
        CFI (cfiCond26) CFA_XSP16 add(XSP16, 46)
        CFI Block cfiPicker27 Using cfiCommon1
        CFI (cfiPicker27) NoFunction
        CFI (cfiPicker27) Picker
        MOV     A,?V0 + 4
        MOVX    @DPTR,A
        MOV     ?V0 + 4,?V0 + 0
        MOV     ?V0 + 5,?V0 + 1
        MOV     ?V0 + 6,?V0 + 2
        MOV     ?V0 + 7,?V0 + 3
        RET
        CFI EndBlock cfiCond25
        CFI EndBlock cfiCond26
        CFI EndBlock cfiPicker27

        RSEG BANKED_CODE:CODE:NOROOT(0)
?Subroutine28:
        CFI Block cfiCond28 Using cfiCommon0
        CFI NoFunction
        CFI Conditional ??CrossCallReturnLabel_44
        CFI R6 load(1, XDATA, add(CFA_XSP16, literal(-20)))
        CFI VB load(1, XDATA, add(CFA_XSP16, literal(-19)))
        CFI V0 load(1, XDATA, add(CFA_XSP16, literal(-18)))
        CFI V1 load(1, XDATA, add(CFA_XSP16, literal(-17)))
        CFI V2 load(1, XDATA, add(CFA_XSP16, literal(-16)))
        CFI V3 load(1, XDATA, add(CFA_XSP16, literal(-15)))
        CFI V4 load(1, XDATA, add(CFA_XSP16, literal(-14)))
        CFI V5 load(1, XDATA, add(CFA_XSP16, literal(-13)))
        CFI V6 load(1, XDATA, add(CFA_XSP16, literal(-12)))
        CFI V7 load(1, XDATA, add(CFA_XSP16, literal(-11)))
        CFI V8 load(1, XDATA, add(CFA_XSP16, literal(-10)))
        CFI V9 load(1, XDATA, add(CFA_XSP16, literal(-9)))
        CFI V10 load(1, XDATA, add(CFA_XSP16, literal(-8)))
        CFI V11 load(1, XDATA, add(CFA_XSP16, literal(-7)))
        CFI R7 load(1, XDATA, add(CFA_XSP16, literal(-6)))
        CFI ?RET_LOW load(1, XDATA, add(CFA_XSP16, literal(-5)))
        CFI ?RET_HIGH load(1, XDATA, add(CFA_XSP16, literal(-4)))
        CFI ?BRET_EXT load(1, XDATA, add(CFA_XSP16, literal(-3)))
        CFI DPL0 load(1, XDATA, add(CFA_XSP16, literal(-2)))
        CFI DPH0 load(1, XDATA, add(CFA_XSP16, literal(-1)))
        CFI CFA_SP SP+0
        CFI CFA_XSP16 add(XSP16, 46)
        CFI Block cfiCond29 Using cfiCommon0
        CFI (cfiCond29) NoFunction
        CFI (cfiCond29) Conditional ??CrossCallReturnLabel_45
        CFI (cfiCond29) R6 load(1, XDATA, add(CFA_XSP16, literal(-20)))
        CFI (cfiCond29) VB load(1, XDATA, add(CFA_XSP16, literal(-19)))
        CFI (cfiCond29) V0 load(1, XDATA, add(CFA_XSP16, literal(-18)))
        CFI (cfiCond29) V1 load(1, XDATA, add(CFA_XSP16, literal(-17)))
        CFI (cfiCond29) V2 load(1, XDATA, add(CFA_XSP16, literal(-16)))
        CFI (cfiCond29) V3 load(1, XDATA, add(CFA_XSP16, literal(-15)))
        CFI (cfiCond29) V4 load(1, XDATA, add(CFA_XSP16, literal(-14)))
        CFI (cfiCond29) V5 load(1, XDATA, add(CFA_XSP16, literal(-13)))
        CFI (cfiCond29) V6 load(1, XDATA, add(CFA_XSP16, literal(-12)))
        CFI (cfiCond29) V7 load(1, XDATA, add(CFA_XSP16, literal(-11)))
        CFI (cfiCond29) V8 load(1, XDATA, add(CFA_XSP16, literal(-10)))
        CFI (cfiCond29) V9 load(1, XDATA, add(CFA_XSP16, literal(-9)))
        CFI (cfiCond29) V10 load(1, XDATA, add(CFA_XSP16, literal(-8)))
        CFI (cfiCond29) V11 load(1, XDATA, add(CFA_XSP16, literal(-7)))
        CFI (cfiCond29) R7 load(1, XDATA, add(CFA_XSP16, literal(-6)))
        CFI (cfiCond29) ?RET_LOW load(1, XDATA, add(CFA_XSP16, literal(-5)))
        CFI (cfiCond29) ?RET_HIGH load(1, XDATA, add(CFA_XSP16, literal(-4)))
        CFI (cfiCond29) ?BRET_EXT load(1, XDATA, add(CFA_XSP16, literal(-3)))
        CFI (cfiCond29) DPL0 load(1, XDATA, add(CFA_XSP16, literal(-2)))
        CFI (cfiCond29) DPH0 load(1, XDATA, add(CFA_XSP16, literal(-1)))
        CFI (cfiCond29) CFA_SP SP+0
        CFI (cfiCond29) CFA_XSP16 add(XSP16, 46)
        CFI Block cfiCond30 Using cfiCommon0
        CFI (cfiCond30) NoFunction
        CFI (cfiCond30) Conditional ??CrossCallReturnLabel_46
        CFI (cfiCond30) R6 load(1, XDATA, add(CFA_XSP16, literal(-20)))
        CFI (cfiCond30) VB load(1, XDATA, add(CFA_XSP16, literal(-19)))
        CFI (cfiCond30) V0 load(1, XDATA, add(CFA_XSP16, literal(-18)))
        CFI (cfiCond30) V1 load(1, XDATA, add(CFA_XSP16, literal(-17)))
        CFI (cfiCond30) V2 load(1, XDATA, add(CFA_XSP16, literal(-16)))
        CFI (cfiCond30) V3 load(1, XDATA, add(CFA_XSP16, literal(-15)))
        CFI (cfiCond30) V4 load(1, XDATA, add(CFA_XSP16, literal(-14)))
        CFI (cfiCond30) V5 load(1, XDATA, add(CFA_XSP16, literal(-13)))
        CFI (cfiCond30) V6 load(1, XDATA, add(CFA_XSP16, literal(-12)))
        CFI (cfiCond30) V7 load(1, XDATA, add(CFA_XSP16, literal(-11)))
        CFI (cfiCond30) V8 load(1, XDATA, add(CFA_XSP16, literal(-10)))
        CFI (cfiCond30) V9 load(1, XDATA, add(CFA_XSP16, literal(-9)))
        CFI (cfiCond30) V10 load(1, XDATA, add(CFA_XSP16, literal(-8)))
        CFI (cfiCond30) V11 load(1, XDATA, add(CFA_XSP16, literal(-7)))
        CFI (cfiCond30) R7 load(1, XDATA, add(CFA_XSP16, literal(-6)))
        CFI (cfiCond30) ?RET_LOW load(1, XDATA, add(CFA_XSP16, literal(-5)))
        CFI (cfiCond30) ?RET_HIGH load(1, XDATA, add(CFA_XSP16, literal(-4)))
        CFI (cfiCond30) ?BRET_EXT load(1, XDATA, add(CFA_XSP16, literal(-3)))
        CFI (cfiCond30) DPL0 load(1, XDATA, add(CFA_XSP16, literal(-2)))
        CFI (cfiCond30) DPH0 load(1, XDATA, add(CFA_XSP16, literal(-1)))
        CFI (cfiCond30) CFA_SP SP+0
        CFI (cfiCond30) CFA_XSP16 add(XSP16, 46)
        CFI Block cfiPicker31 Using cfiCommon1
        CFI (cfiPicker31) NoFunction
        CFI (cfiPicker31) Picker
        MOV     A,?V0 + 4
        LCALL   ?Subroutine35 & 0xFFFF
??CrossCallReturnLabel_91:
        MOV     R0,#?V0 + 4
        RET
        CFI EndBlock cfiCond28
        CFI EndBlock cfiCond29
        CFI EndBlock cfiCond30
        CFI EndBlock cfiPicker31

        RSEG BANKED_CODE:CODE:NOROOT(0)
?Subroutine11:
        CFI Block cfiCond32 Using cfiCommon0
        CFI NoFunction
        CFI Conditional ??CrossCallReturnLabel_77
        CFI R6 load(1, XDATA, add(CFA_XSP16, literal(-16)))
        CFI VB load(1, XDATA, add(CFA_XSP16, literal(-15)))
        CFI V0 load(1, XDATA, add(CFA_XSP16, literal(-14)))
        CFI V1 load(1, XDATA, add(CFA_XSP16, literal(-13)))
        CFI V2 load(1, XDATA, add(CFA_XSP16, literal(-12)))
        CFI V3 load(1, XDATA, add(CFA_XSP16, literal(-11)))
        CFI V4 load(1, XDATA, add(CFA_XSP16, literal(-10)))
        CFI V5 load(1, XDATA, add(CFA_XSP16, literal(-9)))
        CFI V6 load(1, XDATA, add(CFA_XSP16, literal(-8)))
        CFI V7 load(1, XDATA, add(CFA_XSP16, literal(-7)))
        CFI R7 load(1, XDATA, add(CFA_XSP16, literal(-6)))
        CFI ?RET_LOW load(1, XDATA, add(CFA_XSP16, literal(-5)))
        CFI ?RET_HIGH load(1, XDATA, add(CFA_XSP16, literal(-4)))
        CFI ?BRET_EXT load(1, XDATA, add(CFA_XSP16, literal(-3)))
        CFI DPL0 load(1, XDATA, add(CFA_XSP16, literal(-2)))
        CFI DPH0 load(1, XDATA, add(CFA_XSP16, literal(-1)))
        CFI CFA_SP SP+0
        CFI CFA_XSP16 add(XSP16, 32)
        CFI Block cfiCond33 Using cfiCommon0
        CFI (cfiCond33) NoFunction
        CFI (cfiCond33) Conditional ??CrossCallReturnLabel_78
        CFI (cfiCond33) R6 load(1, XDATA, add(CFA_XSP16, literal(-20)))
        CFI (cfiCond33) VB load(1, XDATA, add(CFA_XSP16, literal(-19)))
        CFI (cfiCond33) V0 load(1, XDATA, add(CFA_XSP16, literal(-18)))
        CFI (cfiCond33) V1 load(1, XDATA, add(CFA_XSP16, literal(-17)))
        CFI (cfiCond33) V2 load(1, XDATA, add(CFA_XSP16, literal(-16)))
        CFI (cfiCond33) V3 load(1, XDATA, add(CFA_XSP16, literal(-15)))
        CFI (cfiCond33) V4 load(1, XDATA, add(CFA_XSP16, literal(-14)))
        CFI (cfiCond33) V5 load(1, XDATA, add(CFA_XSP16, literal(-13)))
        CFI (cfiCond33) V6 load(1, XDATA, add(CFA_XSP16, literal(-12)))
        CFI (cfiCond33) V7 load(1, XDATA, add(CFA_XSP16, literal(-11)))
        CFI (cfiCond33) V8 load(1, XDATA, add(CFA_XSP16, literal(-10)))
        CFI (cfiCond33) V9 load(1, XDATA, add(CFA_XSP16, literal(-9)))
        CFI (cfiCond33) V10 load(1, XDATA, add(CFA_XSP16, literal(-8)))
        CFI (cfiCond33) V11 load(1, XDATA, add(CFA_XSP16, literal(-7)))
        CFI (cfiCond33) R7 load(1, XDATA, add(CFA_XSP16, literal(-6)))
        CFI (cfiCond33) ?RET_LOW load(1, XDATA, add(CFA_XSP16, literal(-5)))
        CFI (cfiCond33) ?RET_HIGH load(1, XDATA, add(CFA_XSP16, literal(-4)))
        CFI (cfiCond33) ?BRET_EXT load(1, XDATA, add(CFA_XSP16, literal(-3)))
        CFI (cfiCond33) DPL0 load(1, XDATA, add(CFA_XSP16, literal(-2)))
        CFI (cfiCond33) DPH0 load(1, XDATA, add(CFA_XSP16, literal(-1)))
        CFI (cfiCond33) CFA_SP SP+0
        CFI (cfiCond33) CFA_XSP16 add(XSP16, 46)
        CFI Block cfiPicker34 Using cfiCommon1
        CFI (cfiPicker34) NoFunction
        CFI (cfiPicker34) Picker
        MOV     DPTR,#dmp + 4
        MOVX    A,@DPTR
        MOV     R6,A
        INC     DPTR
        MOVX    A,@DPTR
        MOV     R7,A
        MOV     A,R6
        SWAP    A
        ANL     A,#0xf
        ANL     A,#0xfc
        MOV     R0,A
        MOV     A,?V0 + 0
        ADD     A,R0
        CFI EndBlock cfiCond32
        CFI EndBlock cfiCond33
        CFI EndBlock cfiPicker34
        REQUIRE ??Subroutine43_0
        ; // Fall through to label ??Subroutine43_0

        RSEG BANKED_CODE:CODE:NOROOT(0)
??Subroutine43_0:
        CFI Block cfiCond35 Using cfiCommon0
        CFI NoFunction
        CFI Conditional ??CrossCallReturnLabel_74
        CFI R6 load(1, XDATA, add(CFA_XSP16, literal(-16)))
        CFI VB load(1, XDATA, add(CFA_XSP16, literal(-15)))
        CFI V0 load(1, XDATA, add(CFA_XSP16, literal(-14)))
        CFI V1 load(1, XDATA, add(CFA_XSP16, literal(-13)))
        CFI V2 load(1, XDATA, add(CFA_XSP16, literal(-12)))
        CFI V3 load(1, XDATA, add(CFA_XSP16, literal(-11)))
        CFI V4 load(1, XDATA, add(CFA_XSP16, literal(-10)))
        CFI V5 load(1, XDATA, add(CFA_XSP16, literal(-9)))
        CFI V6 load(1, XDATA, add(CFA_XSP16, literal(-8)))
        CFI V7 load(1, XDATA, add(CFA_XSP16, literal(-7)))
        CFI R7 load(1, XDATA, add(CFA_XSP16, literal(-6)))
        CFI ?RET_LOW load(1, XDATA, add(CFA_XSP16, literal(-5)))
        CFI ?RET_HIGH load(1, XDATA, add(CFA_XSP16, literal(-4)))
        CFI ?BRET_EXT load(1, XDATA, add(CFA_XSP16, literal(-3)))
        CFI DPL0 load(1, XDATA, add(CFA_XSP16, literal(-2)))
        CFI DPH0 load(1, XDATA, add(CFA_XSP16, literal(-1)))
        CFI CFA_SP SP+0
        CFI CFA_XSP16 add(XSP16, 32)
        CFI Block cfiCond36 Using cfiCommon0
        CFI (cfiCond36) NoFunction
        CFI (cfiCond36) Conditional ??CrossCallReturnLabel_75
        CFI (cfiCond36) R6 load(1, XDATA, add(CFA_XSP16, literal(-20)))
        CFI (cfiCond36) VB load(1, XDATA, add(CFA_XSP16, literal(-19)))
        CFI (cfiCond36) V0 load(1, XDATA, add(CFA_XSP16, literal(-18)))
        CFI (cfiCond36) V1 load(1, XDATA, add(CFA_XSP16, literal(-17)))
        CFI (cfiCond36) V2 load(1, XDATA, add(CFA_XSP16, literal(-16)))
        CFI (cfiCond36) V3 load(1, XDATA, add(CFA_XSP16, literal(-15)))
        CFI (cfiCond36) V4 load(1, XDATA, add(CFA_XSP16, literal(-14)))
        CFI (cfiCond36) V5 load(1, XDATA, add(CFA_XSP16, literal(-13)))
        CFI (cfiCond36) V6 load(1, XDATA, add(CFA_XSP16, literal(-12)))
        CFI (cfiCond36) V7 load(1, XDATA, add(CFA_XSP16, literal(-11)))
        CFI (cfiCond36) V8 load(1, XDATA, add(CFA_XSP16, literal(-10)))
        CFI (cfiCond36) V9 load(1, XDATA, add(CFA_XSP16, literal(-9)))
        CFI (cfiCond36) V10 load(1, XDATA, add(CFA_XSP16, literal(-8)))
        CFI (cfiCond36) V11 load(1, XDATA, add(CFA_XSP16, literal(-7)))
        CFI (cfiCond36) R7 load(1, XDATA, add(CFA_XSP16, literal(-6)))
        CFI (cfiCond36) ?RET_LOW load(1, XDATA, add(CFA_XSP16, literal(-5)))
        CFI (cfiCond36) ?RET_HIGH load(1, XDATA, add(CFA_XSP16, literal(-4)))
        CFI (cfiCond36) ?BRET_EXT load(1, XDATA, add(CFA_XSP16, literal(-3)))
        CFI (cfiCond36) DPL0 load(1, XDATA, add(CFA_XSP16, literal(-2)))
        CFI (cfiCond36) DPH0 load(1, XDATA, add(CFA_XSP16, literal(-1)))
        CFI (cfiCond36) CFA_SP SP+0
        CFI (cfiCond36) CFA_XSP16 add(XSP16, 46)
        CFI Block cfiCond37 Using cfiCommon0
        CFI (cfiCond37) NoFunction
        CFI (cfiCond37) Conditional ??CrossCallReturnLabel_76
        CFI (cfiCond37) R6 load(1, XDATA, add(CFA_XSP16, literal(-20)))
        CFI (cfiCond37) VB load(1, XDATA, add(CFA_XSP16, literal(-19)))
        CFI (cfiCond37) V0 load(1, XDATA, add(CFA_XSP16, literal(-18)))
        CFI (cfiCond37) V1 load(1, XDATA, add(CFA_XSP16, literal(-17)))
        CFI (cfiCond37) V2 load(1, XDATA, add(CFA_XSP16, literal(-16)))
        CFI (cfiCond37) V3 load(1, XDATA, add(CFA_XSP16, literal(-15)))
        CFI (cfiCond37) V4 load(1, XDATA, add(CFA_XSP16, literal(-14)))
        CFI (cfiCond37) V5 load(1, XDATA, add(CFA_XSP16, literal(-13)))
        CFI (cfiCond37) V6 load(1, XDATA, add(CFA_XSP16, literal(-12)))
        CFI (cfiCond37) V7 load(1, XDATA, add(CFA_XSP16, literal(-11)))
        CFI (cfiCond37) V8 load(1, XDATA, add(CFA_XSP16, literal(-10)))
        CFI (cfiCond37) V9 load(1, XDATA, add(CFA_XSP16, literal(-9)))
        CFI (cfiCond37) V10 load(1, XDATA, add(CFA_XSP16, literal(-8)))
        CFI (cfiCond37) V11 load(1, XDATA, add(CFA_XSP16, literal(-7)))
        CFI (cfiCond37) R7 load(1, XDATA, add(CFA_XSP16, literal(-6)))
        CFI (cfiCond37) ?RET_LOW load(1, XDATA, add(CFA_XSP16, literal(-5)))
        CFI (cfiCond37) ?RET_HIGH load(1, XDATA, add(CFA_XSP16, literal(-4)))
        CFI (cfiCond37) ?BRET_EXT load(1, XDATA, add(CFA_XSP16, literal(-3)))
        CFI (cfiCond37) DPL0 load(1, XDATA, add(CFA_XSP16, literal(-2)))
        CFI (cfiCond37) DPH0 load(1, XDATA, add(CFA_XSP16, literal(-1)))
        CFI (cfiCond37) CFA_SP SP+0
        CFI (cfiCond37) CFA_XSP16 add(XSP16, 46)
        CFI Block cfiCond38 Using cfiCommon0
        CFI (cfiCond38) NoFunction
        CFI (cfiCond38) Conditional ??CrossCallReturnLabel_77
        CFI (cfiCond38) R6 load(1, XDATA, add(CFA_XSP16, literal(-16)))
        CFI (cfiCond38) VB load(1, XDATA, add(CFA_XSP16, literal(-15)))
        CFI (cfiCond38) V0 load(1, XDATA, add(CFA_XSP16, literal(-14)))
        CFI (cfiCond38) V1 load(1, XDATA, add(CFA_XSP16, literal(-13)))
        CFI (cfiCond38) V2 load(1, XDATA, add(CFA_XSP16, literal(-12)))
        CFI (cfiCond38) V3 load(1, XDATA, add(CFA_XSP16, literal(-11)))
        CFI (cfiCond38) V4 load(1, XDATA, add(CFA_XSP16, literal(-10)))
        CFI (cfiCond38) V5 load(1, XDATA, add(CFA_XSP16, literal(-9)))
        CFI (cfiCond38) V6 load(1, XDATA, add(CFA_XSP16, literal(-8)))
        CFI (cfiCond38) V7 load(1, XDATA, add(CFA_XSP16, literal(-7)))
        CFI (cfiCond38) R7 load(1, XDATA, add(CFA_XSP16, literal(-6)))
        CFI (cfiCond38) ?RET_LOW load(1, XDATA, add(CFA_XSP16, literal(-5)))
        CFI (cfiCond38) ?RET_HIGH load(1, XDATA, add(CFA_XSP16, literal(-4)))
        CFI (cfiCond38) ?BRET_EXT load(1, XDATA, add(CFA_XSP16, literal(-3)))
        CFI (cfiCond38) DPL0 load(1, XDATA, add(CFA_XSP16, literal(-2)))
        CFI (cfiCond38) DPH0 load(1, XDATA, add(CFA_XSP16, literal(-1)))
        CFI (cfiCond38) CFA_SP SP+0
        CFI (cfiCond38) CFA_XSP16 add(XSP16, 32)
        CFI Block cfiCond39 Using cfiCommon0
        CFI (cfiCond39) NoFunction
        CFI (cfiCond39) Conditional ??CrossCallReturnLabel_78
        CFI (cfiCond39) R6 load(1, XDATA, add(CFA_XSP16, literal(-20)))
        CFI (cfiCond39) VB load(1, XDATA, add(CFA_XSP16, literal(-19)))
        CFI (cfiCond39) V0 load(1, XDATA, add(CFA_XSP16, literal(-18)))
        CFI (cfiCond39) V1 load(1, XDATA, add(CFA_XSP16, literal(-17)))
        CFI (cfiCond39) V2 load(1, XDATA, add(CFA_XSP16, literal(-16)))
        CFI (cfiCond39) V3 load(1, XDATA, add(CFA_XSP16, literal(-15)))
        CFI (cfiCond39) V4 load(1, XDATA, add(CFA_XSP16, literal(-14)))
        CFI (cfiCond39) V5 load(1, XDATA, add(CFA_XSP16, literal(-13)))
        CFI (cfiCond39) V6 load(1, XDATA, add(CFA_XSP16, literal(-12)))
        CFI (cfiCond39) V7 load(1, XDATA, add(CFA_XSP16, literal(-11)))
        CFI (cfiCond39) V8 load(1, XDATA, add(CFA_XSP16, literal(-10)))
        CFI (cfiCond39) V9 load(1, XDATA, add(CFA_XSP16, literal(-9)))
        CFI (cfiCond39) V10 load(1, XDATA, add(CFA_XSP16, literal(-8)))
        CFI (cfiCond39) V11 load(1, XDATA, add(CFA_XSP16, literal(-7)))
        CFI (cfiCond39) R7 load(1, XDATA, add(CFA_XSP16, literal(-6)))
        CFI (cfiCond39) ?RET_LOW load(1, XDATA, add(CFA_XSP16, literal(-5)))
        CFI (cfiCond39) ?RET_HIGH load(1, XDATA, add(CFA_XSP16, literal(-4)))
        CFI (cfiCond39) ?BRET_EXT load(1, XDATA, add(CFA_XSP16, literal(-3)))
        CFI (cfiCond39) DPL0 load(1, XDATA, add(CFA_XSP16, literal(-2)))
        CFI (cfiCond39) DPH0 load(1, XDATA, add(CFA_XSP16, literal(-1)))
        CFI (cfiCond39) CFA_SP SP+0
        CFI (cfiCond39) CFA_XSP16 add(XSP16, 46)
        CFI Block cfiPicker40 Using cfiCommon1
        CFI (cfiPicker40) NoFunction
        CFI (cfiPicker40) Picker
        MOV     DPL,A
        MOV     A,?V0 + 1
        CFI EndBlock cfiCond35
        CFI EndBlock cfiCond36
        CFI EndBlock cfiCond37
        CFI EndBlock cfiCond38
        CFI EndBlock cfiCond39
        CFI EndBlock cfiPicker40
        REQUIRE ??Subroutine44_0
        ; // Fall through to label ??Subroutine44_0

        RSEG BANKED_CODE:CODE:NOROOT(0)
??Subroutine44_0:
        CFI Block cfiCond41 Using cfiCommon0
        CFI NoFunction
        CFI Conditional ??CrossCallReturnLabel_73
        CFI R6 load(1, XDATA, add(CFA_XSP16, literal(-16)))
        CFI VB load(1, XDATA, add(CFA_XSP16, literal(-15)))
        CFI V0 load(1, XDATA, add(CFA_XSP16, literal(-14)))
        CFI V1 load(1, XDATA, add(CFA_XSP16, literal(-13)))
        CFI V2 load(1, XDATA, add(CFA_XSP16, literal(-12)))
        CFI V3 load(1, XDATA, add(CFA_XSP16, literal(-11)))
        CFI V4 load(1, XDATA, add(CFA_XSP16, literal(-10)))
        CFI V5 load(1, XDATA, add(CFA_XSP16, literal(-9)))
        CFI V6 load(1, XDATA, add(CFA_XSP16, literal(-8)))
        CFI V7 load(1, XDATA, add(CFA_XSP16, literal(-7)))
        CFI R7 load(1, XDATA, add(CFA_XSP16, literal(-6)))
        CFI ?RET_LOW load(1, XDATA, add(CFA_XSP16, literal(-5)))
        CFI ?RET_HIGH load(1, XDATA, add(CFA_XSP16, literal(-4)))
        CFI ?BRET_EXT load(1, XDATA, add(CFA_XSP16, literal(-3)))
        CFI DPL0 load(1, XDATA, add(CFA_XSP16, literal(-2)))
        CFI DPH0 load(1, XDATA, add(CFA_XSP16, literal(-1)))
        CFI CFA_SP SP+0
        CFI CFA_XSP16 add(XSP16, 32)
        CFI Block cfiCond42 Using cfiCommon0
        CFI (cfiCond42) NoFunction
        CFI (cfiCond42) Conditional ??CrossCallReturnLabel_74
        CFI (cfiCond42) R6 load(1, XDATA, add(CFA_XSP16, literal(-16)))
        CFI (cfiCond42) VB load(1, XDATA, add(CFA_XSP16, literal(-15)))
        CFI (cfiCond42) V0 load(1, XDATA, add(CFA_XSP16, literal(-14)))
        CFI (cfiCond42) V1 load(1, XDATA, add(CFA_XSP16, literal(-13)))
        CFI (cfiCond42) V2 load(1, XDATA, add(CFA_XSP16, literal(-12)))
        CFI (cfiCond42) V3 load(1, XDATA, add(CFA_XSP16, literal(-11)))
        CFI (cfiCond42) V4 load(1, XDATA, add(CFA_XSP16, literal(-10)))
        CFI (cfiCond42) V5 load(1, XDATA, add(CFA_XSP16, literal(-9)))
        CFI (cfiCond42) V6 load(1, XDATA, add(CFA_XSP16, literal(-8)))
        CFI (cfiCond42) V7 load(1, XDATA, add(CFA_XSP16, literal(-7)))
        CFI (cfiCond42) R7 load(1, XDATA, add(CFA_XSP16, literal(-6)))
        CFI (cfiCond42) ?RET_LOW load(1, XDATA, add(CFA_XSP16, literal(-5)))
        CFI (cfiCond42) ?RET_HIGH load(1, XDATA, add(CFA_XSP16, literal(-4)))
        CFI (cfiCond42) ?BRET_EXT load(1, XDATA, add(CFA_XSP16, literal(-3)))
        CFI (cfiCond42) DPL0 load(1, XDATA, add(CFA_XSP16, literal(-2)))
        CFI (cfiCond42) DPH0 load(1, XDATA, add(CFA_XSP16, literal(-1)))
        CFI (cfiCond42) CFA_SP SP+0
        CFI (cfiCond42) CFA_XSP16 add(XSP16, 32)
        CFI Block cfiCond43 Using cfiCommon0
        CFI (cfiCond43) NoFunction
        CFI (cfiCond43) Conditional ??CrossCallReturnLabel_75
        CFI (cfiCond43) R6 load(1, XDATA, add(CFA_XSP16, literal(-20)))
        CFI (cfiCond43) VB load(1, XDATA, add(CFA_XSP16, literal(-19)))
        CFI (cfiCond43) V0 load(1, XDATA, add(CFA_XSP16, literal(-18)))
        CFI (cfiCond43) V1 load(1, XDATA, add(CFA_XSP16, literal(-17)))
        CFI (cfiCond43) V2 load(1, XDATA, add(CFA_XSP16, literal(-16)))
        CFI (cfiCond43) V3 load(1, XDATA, add(CFA_XSP16, literal(-15)))
        CFI (cfiCond43) V4 load(1, XDATA, add(CFA_XSP16, literal(-14)))
        CFI (cfiCond43) V5 load(1, XDATA, add(CFA_XSP16, literal(-13)))
        CFI (cfiCond43) V6 load(1, XDATA, add(CFA_XSP16, literal(-12)))
        CFI (cfiCond43) V7 load(1, XDATA, add(CFA_XSP16, literal(-11)))
        CFI (cfiCond43) V8 load(1, XDATA, add(CFA_XSP16, literal(-10)))
        CFI (cfiCond43) V9 load(1, XDATA, add(CFA_XSP16, literal(-9)))
        CFI (cfiCond43) V10 load(1, XDATA, add(CFA_XSP16, literal(-8)))
        CFI (cfiCond43) V11 load(1, XDATA, add(CFA_XSP16, literal(-7)))
        CFI (cfiCond43) R7 load(1, XDATA, add(CFA_XSP16, literal(-6)))
        CFI (cfiCond43) ?RET_LOW load(1, XDATA, add(CFA_XSP16, literal(-5)))
        CFI (cfiCond43) ?RET_HIGH load(1, XDATA, add(CFA_XSP16, literal(-4)))
        CFI (cfiCond43) ?BRET_EXT load(1, XDATA, add(CFA_XSP16, literal(-3)))
        CFI (cfiCond43) DPL0 load(1, XDATA, add(CFA_XSP16, literal(-2)))
        CFI (cfiCond43) DPH0 load(1, XDATA, add(CFA_XSP16, literal(-1)))
        CFI (cfiCond43) CFA_SP SP+0
        CFI (cfiCond43) CFA_XSP16 add(XSP16, 46)
        CFI Block cfiCond44 Using cfiCommon0
        CFI (cfiCond44) NoFunction
        CFI (cfiCond44) Conditional ??CrossCallReturnLabel_76
        CFI (cfiCond44) R6 load(1, XDATA, add(CFA_XSP16, literal(-20)))
        CFI (cfiCond44) VB load(1, XDATA, add(CFA_XSP16, literal(-19)))
        CFI (cfiCond44) V0 load(1, XDATA, add(CFA_XSP16, literal(-18)))
        CFI (cfiCond44) V1 load(1, XDATA, add(CFA_XSP16, literal(-17)))
        CFI (cfiCond44) V2 load(1, XDATA, add(CFA_XSP16, literal(-16)))
        CFI (cfiCond44) V3 load(1, XDATA, add(CFA_XSP16, literal(-15)))
        CFI (cfiCond44) V4 load(1, XDATA, add(CFA_XSP16, literal(-14)))
        CFI (cfiCond44) V5 load(1, XDATA, add(CFA_XSP16, literal(-13)))
        CFI (cfiCond44) V6 load(1, XDATA, add(CFA_XSP16, literal(-12)))
        CFI (cfiCond44) V7 load(1, XDATA, add(CFA_XSP16, literal(-11)))
        CFI (cfiCond44) V8 load(1, XDATA, add(CFA_XSP16, literal(-10)))
        CFI (cfiCond44) V9 load(1, XDATA, add(CFA_XSP16, literal(-9)))
        CFI (cfiCond44) V10 load(1, XDATA, add(CFA_XSP16, literal(-8)))
        CFI (cfiCond44) V11 load(1, XDATA, add(CFA_XSP16, literal(-7)))
        CFI (cfiCond44) R7 load(1, XDATA, add(CFA_XSP16, literal(-6)))
        CFI (cfiCond44) ?RET_LOW load(1, XDATA, add(CFA_XSP16, literal(-5)))
        CFI (cfiCond44) ?RET_HIGH load(1, XDATA, add(CFA_XSP16, literal(-4)))
        CFI (cfiCond44) ?BRET_EXT load(1, XDATA, add(CFA_XSP16, literal(-3)))
        CFI (cfiCond44) DPL0 load(1, XDATA, add(CFA_XSP16, literal(-2)))
        CFI (cfiCond44) DPH0 load(1, XDATA, add(CFA_XSP16, literal(-1)))
        CFI (cfiCond44) CFA_SP SP+0
        CFI (cfiCond44) CFA_XSP16 add(XSP16, 46)
        CFI Block cfiCond45 Using cfiCommon0
        CFI (cfiCond45) NoFunction
        CFI (cfiCond45) Conditional ??CrossCallReturnLabel_77
        CFI (cfiCond45) R6 load(1, XDATA, add(CFA_XSP16, literal(-16)))
        CFI (cfiCond45) VB load(1, XDATA, add(CFA_XSP16, literal(-15)))
        CFI (cfiCond45) V0 load(1, XDATA, add(CFA_XSP16, literal(-14)))
        CFI (cfiCond45) V1 load(1, XDATA, add(CFA_XSP16, literal(-13)))
        CFI (cfiCond45) V2 load(1, XDATA, add(CFA_XSP16, literal(-12)))
        CFI (cfiCond45) V3 load(1, XDATA, add(CFA_XSP16, literal(-11)))
        CFI (cfiCond45) V4 load(1, XDATA, add(CFA_XSP16, literal(-10)))
        CFI (cfiCond45) V5 load(1, XDATA, add(CFA_XSP16, literal(-9)))
        CFI (cfiCond45) V6 load(1, XDATA, add(CFA_XSP16, literal(-8)))
        CFI (cfiCond45) V7 load(1, XDATA, add(CFA_XSP16, literal(-7)))
        CFI (cfiCond45) R7 load(1, XDATA, add(CFA_XSP16, literal(-6)))
        CFI (cfiCond45) ?RET_LOW load(1, XDATA, add(CFA_XSP16, literal(-5)))
        CFI (cfiCond45) ?RET_HIGH load(1, XDATA, add(CFA_XSP16, literal(-4)))
        CFI (cfiCond45) ?BRET_EXT load(1, XDATA, add(CFA_XSP16, literal(-3)))
        CFI (cfiCond45) DPL0 load(1, XDATA, add(CFA_XSP16, literal(-2)))
        CFI (cfiCond45) DPH0 load(1, XDATA, add(CFA_XSP16, literal(-1)))
        CFI (cfiCond45) CFA_SP SP+0
        CFI (cfiCond45) CFA_XSP16 add(XSP16, 32)
        CFI Block cfiCond46 Using cfiCommon0
        CFI (cfiCond46) NoFunction
        CFI (cfiCond46) Conditional ??CrossCallReturnLabel_78
        CFI (cfiCond46) R6 load(1, XDATA, add(CFA_XSP16, literal(-20)))
        CFI (cfiCond46) VB load(1, XDATA, add(CFA_XSP16, literal(-19)))
        CFI (cfiCond46) V0 load(1, XDATA, add(CFA_XSP16, literal(-18)))
        CFI (cfiCond46) V1 load(1, XDATA, add(CFA_XSP16, literal(-17)))
        CFI (cfiCond46) V2 load(1, XDATA, add(CFA_XSP16, literal(-16)))
        CFI (cfiCond46) V3 load(1, XDATA, add(CFA_XSP16, literal(-15)))
        CFI (cfiCond46) V4 load(1, XDATA, add(CFA_XSP16, literal(-14)))
        CFI (cfiCond46) V5 load(1, XDATA, add(CFA_XSP16, literal(-13)))
        CFI (cfiCond46) V6 load(1, XDATA, add(CFA_XSP16, literal(-12)))
        CFI (cfiCond46) V7 load(1, XDATA, add(CFA_XSP16, literal(-11)))
        CFI (cfiCond46) V8 load(1, XDATA, add(CFA_XSP16, literal(-10)))
        CFI (cfiCond46) V9 load(1, XDATA, add(CFA_XSP16, literal(-9)))
        CFI (cfiCond46) V10 load(1, XDATA, add(CFA_XSP16, literal(-8)))
        CFI (cfiCond46) V11 load(1, XDATA, add(CFA_XSP16, literal(-7)))
        CFI (cfiCond46) R7 load(1, XDATA, add(CFA_XSP16, literal(-6)))
        CFI (cfiCond46) ?RET_LOW load(1, XDATA, add(CFA_XSP16, literal(-5)))
        CFI (cfiCond46) ?RET_HIGH load(1, XDATA, add(CFA_XSP16, literal(-4)))
        CFI (cfiCond46) ?BRET_EXT load(1, XDATA, add(CFA_XSP16, literal(-3)))
        CFI (cfiCond46) DPL0 load(1, XDATA, add(CFA_XSP16, literal(-2)))
        CFI (cfiCond46) DPH0 load(1, XDATA, add(CFA_XSP16, literal(-1)))
        CFI (cfiCond46) CFA_SP SP+0
        CFI (cfiCond46) CFA_XSP16 add(XSP16, 46)
        CFI Block cfiPicker47 Using cfiCommon1
        CFI (cfiPicker47) NoFunction
        CFI (cfiPicker47) Picker
        ADDC    A,#0x0
        MOV     DPH,A
        RET
        CFI EndBlock cfiCond41
        CFI EndBlock cfiCond42
        CFI EndBlock cfiCond43
        CFI EndBlock cfiCond44
        CFI EndBlock cfiCond45
        CFI EndBlock cfiCond46
        CFI EndBlock cfiPicker47

        RSEG BANKED_CODE:CODE:NOROOT(0)
?Subroutine10:
        CFI Block cfiCond48 Using cfiCommon0
        CFI NoFunction
        CFI Conditional ??CrossCallReturnLabel_4
        CFI R6 load(1, XDATA, add(CFA_XSP16, literal(-16)))
        CFI VB load(1, XDATA, add(CFA_XSP16, literal(-15)))
        CFI V0 load(1, XDATA, add(CFA_XSP16, literal(-14)))
        CFI V1 load(1, XDATA, add(CFA_XSP16, literal(-13)))
        CFI V2 load(1, XDATA, add(CFA_XSP16, literal(-12)))
        CFI V3 load(1, XDATA, add(CFA_XSP16, literal(-11)))
        CFI V4 load(1, XDATA, add(CFA_XSP16, literal(-10)))
        CFI V5 load(1, XDATA, add(CFA_XSP16, literal(-9)))
        CFI V6 load(1, XDATA, add(CFA_XSP16, literal(-8)))
        CFI V7 load(1, XDATA, add(CFA_XSP16, literal(-7)))
        CFI R7 load(1, XDATA, add(CFA_XSP16, literal(-6)))
        CFI ?RET_LOW load(1, XDATA, add(CFA_XSP16, literal(-5)))
        CFI ?RET_HIGH load(1, XDATA, add(CFA_XSP16, literal(-4)))
        CFI ?BRET_EXT load(1, XDATA, add(CFA_XSP16, literal(-3)))
        CFI DPL0 load(1, XDATA, add(CFA_XSP16, literal(-2)))
        CFI DPH0 load(1, XDATA, add(CFA_XSP16, literal(-1)))
        CFI CFA_SP SP+0
        CFI CFA_XSP16 add(XSP16, 32)
        CFI Block cfiCond49 Using cfiCommon0
        CFI (cfiCond49) NoFunction
        CFI (cfiCond49) Conditional ??CrossCallReturnLabel_5
        CFI (cfiCond49) R6 load(1, XDATA, add(CFA_XSP16, literal(-20)))
        CFI (cfiCond49) VB load(1, XDATA, add(CFA_XSP16, literal(-19)))
        CFI (cfiCond49) V0 load(1, XDATA, add(CFA_XSP16, literal(-18)))
        CFI (cfiCond49) V1 load(1, XDATA, add(CFA_XSP16, literal(-17)))
        CFI (cfiCond49) V2 load(1, XDATA, add(CFA_XSP16, literal(-16)))
        CFI (cfiCond49) V3 load(1, XDATA, add(CFA_XSP16, literal(-15)))
        CFI (cfiCond49) V4 load(1, XDATA, add(CFA_XSP16, literal(-14)))
        CFI (cfiCond49) V5 load(1, XDATA, add(CFA_XSP16, literal(-13)))
        CFI (cfiCond49) V6 load(1, XDATA, add(CFA_XSP16, literal(-12)))
        CFI (cfiCond49) V7 load(1, XDATA, add(CFA_XSP16, literal(-11)))
        CFI (cfiCond49) V8 load(1, XDATA, add(CFA_XSP16, literal(-10)))
        CFI (cfiCond49) V9 load(1, XDATA, add(CFA_XSP16, literal(-9)))
        CFI (cfiCond49) V10 load(1, XDATA, add(CFA_XSP16, literal(-8)))
        CFI (cfiCond49) V11 load(1, XDATA, add(CFA_XSP16, literal(-7)))
        CFI (cfiCond49) R7 load(1, XDATA, add(CFA_XSP16, literal(-6)))
        CFI (cfiCond49) ?RET_LOW load(1, XDATA, add(CFA_XSP16, literal(-5)))
        CFI (cfiCond49) ?RET_HIGH load(1, XDATA, add(CFA_XSP16, literal(-4)))
        CFI (cfiCond49) ?BRET_EXT load(1, XDATA, add(CFA_XSP16, literal(-3)))
        CFI (cfiCond49) DPL0 load(1, XDATA, add(CFA_XSP16, literal(-2)))
        CFI (cfiCond49) DPH0 load(1, XDATA, add(CFA_XSP16, literal(-1)))
        CFI (cfiCond49) CFA_SP SP+0
        CFI (cfiCond49) CFA_XSP16 add(XSP16, 46)
        CFI Block cfiPicker50 Using cfiCommon1
        CFI (cfiPicker50) NoFunction
        CFI (cfiPicker50) Picker
        MOV     DPTR,#dmp + 4
        MOVX    A,@DPTR
        MOV     R6,A
        RRC     A
        RRC     A
        RRC     A
        ANL     A,#0x1f
        ANL     A,#0x3
        MOV     ?V0 + 2,A
        MOV     A,#0x2
        MOV     R0,#?V0 + 2
        RET
        CFI EndBlock cfiCond48
        CFI EndBlock cfiCond49
        CFI EndBlock cfiPicker50

        RSEG BANKED_CODE:CODE:NOROOT(0)
?Subroutine9:
        CFI Block cfiCond51 Using cfiCommon0
        CFI NoFunction
        CFI Conditional ??CrossCallReturnLabel_2
        CFI R6 load(1, XDATA, add(CFA_XSP16, literal(-16)))
        CFI VB load(1, XDATA, add(CFA_XSP16, literal(-15)))
        CFI V0 load(1, XDATA, add(CFA_XSP16, literal(-14)))
        CFI V1 load(1, XDATA, add(CFA_XSP16, literal(-13)))
        CFI V2 load(1, XDATA, add(CFA_XSP16, literal(-12)))
        CFI V3 load(1, XDATA, add(CFA_XSP16, literal(-11)))
        CFI V4 load(1, XDATA, add(CFA_XSP16, literal(-10)))
        CFI V5 load(1, XDATA, add(CFA_XSP16, literal(-9)))
        CFI V6 load(1, XDATA, add(CFA_XSP16, literal(-8)))
        CFI V7 load(1, XDATA, add(CFA_XSP16, literal(-7)))
        CFI R7 load(1, XDATA, add(CFA_XSP16, literal(-6)))
        CFI ?RET_LOW load(1, XDATA, add(CFA_XSP16, literal(-5)))
        CFI ?RET_HIGH load(1, XDATA, add(CFA_XSP16, literal(-4)))
        CFI ?BRET_EXT load(1, XDATA, add(CFA_XSP16, literal(-3)))
        CFI DPL0 load(1, XDATA, add(CFA_XSP16, literal(-2)))
        CFI DPH0 load(1, XDATA, add(CFA_XSP16, literal(-1)))
        CFI CFA_SP SP+0
        CFI CFA_XSP16 add(XSP16, 32)
        CFI Block cfiCond52 Using cfiCommon0
        CFI (cfiCond52) NoFunction
        CFI (cfiCond52) Conditional ??CrossCallReturnLabel_3
        CFI (cfiCond52) R6 load(1, XDATA, add(CFA_XSP16, literal(-20)))
        CFI (cfiCond52) VB load(1, XDATA, add(CFA_XSP16, literal(-19)))
        CFI (cfiCond52) V0 load(1, XDATA, add(CFA_XSP16, literal(-18)))
        CFI (cfiCond52) V1 load(1, XDATA, add(CFA_XSP16, literal(-17)))
        CFI (cfiCond52) V2 load(1, XDATA, add(CFA_XSP16, literal(-16)))
        CFI (cfiCond52) V3 load(1, XDATA, add(CFA_XSP16, literal(-15)))
        CFI (cfiCond52) V4 load(1, XDATA, add(CFA_XSP16, literal(-14)))
        CFI (cfiCond52) V5 load(1, XDATA, add(CFA_XSP16, literal(-13)))
        CFI (cfiCond52) V6 load(1, XDATA, add(CFA_XSP16, literal(-12)))
        CFI (cfiCond52) V7 load(1, XDATA, add(CFA_XSP16, literal(-11)))
        CFI (cfiCond52) V8 load(1, XDATA, add(CFA_XSP16, literal(-10)))
        CFI (cfiCond52) V9 load(1, XDATA, add(CFA_XSP16, literal(-9)))
        CFI (cfiCond52) V10 load(1, XDATA, add(CFA_XSP16, literal(-8)))
        CFI (cfiCond52) V11 load(1, XDATA, add(CFA_XSP16, literal(-7)))
        CFI (cfiCond52) R7 load(1, XDATA, add(CFA_XSP16, literal(-6)))
        CFI (cfiCond52) ?RET_LOW load(1, XDATA, add(CFA_XSP16, literal(-5)))
        CFI (cfiCond52) ?RET_HIGH load(1, XDATA, add(CFA_XSP16, literal(-4)))
        CFI (cfiCond52) ?BRET_EXT load(1, XDATA, add(CFA_XSP16, literal(-3)))
        CFI (cfiCond52) DPL0 load(1, XDATA, add(CFA_XSP16, literal(-2)))
        CFI (cfiCond52) DPH0 load(1, XDATA, add(CFA_XSP16, literal(-1)))
        CFI (cfiCond52) CFA_SP SP+0
        CFI (cfiCond52) CFA_XSP16 add(XSP16, 46)
        CFI Block cfiPicker53 Using cfiCommon1
        CFI (cfiPicker53) NoFunction
        CFI (cfiPicker53) Picker
        MOV     DPTR,#dmp + 4
        MOVX    A,@DPTR
        MOV     R6,A
        ANL     A,#0x3
        MOV     ?V0 + 2,A
        MOV     ?V0 + 3,#0x0
        MOV     A,#0x2
        MOV     R0,#?V0 + 2
        RET
        CFI EndBlock cfiCond51
        CFI EndBlock cfiCond52
        CFI EndBlock cfiPicker53
//  679 
//  680 /**
//  681  *  @brief      Set DMP output rate.
//  682  *  Only used when DMP is on.
//  683  *  @param[in]  rate    Desired fifo rate (Hz).
//  684  *  @return     0 if successful.
//  685  */

        RSEG BANKED_CODE:CODE:NOROOT(0)
//  686 int dmp_set_fifo_rate(unsigned short rate)
dmp_set_fifo_rate:
        CFI Block cfiBlock54 Using cfiCommon0
        CFI Function dmp_set_fifo_rate
        CODE
//  687 {
        FUNCALL dmp_set_fifo_rate, mpu_write_mem
        LOCFRAME ISTACK, 0, STACK
        LOCFRAME PSTACK, 0, STACK
        LOCFRAME XSTACK, 32, STACK
        LOCFRAME IOVERLAY, 0, STATIC
        LOCFRAME DOVERLAY, 0, STATIC
        ARGFRAME ISTACK, 0, STACK
        ARGFRAME PSTACK, 0, STACK
        ARGFRAME XSTACK, 32, STACK
        ARGFRAME IOVERLAY, 0, STATIC
        ARGFRAME DOVERLAY, 0, STATIC
        FUNCALL dmp_set_fifo_rate, mpu_write_mem
        LOCFRAME ISTACK, 0, STACK
        LOCFRAME PSTACK, 0, STACK
        LOCFRAME XSTACK, 32, STACK
        LOCFRAME IOVERLAY, 0, STATIC
        LOCFRAME DOVERLAY, 0, STATIC
        ARGFRAME ISTACK, 0, STACK
        ARGFRAME PSTACK, 0, STACK
        ARGFRAME XSTACK, 32, STACK
        ARGFRAME IOVERLAY, 0, STATIC
        ARGFRAME DOVERLAY, 0, STATIC
        MOV     A,#-0xa
        LCALL   ?BANKED_ENTER_XDATA
        CFI DPH0 load(1, XDATA, add(CFA_XSP16, literal(-1)))
        CFI DPL0 load(1, XDATA, add(CFA_XSP16, literal(-2)))
        CFI ?BRET_EXT load(1, XDATA, add(CFA_XSP16, literal(-3)))
        CFI ?RET_HIGH load(1, XDATA, add(CFA_XSP16, literal(-4)))
        CFI ?RET_LOW load(1, XDATA, add(CFA_XSP16, literal(-5)))
        CFI R7 load(1, XDATA, add(CFA_XSP16, literal(-6)))
        CFI V1 load(1, XDATA, add(CFA_XSP16, literal(-7)))
        CFI V0 load(1, XDATA, add(CFA_XSP16, literal(-8)))
        CFI VB load(1, XDATA, add(CFA_XSP16, literal(-9)))
        CFI R6 load(1, XDATA, add(CFA_XSP16, literal(-10)))
        CFI CFA_SP SP+0
        CFI CFA_XSP16 add(XSP16, 10)
        ; Saved register size: 10
        ; Auto size: 20
        MOV     A,#-0x14
        LCALL   ?ALLOC_XSTACK8
        CFI CFA_XSP16 add(XSP16, 30)
        MOV     A,R2
        MOV     R6,A
        MOV     A,R3
        MOV     R7,A
//  688     const unsigned char regs_end[12] = {DINAFE, DINAF2, DINAAB,
//  689         0xc4, DINAAA, DINAF1, DINADF, DINADF, 0xBB, 0xAF, DINADF, DINADF};
        MOV     A,#0x8
        LCALL   ?XSTACK_DISP0_8
        MOV     R4,DPL
        MOV     R5,DPH
        MOV     DPH,#(`?<Constant {254, 242, 171, 196, 170, 241, 223,` >> 8) & 0xff
        MOV     DPL,#`?<Constant {254, 242, 171, 196, 170, 241, 223,` & 0xff
        MOV     A,#0xc
        LCALL   ?MOVE_LONG8_XDATA_XDATA
//  690     unsigned short div;
//  691     unsigned char tmp[8];
//  692 
//  693     if (rate > DMP_SAMPLE_RATE)
        CLR     C
        MOV     A,R6
        SUBB    A,#-0x37
        MOV     A,R7
        SUBB    A,#0x0
        JC      ??dmp_set_fifo_rate_0
//  694         return -1;
??dmp_set_fifo_rate_1:
        MOV     R2,#-0x1
        MOV     R3,#-0x1
        SJMP    ??CrossCallReturnLabel_54
//  695     div = DMP_SAMPLE_RATE / rate - 1;
??dmp_set_fifo_rate_0:
        MOV     R0,#-0x38
        MOV     R1,#0x0
        LCALL   ?US_DIV_MOD
        MOV     A,R0
        ADD     A,#-0x1
        DEC     R0
        MOV     A,R1
        ADDC    A,#-0x1
//  696     tmp[0] = (unsigned char)((div >> 8) & 0xFF);
        MOV     DPL,?XSP + 0
        MOV     DPH,?XSP + 1
        MOVX    @DPTR,A
//  697     tmp[1] = (unsigned char)(div & 0xFF);
        MOV     A,#0x1
        LCALL   ?XSTACK_DISP0_8
        MOV     A,R0
        LCALL   ??Subroutine47_0 & 0xFFFF
//  698     if (mpu_write_mem(D_0_22, 2, tmp))
??CrossCallReturnLabel_84:
        LCALL   ?PUSH_XSTACK_I_TWO
        CFI CFA_XSP16 add(XSP16, 32)
        MOV     R4,#0x2
        MOV     R5,#0x0
        MOV     R2,#0x16
        MOV     R3,#0x2
        LCALL   ??Subroutine52_0 & 0xFFFF
??CrossCallReturnLabel_118:
        LCALL   ?DEALLOC_XSTACK8
        CFI CFA_XSP16 add(XSP16, 30)
        MOV     ?V0 + 1,R3
        MOV     A,R2
        ORL     A,?V0 + 1
        JNZ     ??dmp_set_fifo_rate_1
//  699         return -1;
//  700     if (mpu_write_mem(CFG_6, 12, (unsigned char*)regs_end))
        ; Setup parameters for call to function mpu_write_mem
        MOV     A,#0x8
        LCALL   ?XSTACK_DISP0_8
        MOV     ?V0 + 0,DPL
        MOV     ?V0 + 1,DPH
        MOV     R0,#?V0 + 0
        LCALL   ?PUSH_XSTACK_I_TWO
        CFI CFA_XSP16 add(XSP16, 32)
        MOV     R4,#0xc
        MOV     R5,#0x0
        MOV     R2,#-0x3f
        MOV     R3,#0xa
        LCALL   ??Subroutine52_0 & 0xFFFF
??CrossCallReturnLabel_119:
        LCALL   ?DEALLOC_XSTACK8
        CFI CFA_XSP16 add(XSP16, 30)
        MOV     ?V0 + 1,R3
        MOV     A,R2
        ORL     A,?V0 + 1
        JNZ     ??dmp_set_fifo_rate_1
//  701         return -1;
//  702 
//  703     dmp.fifo_rate = rate;
        MOV     DPTR,#dmp + 8
        LCALL   ?Subroutine32 & 0xFFFF
//  704     return 0;
??CrossCallReturnLabel_54:
        MOV     A,#0x14
        LJMP    ??Subroutine46_0 & 0xFFFF
        CFI EndBlock cfiBlock54
//  705 }

        RSEG BANKED_CODE:CODE:NOROOT(0)
?Subroutine32:
        CFI Block cfiCond55 Using cfiCommon0
        CFI NoFunction
        CFI Conditional ??CrossCallReturnLabel_53
        CFI R6 load(1, XDATA, add(CFA_XSP16, literal(-10)))
        CFI VB load(1, XDATA, add(CFA_XSP16, literal(-9)))
        CFI V0 load(1, XDATA, add(CFA_XSP16, literal(-8)))
        CFI V1 load(1, XDATA, add(CFA_XSP16, literal(-7)))
        CFI R7 load(1, XDATA, add(CFA_XSP16, literal(-6)))
        CFI ?RET_LOW load(1, XDATA, add(CFA_XSP16, literal(-5)))
        CFI ?RET_HIGH load(1, XDATA, add(CFA_XSP16, literal(-4)))
        CFI ?BRET_EXT load(1, XDATA, add(CFA_XSP16, literal(-3)))
        CFI DPL0 load(1, XDATA, add(CFA_XSP16, literal(-2)))
        CFI DPH0 load(1, XDATA, add(CFA_XSP16, literal(-1)))
        CFI CFA_SP SP+0
        CFI CFA_XSP16 add(XSP16, 28)
        CFI Block cfiCond56 Using cfiCommon0
        CFI (cfiCond56) NoFunction
        CFI (cfiCond56) Conditional ??CrossCallReturnLabel_54
        CFI (cfiCond56) R6 load(1, XDATA, add(CFA_XSP16, literal(-10)))
        CFI (cfiCond56) VB load(1, XDATA, add(CFA_XSP16, literal(-9)))
        CFI (cfiCond56) V0 load(1, XDATA, add(CFA_XSP16, literal(-8)))
        CFI (cfiCond56) V1 load(1, XDATA, add(CFA_XSP16, literal(-7)))
        CFI (cfiCond56) R7 load(1, XDATA, add(CFA_XSP16, literal(-6)))
        CFI (cfiCond56) ?RET_LOW load(1, XDATA, add(CFA_XSP16, literal(-5)))
        CFI (cfiCond56) ?RET_HIGH load(1, XDATA, add(CFA_XSP16, literal(-4)))
        CFI (cfiCond56) ?BRET_EXT load(1, XDATA, add(CFA_XSP16, literal(-3)))
        CFI (cfiCond56) DPL0 load(1, XDATA, add(CFA_XSP16, literal(-2)))
        CFI (cfiCond56) DPH0 load(1, XDATA, add(CFA_XSP16, literal(-1)))
        CFI (cfiCond56) CFA_SP SP+0
        CFI (cfiCond56) CFA_XSP16 add(XSP16, 30)
        CFI Block cfiPicker57 Using cfiCommon1
        CFI (cfiPicker57) NoFunction
        CFI (cfiPicker57) Picker
        MOV     A,R6
        MOVX    @DPTR,A
        INC     DPTR
        MOV     A,R7
        MOVX    @DPTR,A
        MOV     R2,#0x0
        MOV     R3,#0x0
        RET
        CFI EndBlock cfiCond55
        CFI EndBlock cfiCond56
        CFI EndBlock cfiPicker57
//  706 
//  707 /**
//  708  *  @brief      Get DMP output rate.
//  709  *  @param[out] rate    Current fifo rate (Hz).
//  710  *  @return     0 if successful.
//  711  */

        RSEG BANKED_CODE:CODE:NOROOT(0)
//  712 int dmp_get_fifo_rate(unsigned short *rate)
dmp_get_fifo_rate:
        CFI Block cfiBlock58 Using cfiCommon0
        CFI Function dmp_get_fifo_rate
        CODE
//  713 {
        PUSH    DPL
        CFI DPL0 Frame(CFA_SP, 4)
        CFI CFA_SP SP+-4
        PUSH    DPH
        CFI DPH0 Frame(CFA_SP, 5)
        CFI CFA_SP SP+-5
        ; Saved register size: 2
        ; Auto size: 0
//  714     rate[0] = dmp.fifo_rate;
        MOV     DPTR,#dmp + 8
        LJMP    ?Subroutine3 & 0xFFFF
        CFI EndBlock cfiBlock58
//  715     return 0;
//  716 }
//  717 
//  718 /**
//  719  *  @brief      Set tap threshold for a specific axis.
//  720  *  @param[in]  axis    1, 2, and 4 for XYZ accel, respectively.
//  721  *  @param[in]  thresh  Tap threshold, in mg/ms.
//  722  *  @return     0 if successful.
//  723  */

        RSEG BANKED_CODE:CODE:NOROOT(0)
//  724 int dmp_set_tap_thresh(unsigned char axis, unsigned short thresh)
dmp_set_tap_thresh:
        CFI Block cfiBlock59 Using cfiCommon0
        CFI Function dmp_set_tap_thresh
        CODE
//  725 {
        FUNCALL dmp_set_tap_thresh, mpu_get_accel_fsr
        LOCFRAME ISTACK, 0, STACK
        LOCFRAME PSTACK, 0, STACK
        LOCFRAME XSTACK, 25, STACK
        LOCFRAME IOVERLAY, 0, STATIC
        LOCFRAME DOVERLAY, 0, STATIC
        ARGFRAME ISTACK, 0, STACK
        ARGFRAME PSTACK, 0, STACK
        ARGFRAME XSTACK, 25, STACK
        ARGFRAME IOVERLAY, 0, STATIC
        ARGFRAME DOVERLAY, 0, STATIC
        FUNCALL dmp_set_tap_thresh, mpu_write_mem
        LOCFRAME ISTACK, 0, STACK
        LOCFRAME PSTACK, 0, STACK
        LOCFRAME XSTACK, 27, STACK
        LOCFRAME IOVERLAY, 0, STATIC
        LOCFRAME DOVERLAY, 0, STATIC
        ARGFRAME ISTACK, 0, STACK
        ARGFRAME PSTACK, 0, STACK
        ARGFRAME XSTACK, 27, STACK
        ARGFRAME IOVERLAY, 0, STATIC
        ARGFRAME DOVERLAY, 0, STATIC
        FUNCALL dmp_set_tap_thresh, mpu_write_mem
        LOCFRAME ISTACK, 0, STACK
        LOCFRAME PSTACK, 0, STACK
        LOCFRAME XSTACK, 27, STACK
        LOCFRAME IOVERLAY, 0, STATIC
        LOCFRAME DOVERLAY, 0, STATIC
        ARGFRAME ISTACK, 0, STACK
        ARGFRAME PSTACK, 0, STACK
        ARGFRAME XSTACK, 27, STACK
        ARGFRAME IOVERLAY, 0, STATIC
        ARGFRAME DOVERLAY, 0, STATIC
        FUNCALL dmp_set_tap_thresh, mpu_write_mem
        LOCFRAME ISTACK, 0, STACK
        LOCFRAME PSTACK, 0, STACK
        LOCFRAME XSTACK, 27, STACK
        LOCFRAME IOVERLAY, 0, STATIC
        LOCFRAME DOVERLAY, 0, STATIC
        ARGFRAME ISTACK, 0, STACK
        ARGFRAME PSTACK, 0, STACK
        ARGFRAME XSTACK, 27, STACK
        ARGFRAME IOVERLAY, 0, STATIC
        ARGFRAME DOVERLAY, 0, STATIC
        FUNCALL dmp_set_tap_thresh, mpu_write_mem
        LOCFRAME ISTACK, 0, STACK
        LOCFRAME PSTACK, 0, STACK
        LOCFRAME XSTACK, 27, STACK
        LOCFRAME IOVERLAY, 0, STATIC
        LOCFRAME DOVERLAY, 0, STATIC
        ARGFRAME ISTACK, 0, STACK
        ARGFRAME PSTACK, 0, STACK
        ARGFRAME XSTACK, 27, STACK
        ARGFRAME IOVERLAY, 0, STATIC
        ARGFRAME DOVERLAY, 0, STATIC
        FUNCALL dmp_set_tap_thresh, mpu_write_mem
        LOCFRAME ISTACK, 0, STACK
        LOCFRAME PSTACK, 0, STACK
        LOCFRAME XSTACK, 27, STACK
        LOCFRAME IOVERLAY, 0, STATIC
        LOCFRAME DOVERLAY, 0, STATIC
        ARGFRAME ISTACK, 0, STACK
        ARGFRAME PSTACK, 0, STACK
        ARGFRAME XSTACK, 27, STACK
        ARGFRAME IOVERLAY, 0, STATIC
        ARGFRAME DOVERLAY, 0, STATIC
        FUNCALL dmp_set_tap_thresh, mpu_write_mem
        LOCFRAME ISTACK, 0, STACK
        LOCFRAME PSTACK, 0, STACK
        LOCFRAME XSTACK, 27, STACK
        LOCFRAME IOVERLAY, 0, STATIC
        LOCFRAME DOVERLAY, 0, STATIC
        ARGFRAME ISTACK, 0, STACK
        ARGFRAME PSTACK, 0, STACK
        ARGFRAME XSTACK, 27, STACK
        ARGFRAME IOVERLAY, 0, STATIC
        ARGFRAME DOVERLAY, 0, STATIC
        MOV     A,#-0x14
        LCALL   ?BANKED_ENTER_XDATA
        CFI DPH0 load(1, XDATA, add(CFA_XSP16, literal(-1)))
        CFI DPL0 load(1, XDATA, add(CFA_XSP16, literal(-2)))
        CFI ?BRET_EXT load(1, XDATA, add(CFA_XSP16, literal(-3)))
        CFI ?RET_HIGH load(1, XDATA, add(CFA_XSP16, literal(-4)))
        CFI ?RET_LOW load(1, XDATA, add(CFA_XSP16, literal(-5)))
        CFI R7 load(1, XDATA, add(CFA_XSP16, literal(-6)))
        CFI V11 load(1, XDATA, add(CFA_XSP16, literal(-7)))
        CFI V10 load(1, XDATA, add(CFA_XSP16, literal(-8)))
        CFI V9 load(1, XDATA, add(CFA_XSP16, literal(-9)))
        CFI V8 load(1, XDATA, add(CFA_XSP16, literal(-10)))
        CFI V7 load(1, XDATA, add(CFA_XSP16, literal(-11)))
        CFI V6 load(1, XDATA, add(CFA_XSP16, literal(-12)))
        CFI V5 load(1, XDATA, add(CFA_XSP16, literal(-13)))
        CFI V4 load(1, XDATA, add(CFA_XSP16, literal(-14)))
        CFI V3 load(1, XDATA, add(CFA_XSP16, literal(-15)))
        CFI V2 load(1, XDATA, add(CFA_XSP16, literal(-16)))
        CFI V1 load(1, XDATA, add(CFA_XSP16, literal(-17)))
        CFI V0 load(1, XDATA, add(CFA_XSP16, literal(-18)))
        CFI VB load(1, XDATA, add(CFA_XSP16, literal(-19)))
        CFI R6 load(1, XDATA, add(CFA_XSP16, literal(-20)))
        CFI CFA_SP SP+0
        CFI CFA_XSP16 add(XSP16, 20)
        ; Saved register size: 20
        ; Auto size: 5
        MOV     A,#-0x5
        LCALL   ?ALLOC_XSTACK8
        CFI CFA_XSP16 add(XSP16, 25)
        MOV     A,R1
        MOV     R6,A
//  726     unsigned char tmp[4], accel_fsr;
//  727     float scaled_thresh;
//  728     unsigned short dmp_thresh, dmp_thresh_2;
//  729     if (!(axis & TAP_XYZ) || thresh > 1600)
        MOV     A,#0x7
        ANL     A,R6
        JZ      ??dmp_set_tap_thresh_0
        CLR     C
        MOV     A,R2
        SUBB    A,#0x41
        MOV     A,R3
        SUBB    A,#0x6
        JC      ??dmp_set_tap_thresh_1
//  730         return -1;
??dmp_set_tap_thresh_0:
        MOV     R2,#-0x1
        MOV     R3,#-0x1
        LJMP    ??dmp_set_tap_thresh_2 & 0xFFFF
//  731 
//  732     scaled_thresh = (float)thresh / DMP_SAMPLE_RATE;
??dmp_set_tap_thresh_1:
        MOV     ?V0 + 4,R2
        MOV     ?V0 + 5,R3
        CLR     A
        MOV     ?V0 + 6,A
        MOV     ?V0 + 7,A
        MOV     R0,#?V0 + 4
        LCALL   ?UL_TO_FLT
        MOV     DPTR,#__Constant_43480000
        MOV     R0,#?V0 + 0
        LCALL   ?L_MOV_X
        MOV     R0,#?V0 + 4
        MOV     R1,#?V0 + 0
        LCALL   ?FLT_DIV
//  733 
//  734     mpu_get_accel_fsr(&accel_fsr);
        ; Setup parameters for call to function mpu_get_accel_fsr
        MOV     DPL,?XSP + 0
        MOV     DPH,?XSP + 1
        MOV     R2,DPL
        MOV     R3,DPH
        LCALL   ??mpu_get_accel_fsr?relay
//  735     switch (accel_fsr) {
        MOV     DPL,?XSP + 0
        MOV     DPH,?XSP + 1
        MOVX    A,@DPTR
        ADD     A,#-0x2
        JZ      ??dmp_set_tap_thresh_3
        ADD     A,#-0x2
        JZ      ??dmp_set_tap_thresh_4
        ADD     A,#-0x4
        JZ      ??dmp_set_tap_thresh_5
        ADD     A,#-0x8
        JZ      ??dmp_set_tap_thresh_6
        SJMP    ??dmp_set_tap_thresh_0
//  736     case 2:
//  737         dmp_thresh = (unsigned short)(scaled_thresh * 16384);
??dmp_set_tap_thresh_3:
        MOV     ?V0 + 0,?V0 + 4
        MOV     ?V0 + 1,?V0 + 5
        MOV     ?V0 + 2,?V0 + 6
        MOV     ?V0 + 3,?V0 + 7
        MOV     DPTR,#__Constant_46800000
        MOV     R0,#?V0 + 8
        LCALL   ?L_MOV_X
        MOV     R0,#?V0 + 0
        MOV     R1,#?V0 + 8
        LCALL   ?FLT_MUL
        MOV     R0,#?V0 + 0
        LCALL   ?FLT_TO_L
        MOV     R2,?V0 + 0
        MOV     R3,?V0 + 1
//  738         /* dmp_thresh * 0.75 */
//  739         dmp_thresh_2 = (unsigned short)(scaled_thresh * 12288);
        MOV     DPTR,#__Constant_46400000
        SJMP    ??dmp_set_tap_thresh_7
//  740         break;
//  741     case 4:
//  742         dmp_thresh = (unsigned short)(scaled_thresh * 8192);
??dmp_set_tap_thresh_4:
        MOV     ?V0 + 0,?V0 + 4
        MOV     ?V0 + 1,?V0 + 5
        MOV     ?V0 + 2,?V0 + 6
        MOV     ?V0 + 3,?V0 + 7
        MOV     DPTR,#__Constant_46000000
        MOV     R0,#?V0 + 8
        LCALL   ?L_MOV_X
        MOV     R0,#?V0 + 0
        MOV     R1,#?V0 + 8
        LCALL   ?FLT_MUL
        MOV     R0,#?V0 + 0
        LCALL   ?FLT_TO_L
        MOV     R2,?V0 + 0
        MOV     R3,?V0 + 1
//  743         /* dmp_thresh * 0.75 */
//  744         dmp_thresh_2 = (unsigned short)(scaled_thresh * 6144);
        MOV     DPTR,#__Constant_45c00000
        SJMP    ??dmp_set_tap_thresh_7
//  745         break;
//  746     case 8:
//  747         dmp_thresh = (unsigned short)(scaled_thresh * 4096);
??dmp_set_tap_thresh_5:
        MOV     ?V0 + 0,?V0 + 4
        MOV     ?V0 + 1,?V0 + 5
        MOV     ?V0 + 2,?V0 + 6
        MOV     ?V0 + 3,?V0 + 7
        MOV     DPTR,#__Constant_45800000
        MOV     R0,#?V0 + 8
        LCALL   ?L_MOV_X
        MOV     R0,#?V0 + 0
        MOV     R1,#?V0 + 8
        LCALL   ?FLT_MUL
        MOV     R0,#?V0 + 0
        LCALL   ?FLT_TO_L
        MOV     R2,?V0 + 0
        MOV     R3,?V0 + 1
//  748         /* dmp_thresh * 0.75 */
//  749         dmp_thresh_2 = (unsigned short)(scaled_thresh * 3072);
        MOV     DPTR,#__Constant_45400000
        SJMP    ??dmp_set_tap_thresh_7
//  750         break;
//  751     case 16:
//  752         dmp_thresh = (unsigned short)(scaled_thresh * 2048);
??dmp_set_tap_thresh_6:
        MOV     ?V0 + 0,?V0 + 4
        MOV     ?V0 + 1,?V0 + 5
        MOV     ?V0 + 2,?V0 + 6
        MOV     ?V0 + 3,?V0 + 7
        MOV     DPTR,#__Constant_45000000
        MOV     R0,#?V0 + 8
        LCALL   ?L_MOV_X
        MOV     R0,#?V0 + 0
        MOV     R1,#?V0 + 8
        LCALL   ?FLT_MUL
        MOV     R0,#?V0 + 0
        LCALL   ?FLT_TO_L
        MOV     R2,?V0 + 0
        MOV     R3,?V0 + 1
//  753         /* dmp_thresh * 0.75 */
//  754         dmp_thresh_2 = (unsigned short)(scaled_thresh * 1536);
        MOV     DPTR,#__Constant_44c00000
??dmp_set_tap_thresh_7:
        MOV     R0,#?V0 + 0
        LCALL   ?L_MOV_X
        MOV     R0,#?V0 + 4
        MOV     R1,#?V0 + 0
        LCALL   ?FLT_MUL
        MOV     R0,#?V0 + 4
        LCALL   ?FLT_TO_L
        MOV     R4,?V0 + 4
        MOV     R5,?V0 + 5
//  755         break;
//  756     default:
//  757         return -1;
//  758     }
//  759     tmp[0] = (unsigned char)(dmp_thresh >> 8);
        MOV     A,#0x1
        LCALL   ?XSTACK_DISP0_8
        MOV     A,R3
        MOVX    @DPTR,A
//  760     tmp[1] = (unsigned char)(dmp_thresh & 0xFF);
        MOV     A,#0x2
        LCALL   ?XSTACK_DISP0_8
        MOV     A,R2
        MOVX    @DPTR,A
//  761     tmp[2] = (unsigned char)(dmp_thresh_2 >> 8);
        MOV     A,#0x3
        LCALL   ?XSTACK_DISP0_8
        MOV     A,R5
        MOVX    @DPTR,A
//  762     tmp[3] = (unsigned char)(dmp_thresh_2 & 0xFF);
        MOV     A,#0x4
        LCALL   ?XSTACK_DISP0_8
        MOV     A,R4
        MOVX    @DPTR,A
//  763 
//  764     if (axis & TAP_X) {
        MOV     A,R6
        MOV     C,0xE0 /* A   */.0
        JNC     ??dmp_set_tap_thresh_8
//  765         if (mpu_write_mem(DMP_TAP_THX, 2, tmp))
        ; Setup parameters for call to function mpu_write_mem
        MOV     A,#0x1
        LCALL   ?XSTACK_DISP0_8
        MOV     ?V0 + 0,DPL
        MOV     ?V0 + 1,DPH
        MOV     R0,#?V0 + 0
        LCALL   ?PUSH_XSTACK_I_TWO
        CFI CFA_XSP16 add(XSP16, 27)
        MOV     R4,#0x2
        MOV     R5,#0x0
        MOV     R2,#-0x2c
        LCALL   ?Subroutine33 & 0xFFFF
??CrossCallReturnLabel_101:
        LCALL   ?DEALLOC_XSTACK8
        CFI CFA_XSP16 add(XSP16, 25)
        MOV     ?V0 + 1,R3
        MOV     A,R2
        ORL     A,?V0 + 1
        JZ      $+5
        LJMP    ??dmp_set_tap_thresh_0 & 0xFFFF
//  766             return -1;
//  767         if (mpu_write_mem(D_1_36, 2, tmp+2))
        ; Setup parameters for call to function mpu_write_mem
        MOV     A,#0x3
        LCALL   ?XSTACK_DISP0_8
        MOV     ?V0 + 0,DPL
        MOV     ?V0 + 1,DPH
        MOV     R0,#?V0 + 0
        LCALL   ?PUSH_XSTACK_I_TWO
        CFI CFA_XSP16 add(XSP16, 27)
        MOV     R4,#0x2
        MOV     R5,#0x0
        MOV     R2,#0x24
        LCALL   ?Subroutine33 & 0xFFFF
//  768             return -1;
//  769     }
??CrossCallReturnLabel_102:
        LCALL   ?DEALLOC_XSTACK8
        CFI CFA_XSP16 add(XSP16, 25)
        MOV     ?V0 + 1,R3
        MOV     A,R2
        ORL     A,?V0 + 1
        JZ      $+5
        LJMP    ??dmp_set_tap_thresh_0 & 0xFFFF
//  770     if (axis & TAP_Y) {
??dmp_set_tap_thresh_8:
        MOV     A,R6
        MOV     C,0xE0 /* A   */.1
        JNC     ??dmp_set_tap_thresh_9
//  771         if (mpu_write_mem(DMP_TAP_THY, 2, tmp))
        ; Setup parameters for call to function mpu_write_mem
        MOV     A,#0x1
        LCALL   ?XSTACK_DISP0_8
        MOV     ?V0 + 0,DPL
        MOV     ?V0 + 1,DPH
        MOV     R0,#?V0 + 0
        LCALL   ?PUSH_XSTACK_I_TWO
        CFI CFA_XSP16 add(XSP16, 27)
        MOV     R4,#0x2
        MOV     R5,#0x0
        MOV     R2,#-0x28
        LCALL   ?Subroutine33 & 0xFFFF
??CrossCallReturnLabel_103:
        LCALL   ?DEALLOC_XSTACK8
        CFI CFA_XSP16 add(XSP16, 25)
        MOV     ?V0 + 1,R3
        MOV     A,R2
        ORL     A,?V0 + 1
        JZ      $+5
        LJMP    ??dmp_set_tap_thresh_0 & 0xFFFF
//  772             return -1;
//  773         if (mpu_write_mem(D_1_40, 2, tmp+2))
        ; Setup parameters for call to function mpu_write_mem
        MOV     A,#0x3
        LCALL   ?XSTACK_DISP0_8
        MOV     ?V0 + 0,DPL
        MOV     ?V0 + 1,DPH
        MOV     R0,#?V0 + 0
        LCALL   ?PUSH_XSTACK_I_TWO
        CFI CFA_XSP16 add(XSP16, 27)
        MOV     R4,#0x2
        MOV     R5,#0x0
        MOV     R2,#0x28
        LCALL   ?Subroutine33 & 0xFFFF
//  774             return -1;
//  775     }
??CrossCallReturnLabel_104:
        LCALL   ?DEALLOC_XSTACK8
        CFI CFA_XSP16 add(XSP16, 25)
        MOV     ?V0 + 1,R3
        MOV     A,R2
        ORL     A,?V0 + 1
        JZ      $+5
        LJMP    ??dmp_set_tap_thresh_0 & 0xFFFF
//  776     if (axis & TAP_Z) {
??dmp_set_tap_thresh_9:
        MOV     A,R6
        MOV     C,0xE0 /* A   */.2
        JNC     ??dmp_set_tap_thresh_10
//  777         if (mpu_write_mem(DMP_TAP_THZ, 2, tmp))
        ; Setup parameters for call to function mpu_write_mem
        MOV     A,#0x1
        LCALL   ?XSTACK_DISP0_8
        MOV     ?V0 + 0,DPL
        MOV     ?V0 + 1,DPH
        MOV     R0,#?V0 + 0
        LCALL   ?PUSH_XSTACK_I_TWO
        CFI CFA_XSP16 add(XSP16, 27)
        MOV     R4,#0x2
        MOV     R5,#0x0
        MOV     R2,#-0x24
        LCALL   ?Subroutine33 & 0xFFFF
??CrossCallReturnLabel_105:
        LCALL   ?DEALLOC_XSTACK8
        CFI CFA_XSP16 add(XSP16, 25)
        MOV     ?V0 + 1,R3
        MOV     A,R2
        ORL     A,?V0 + 1
        JZ      $+5
        LJMP    ??dmp_set_tap_thresh_0 & 0xFFFF
//  778             return -1;
//  779         if (mpu_write_mem(D_1_44, 2, tmp+2))
        ; Setup parameters for call to function mpu_write_mem
        MOV     A,#0x3
        LCALL   ?XSTACK_DISP0_8
        MOV     ?V0 + 0,DPL
        MOV     ?V0 + 1,DPH
        MOV     R0,#?V0 + 0
        LCALL   ?PUSH_XSTACK_I_TWO
        CFI CFA_XSP16 add(XSP16, 27)
        MOV     R4,#0x2
        MOV     R5,#0x0
        MOV     R2,#0x2c
        LCALL   ?Subroutine33 & 0xFFFF
//  780             return -1;
//  781     }
??CrossCallReturnLabel_106:
        LCALL   ?DEALLOC_XSTACK8
        CFI CFA_XSP16 add(XSP16, 25)
        MOV     ?V0 + 1,R3
        MOV     A,R2
        ORL     A,?V0 + 1
        JZ      $+5
        LJMP    ??dmp_set_tap_thresh_0 & 0xFFFF
//  782     return 0;
??dmp_set_tap_thresh_10:
        MOV     R2,#0x0
        MOV     R3,#0x0
??dmp_set_tap_thresh_2:
        MOV     A,#0x5
        LJMP    ?Subroutine2 & 0xFFFF
        CFI EndBlock cfiBlock59
//  783 }
//  784 
//  785 /**
//  786  *  @brief      Set which axes will register a tap.
//  787  *  @param[in]  axis    1, 2, and 4 for XYZ, respectively.
//  788  *  @return     0 if successful.
//  789  */

        RSEG BANKED_CODE:CODE:NOROOT(0)
//  790 int dmp_set_tap_axes(unsigned char axis)
dmp_set_tap_axes:
        CFI Block cfiBlock60 Using cfiCommon0
        CFI Function dmp_set_tap_axes
        CODE
//  791 {
        FUNCALL dmp_set_tap_axes, mpu_write_mem
        LOCFRAME ISTACK, 0, STACK
        LOCFRAME PSTACK, 0, STACK
        LOCFRAME XSTACK, 13, STACK
        LOCFRAME IOVERLAY, 0, STATIC
        LOCFRAME DOVERLAY, 0, STATIC
        ARGFRAME ISTACK, 0, STACK
        ARGFRAME PSTACK, 0, STACK
        ARGFRAME XSTACK, 13, STACK
        ARGFRAME IOVERLAY, 0, STATIC
        ARGFRAME DOVERLAY, 0, STATIC
        MOV     A,#-0xa
        LCALL   ?BANKED_ENTER_XDATA
        CFI DPH0 load(1, XDATA, add(CFA_XSP16, literal(-1)))
        CFI DPL0 load(1, XDATA, add(CFA_XSP16, literal(-2)))
        CFI ?BRET_EXT load(1, XDATA, add(CFA_XSP16, literal(-3)))
        CFI ?RET_HIGH load(1, XDATA, add(CFA_XSP16, literal(-4)))
        CFI ?RET_LOW load(1, XDATA, add(CFA_XSP16, literal(-5)))
        CFI R7 load(1, XDATA, add(CFA_XSP16, literal(-6)))
        CFI V1 load(1, XDATA, add(CFA_XSP16, literal(-7)))
        CFI V0 load(1, XDATA, add(CFA_XSP16, literal(-8)))
        CFI VB load(1, XDATA, add(CFA_XSP16, literal(-9)))
        CFI R6 load(1, XDATA, add(CFA_XSP16, literal(-10)))
        CFI CFA_SP SP+0
        CFI CFA_XSP16 add(XSP16, 10)
        ; Saved register size: 10
        ; Auto size: 1
        MOV     A,#-0x1
        LCALL   ?ALLOC_XSTACK8
        CFI CFA_XSP16 add(XSP16, 11)
        MOV     A,R1
        MOV     R6,A
//  792     unsigned char tmp = 0;
        MOV     DPL,?XSP + 0
        MOV     DPH,?XSP + 1
        CLR     A
        MOVX    @DPTR,A
//  793 
//  794     if (axis & TAP_X)
        MOV     A,R6
        MOV     C,0xE0 /* A   */.0
        JNC     ??dmp_set_tap_axes_0
//  795         tmp |= 0x30;
        MOV     A,#0x30
        MOVX    @DPTR,A
//  796     if (axis & TAP_Y)
??dmp_set_tap_axes_0:
        MOV     A,R6
        MOV     C,0xE0 /* A   */.1
        JNC     ??dmp_set_tap_axes_1
//  797         tmp |= 0x0C;
        MOVX    A,@DPTR
        ORL     A,#0xc
        MOVX    @DPTR,A
//  798     if (axis & TAP_Z)
??dmp_set_tap_axes_1:
        MOV     A,R6
        MOV     C,0xE0 /* A   */.2
        JNC     ??dmp_set_tap_axes_2
//  799         tmp |= 0x03;
        MOVX    A,@DPTR
        ORL     A,#0x3
        MOVX    @DPTR,A
//  800     return mpu_write_mem(D_1_72, 1, &tmp);
??dmp_set_tap_axes_2:
        ; Setup parameters for call to function mpu_write_mem
        MOV     ?V0 + 0,DPL
        MOV     ?V0 + 1,DPH
        MOV     R0,#?V0 + 0
        LCALL   ?PUSH_XSTACK_I_TWO
        CFI CFA_XSP16 add(XSP16, 13)
        MOV     R4,#0x1
        MOV     R5,#0x0
        MOV     R2,#0x48
        CFI EndBlock cfiBlock60
        REQUIRE ?Subroutine4
        ; // Fall through to label ?Subroutine4
//  801 }

        RSEG BANKED_CODE:CODE:NOROOT(0)
?Subroutine4:
        CFI Block cfiBlock61 Using cfiCommon0
        CFI NoFunction
        CFI CFA_SP SP+0
        CFI CFA_XSP16 add(XSP16, 13)
        CFI VB load(1, XDATA, add(CFA_XSP16, literal(-9)))
        CFI DPL0 load(1, XDATA, add(CFA_XSP16, literal(-2)))
        CFI DPH0 load(1, XDATA, add(CFA_XSP16, literal(-1)))
        CFI R6 load(1, XDATA, add(CFA_XSP16, literal(-10)))
        CFI R7 load(1, XDATA, add(CFA_XSP16, literal(-6)))
        CFI V0 load(1, XDATA, add(CFA_XSP16, literal(-8)))
        CFI V1 load(1, XDATA, add(CFA_XSP16, literal(-7)))
        CFI ?BRET_EXT load(1, XDATA, add(CFA_XSP16, literal(-3)))
        CFI ?RET_HIGH load(1, XDATA, add(CFA_XSP16, literal(-4)))
        CFI ?RET_LOW load(1, XDATA, add(CFA_XSP16, literal(-5)))
        LCALL   ?Subroutine33 & 0xFFFF
??CrossCallReturnLabel_107:
        LCALL   ?DEALLOC_XSTACK8
        CFI CFA_XSP16 add(XSP16, 11)
        MOV     A,#0x1
        SJMP    ??Subroutine46_0
        CFI EndBlock cfiBlock61
//  802 
//  803 /**
//  804  *  @brief      Set minimum number of taps needed for an interrupt.
//  805  *  @param[in]  min_taps    Minimum consecutive taps (1-4).
//  806  *  @return     0 if successful.
//  807  */

        RSEG BANKED_CODE:CODE:NOROOT(0)
//  808 int dmp_set_tap_count(unsigned char min_taps)
dmp_set_tap_count:
        CFI Block cfiBlock62 Using cfiCommon0
        CFI Function dmp_set_tap_count
        CODE
//  809 {
        FUNCALL dmp_set_tap_count, mpu_write_mem
        LOCFRAME ISTACK, 0, STACK
        LOCFRAME PSTACK, 0, STACK
        LOCFRAME XSTACK, 13, STACK
        LOCFRAME IOVERLAY, 0, STATIC
        LOCFRAME DOVERLAY, 0, STATIC
        ARGFRAME ISTACK, 0, STACK
        ARGFRAME PSTACK, 0, STACK
        ARGFRAME XSTACK, 13, STACK
        ARGFRAME IOVERLAY, 0, STATIC
        ARGFRAME DOVERLAY, 0, STATIC
        MOV     A,#-0xa
        LCALL   ?BANKED_ENTER_XDATA
        CFI DPH0 load(1, XDATA, add(CFA_XSP16, literal(-1)))
        CFI DPL0 load(1, XDATA, add(CFA_XSP16, literal(-2)))
        CFI ?BRET_EXT load(1, XDATA, add(CFA_XSP16, literal(-3)))
        CFI ?RET_HIGH load(1, XDATA, add(CFA_XSP16, literal(-4)))
        CFI ?RET_LOW load(1, XDATA, add(CFA_XSP16, literal(-5)))
        CFI R7 load(1, XDATA, add(CFA_XSP16, literal(-6)))
        CFI V1 load(1, XDATA, add(CFA_XSP16, literal(-7)))
        CFI V0 load(1, XDATA, add(CFA_XSP16, literal(-8)))
        CFI VB load(1, XDATA, add(CFA_XSP16, literal(-9)))
        CFI R6 load(1, XDATA, add(CFA_XSP16, literal(-10)))
        CFI CFA_SP SP+0
        CFI CFA_XSP16 add(XSP16, 10)
        ; Saved register size: 10
        ; Auto size: 1
        MOV     A,#-0x1
        LCALL   ?ALLOC_XSTACK8
        CFI CFA_XSP16 add(XSP16, 11)
        MOV     A,R1
        MOV     R6,A
//  810     unsigned char tmp;
//  811 
//  812     if (min_taps < 1)
        JNZ     ??dmp_set_tap_count_0
//  813         min_taps = 1;
        MOV     R6,#0x1
        SJMP    ??dmp_set_tap_count_1
//  814     else if (min_taps > 4)
??dmp_set_tap_count_0:
        CLR     C
        SUBB    A,#0x5
        JC      ??dmp_set_tap_count_1
//  815         min_taps = 4;
        MOV     R6,#0x4
//  816 
//  817     tmp = min_taps - 1;
??dmp_set_tap_count_1:
        MOV     A,#-0x1
        ADD     A,R6
        MOV     DPL,?XSP + 0
        MOV     DPH,?XSP + 1
        LCALL   ?Subroutine31 & 0xFFFF
//  818     return mpu_write_mem(D_1_79, 1, &tmp);
??CrossCallReturnLabel_51:
        LCALL   ?PUSH_XSTACK_I_TWO
        CFI CFA_XSP16 add(XSP16, 13)
        MOV     R4,#0x1
        MOV     R5,#0x0
        MOV     R2,#0x4f
        SJMP    ?Subroutine4
        CFI EndBlock cfiBlock62
//  819 }
//  820 
//  821 /**
//  822  *  @brief      Set length between valid taps.
//  823  *  @param[in]  time    Milliseconds between taps.
//  824  *  @return     0 if successful.
//  825  */

        RSEG BANKED_CODE:CODE:NOROOT(0)
//  826 int dmp_set_tap_time(unsigned short time)
dmp_set_tap_time:
        CFI Block cfiBlock63 Using cfiCommon0
        CFI Function dmp_set_tap_time
        CODE
//  827 {
        FUNCALL dmp_set_tap_time, mpu_write_mem
        LOCFRAME ISTACK, 0, STACK
        LOCFRAME PSTACK, 0, STACK
        LOCFRAME XSTACK, 14, STACK
        LOCFRAME IOVERLAY, 0, STATIC
        LOCFRAME DOVERLAY, 0, STATIC
        ARGFRAME ISTACK, 0, STACK
        ARGFRAME PSTACK, 0, STACK
        ARGFRAME XSTACK, 14, STACK
        ARGFRAME IOVERLAY, 0, STATIC
        ARGFRAME DOVERLAY, 0, STATIC
        MOV     A,#-0xa
        LCALL   ?BANKED_ENTER_XDATA
        CFI DPH0 load(1, XDATA, add(CFA_XSP16, literal(-1)))
        CFI DPL0 load(1, XDATA, add(CFA_XSP16, literal(-2)))
        CFI ?BRET_EXT load(1, XDATA, add(CFA_XSP16, literal(-3)))
        CFI ?RET_HIGH load(1, XDATA, add(CFA_XSP16, literal(-4)))
        CFI ?RET_LOW load(1, XDATA, add(CFA_XSP16, literal(-5)))
        CFI R7 load(1, XDATA, add(CFA_XSP16, literal(-6)))
        CFI V1 load(1, XDATA, add(CFA_XSP16, literal(-7)))
        CFI V0 load(1, XDATA, add(CFA_XSP16, literal(-8)))
        CFI VB load(1, XDATA, add(CFA_XSP16, literal(-9)))
        CFI R6 load(1, XDATA, add(CFA_XSP16, literal(-10)))
        CFI CFA_SP SP+0
        CFI CFA_XSP16 add(XSP16, 10)
        ; Saved register size: 10
        ; Auto size: 2
        MOV     A,#-0x2
        LCALL   ?ALLOC_XSTACK8
        CFI CFA_XSP16 add(XSP16, 12)
//  828     unsigned short dmp_time;
//  829     unsigned char tmp[2];
//  830 
//  831     dmp_time = time / (1000 / DMP_SAMPLE_RATE);
        MOV     A,R2
        MOV     R0,A
        MOV     A,R3
        MOV     R1,A
        MOV     R2,#0x5
        MOV     R3,#0x0
        LCALL   ?US_DIV_MOD
//  832     tmp[0] = (unsigned char)(dmp_time >> 8);
        MOV     DPL,?XSP + 0
        MOV     DPH,?XSP + 1
        MOV     A,R1
        MOVX    @DPTR,A
//  833     tmp[1] = (unsigned char)(dmp_time & 0xFF);
        MOV     A,#0x1
        LCALL   ?XSTACK_DISP0_8
        MOV     A,R0
        LCALL   ??Subroutine47_0 & 0xFFFF
//  834     return mpu_write_mem(DMP_TAPW_MIN, 2, tmp);
??CrossCallReturnLabel_85:
        LCALL   ?PUSH_XSTACK_I_TWO
        CFI CFA_XSP16 add(XSP16, 14)
        MOV     R4,#0x2
        MOV     R5,#0x0
        MOV     R2,#-0x22
        LJMP    ?Subroutine5 & 0xFFFF
        CFI EndBlock cfiBlock63
//  835 }

        RSEG BANKED_CODE:CODE:NOROOT(0)
?Subroutine0:
        CFI Block cfiBlock64 Using cfiCommon0
        CFI NoFunction
        CFI CFA_SP SP+0
        CFI CFA_XSP16 add(XSP16, 16)
        CFI VB load(1, XDATA, add(CFA_XSP16, literal(-9)))
        CFI DPL0 load(1, XDATA, add(CFA_XSP16, literal(-2)))
        CFI DPH0 load(1, XDATA, add(CFA_XSP16, literal(-1)))
        CFI R6 load(1, XDATA, add(CFA_XSP16, literal(-10)))
        CFI R7 load(1, XDATA, add(CFA_XSP16, literal(-6)))
        CFI V0 load(1, XDATA, add(CFA_XSP16, literal(-8)))
        CFI V1 load(1, XDATA, add(CFA_XSP16, literal(-7)))
        CFI ?BRET_EXT load(1, XDATA, add(CFA_XSP16, literal(-3)))
        CFI ?RET_HIGH load(1, XDATA, add(CFA_XSP16, literal(-4)))
        CFI ?RET_LOW load(1, XDATA, add(CFA_XSP16, literal(-5)))
        MOV     R3,#0xa
        LCALL   ??Subroutine52_0 & 0xFFFF
??CrossCallReturnLabel_120:
        LCALL   ?DEALLOC_XSTACK8
        CFI CFA_XSP16 add(XSP16, 14)
        ; Setup parameters for call to function mpu_reset_fifo
        ; Setup parameters for call to function mpu_reset_fifo
        LCALL   ??mpu_reset_fifo?relay
        CFI EndBlock cfiBlock64
        REQUIRE ??Subroutine45_0
        ; // Fall through to label ??Subroutine45_0

        RSEG BANKED_CODE:CODE:NOROOT(0)
??Subroutine45_0:
        CFI Block cfiBlock65 Using cfiCommon0
        CFI NoFunction
        CFI CFA_SP SP+0
        CFI CFA_XSP16 add(XSP16, 14)
        CFI VB load(1, XDATA, add(CFA_XSP16, literal(-9)))
        CFI DPL0 load(1, XDATA, add(CFA_XSP16, literal(-2)))
        CFI DPH0 load(1, XDATA, add(CFA_XSP16, literal(-1)))
        CFI R6 load(1, XDATA, add(CFA_XSP16, literal(-10)))
        CFI R7 load(1, XDATA, add(CFA_XSP16, literal(-6)))
        CFI V0 load(1, XDATA, add(CFA_XSP16, literal(-8)))
        CFI V1 load(1, XDATA, add(CFA_XSP16, literal(-7)))
        CFI ?BRET_EXT load(1, XDATA, add(CFA_XSP16, literal(-3)))
        CFI ?RET_HIGH load(1, XDATA, add(CFA_XSP16, literal(-4)))
        CFI ?RET_LOW load(1, XDATA, add(CFA_XSP16, literal(-5)))
        MOV     A,#0x4
        CFI EndBlock cfiBlock65
        REQUIRE ??Subroutine46_0
        ; // Fall through to label ??Subroutine46_0

        RSEG BANKED_CODE:CODE:NOROOT(0)
??Subroutine46_0:
        CFI Block cfiBlock66 Using cfiCommon0
        CFI NoFunction
        CFI CFA_SP SP+0
        CFI CFA_XSP16 add(XSP16, 28)
        CFI VB load(1, XDATA, add(CFA_XSP16, literal(-9)))
        CFI DPL0 load(1, XDATA, add(CFA_XSP16, literal(-2)))
        CFI DPH0 load(1, XDATA, add(CFA_XSP16, literal(-1)))
        CFI R6 load(1, XDATA, add(CFA_XSP16, literal(-10)))
        CFI R7 load(1, XDATA, add(CFA_XSP16, literal(-6)))
        CFI V0 load(1, XDATA, add(CFA_XSP16, literal(-8)))
        CFI V1 load(1, XDATA, add(CFA_XSP16, literal(-7)))
        CFI ?BRET_EXT load(1, XDATA, add(CFA_XSP16, literal(-3)))
        CFI ?RET_HIGH load(1, XDATA, add(CFA_XSP16, literal(-4)))
        CFI ?RET_LOW load(1, XDATA, add(CFA_XSP16, literal(-5)))
        CFI Invalid
        LCALL   ?DEALLOC_XSTACK8
        CFI CFA_XSP16 add(XSP16, 10)
        CFI Valid
        MOV     R7,#0x2
        LJMP    ?BANKED_LEAVE_XDATA
        CFI EndBlock cfiBlock66
//  836 
//  837 /**
//  838  *  @brief      Set max time between taps to register as a multi-tap.
//  839  *  @param[in]  time    Max milliseconds between taps.
//  840  *  @return     0 if successful.
//  841  */

        RSEG BANKED_CODE:CODE:NOROOT(0)
//  842 int dmp_set_tap_time_multi(unsigned short time)
dmp_set_tap_time_multi:
        CFI Block cfiBlock67 Using cfiCommon0
        CFI Function dmp_set_tap_time_multi
        CODE
//  843 {
        FUNCALL dmp_set_tap_time_multi, mpu_write_mem
        LOCFRAME ISTACK, 0, STACK
        LOCFRAME PSTACK, 0, STACK
        LOCFRAME XSTACK, 14, STACK
        LOCFRAME IOVERLAY, 0, STATIC
        LOCFRAME DOVERLAY, 0, STATIC
        ARGFRAME ISTACK, 0, STACK
        ARGFRAME PSTACK, 0, STACK
        ARGFRAME XSTACK, 14, STACK
        ARGFRAME IOVERLAY, 0, STATIC
        ARGFRAME DOVERLAY, 0, STATIC
        MOV     A,#-0xa
        LCALL   ?BANKED_ENTER_XDATA
        CFI DPH0 load(1, XDATA, add(CFA_XSP16, literal(-1)))
        CFI DPL0 load(1, XDATA, add(CFA_XSP16, literal(-2)))
        CFI ?BRET_EXT load(1, XDATA, add(CFA_XSP16, literal(-3)))
        CFI ?RET_HIGH load(1, XDATA, add(CFA_XSP16, literal(-4)))
        CFI ?RET_LOW load(1, XDATA, add(CFA_XSP16, literal(-5)))
        CFI R7 load(1, XDATA, add(CFA_XSP16, literal(-6)))
        CFI V1 load(1, XDATA, add(CFA_XSP16, literal(-7)))
        CFI V0 load(1, XDATA, add(CFA_XSP16, literal(-8)))
        CFI VB load(1, XDATA, add(CFA_XSP16, literal(-9)))
        CFI R6 load(1, XDATA, add(CFA_XSP16, literal(-10)))
        CFI CFA_SP SP+0
        CFI CFA_XSP16 add(XSP16, 10)
        ; Saved register size: 10
        ; Auto size: 2
        MOV     A,#-0x2
        LCALL   ?ALLOC_XSTACK8
        CFI CFA_XSP16 add(XSP16, 12)
//  844     unsigned short dmp_time;
//  845     unsigned char tmp[2];
//  846 
//  847     dmp_time = time / (1000 / DMP_SAMPLE_RATE);
        MOV     A,R2
        MOV     R0,A
        MOV     A,R3
        MOV     R1,A
        MOV     R2,#0x5
        MOV     R3,#0x0
        LCALL   ?US_DIV_MOD
//  848     tmp[0] = (unsigned char)(dmp_time >> 8);
        MOV     DPL,?XSP + 0
        MOV     DPH,?XSP + 1
        MOV     A,R1
        MOVX    @DPTR,A
//  849     tmp[1] = (unsigned char)(dmp_time & 0xFF);
        MOV     A,#0x1
        LCALL   ?XSTACK_DISP0_8
        MOV     A,R0
        LCALL   ??Subroutine47_0 & 0xFFFF
//  850     return mpu_write_mem(D_1_218, 2, tmp);
??CrossCallReturnLabel_86:
        LCALL   ?PUSH_XSTACK_I_TWO
        CFI CFA_XSP16 add(XSP16, 14)
        MOV     R4,#0x2
        MOV     R5,#0x0
        MOV     R2,#-0x26
        LJMP    ?Subroutine5 & 0xFFFF
        CFI EndBlock cfiBlock67
//  851 }
//  852 
//  853 /**
//  854  *  @brief      Set shake rejection threshold.
//  855  *  If the DMP detects a gyro sample larger than @e thresh, taps are rejected.
//  856  *  @param[in]  sf      Gyro scale factor.
//  857  *  @param[in]  thresh  Gyro threshold in dps.
//  858  *  @return     0 if successful.
//  859  */

        RSEG BANKED_CODE:CODE:NOROOT(0)
//  860 int dmp_set_shake_reject_thresh(long sf, unsigned short thresh)
dmp_set_shake_reject_thresh:
        CFI Block cfiBlock68 Using cfiCommon0
        CFI Function dmp_set_shake_reject_thresh
        CODE
//  861 {
        FUNCALL dmp_set_shake_reject_thresh, mpu_write_mem
        LOCFRAME ISTACK, 0, STACK
        LOCFRAME PSTACK, 0, STACK
        LOCFRAME XSTACK, 26, STACK
        LOCFRAME IOVERLAY, 0, STATIC
        LOCFRAME DOVERLAY, 0, STATIC
        ARGFRAME ISTACK, 0, STACK
        ARGFRAME PSTACK, 0, STACK
        ARGFRAME XSTACK, 26, STACK
        ARGFRAME IOVERLAY, 0, STATIC
        ARGFRAME DOVERLAY, 0, STATIC
        MOV     A,#-0x14
        LCALL   ?BANKED_ENTER_XDATA
        CFI DPH0 load(1, XDATA, add(CFA_XSP16, literal(-1)))
        CFI DPL0 load(1, XDATA, add(CFA_XSP16, literal(-2)))
        CFI ?BRET_EXT load(1, XDATA, add(CFA_XSP16, literal(-3)))
        CFI ?RET_HIGH load(1, XDATA, add(CFA_XSP16, literal(-4)))
        CFI ?RET_LOW load(1, XDATA, add(CFA_XSP16, literal(-5)))
        CFI R7 load(1, XDATA, add(CFA_XSP16, literal(-6)))
        CFI V11 load(1, XDATA, add(CFA_XSP16, literal(-7)))
        CFI V10 load(1, XDATA, add(CFA_XSP16, literal(-8)))
        CFI V9 load(1, XDATA, add(CFA_XSP16, literal(-9)))
        CFI V8 load(1, XDATA, add(CFA_XSP16, literal(-10)))
        CFI V7 load(1, XDATA, add(CFA_XSP16, literal(-11)))
        CFI V6 load(1, XDATA, add(CFA_XSP16, literal(-12)))
        CFI V5 load(1, XDATA, add(CFA_XSP16, literal(-13)))
        CFI V4 load(1, XDATA, add(CFA_XSP16, literal(-14)))
        CFI V3 load(1, XDATA, add(CFA_XSP16, literal(-15)))
        CFI V2 load(1, XDATA, add(CFA_XSP16, literal(-16)))
        CFI V1 load(1, XDATA, add(CFA_XSP16, literal(-17)))
        CFI V0 load(1, XDATA, add(CFA_XSP16, literal(-18)))
        CFI VB load(1, XDATA, add(CFA_XSP16, literal(-19)))
        CFI R6 load(1, XDATA, add(CFA_XSP16, literal(-20)))
        CFI CFA_SP SP+0
        CFI CFA_XSP16 add(XSP16, 20)
        ; Saved register size: 20
        ; Auto size: 4
        MOV     A,#-0x4
        LCALL   ?ALLOC_XSTACK8
        CFI CFA_XSP16 add(XSP16, 24)
        MOV     ?V0 + 4,R2
        MOV     ?V0 + 5,R3
        MOV     ?V0 + 6,R4
        MOV     ?V0 + 7,R5
        MOV     A,#0x18
        LCALL   ?XSTACK_DISP0_8
        MOVX    A,@DPTR
        MOV     ?V0 + 0,A
        INC     DPTR
        MOVX    A,@DPTR
        MOV     ?V0 + 1,A
//  862     unsigned char tmp[4];
//  863     long thresh_scaled = sf / 1000 * thresh;
        MOV     DPTR,#__Constant_3e8
        MOV     R0,#?V0 + 8
        LCALL   ?L_MOV_X
        MOV     R0,#?V0 + 4
        MOV     R1,#?V0 + 8
        LCALL   ?L_DIV_MOD
        CLR     A
        MOV     ?V0 + 2,A
