///////////////////////////////////////////////////////////////////////////////
//                                                                            /
// IAR C/C++ Compiler V8.10.3.10338/W32 for 8051        03/Jul/2019  09:45:18 /
// Copyright 2004-2011 IAR Systems AB.                                        /
//                                                                            /
//    Core               =  plain                                             /
//    Code model         =  banked                                            /
//    Data model         =  large                                             /
//    Calling convention =  xdata reentrant                                   /
//    Constant location  =  data_rom                                          /
//    Dptr setup         =  1,16                                              /
//    Source file        =  H:\项目\2019.5\旺旺（lwk474153686）\ZStack-2.5.1a /
//                          \Projects\zstack\Samples\SampleApp\Source\MPU6050 /
//                          \eMPL\inv_mpu.c                                   /
//    Command line       =  -f H:\项目\2019.5\旺旺（lwk474153686）\ZStack-2.5 /
//                          .1a\Projects\zstack\Samples\SampleApp\CC2530DB\.. /
//                          \..\..\Tools\CC2530DB\f8wCoord.cfg (-DCPU32MHZ    /
//                          -DROOT=__near_func -DMAC_CFG_APP_PENDING_QUEUE=TR /
//                          UE -DMAC_CFG_TX_DATA_MAX=5 -DMAC_CFG_TX_MAX=8     /
//                          -DMAC_CFG_RX_MAX=5 -DZDO_COORDINATOR -DRTR_NWK)   /
//                          -f H:\项目\2019.5\旺旺（lwk474153686）\ZStack-2.5 /
//                          .1a\Projects\zstack\Samples\SampleApp\CC2530DB\.. /
//                          \..\..\Tools\CC2530DB\f8wConfig.cfg (-DZIGBEEPRO  /
//                          -DSECURE=0 -DZG_SECURE_DYNAMIC=0 -DREFLECTOR      /
//                          -DDEFAULT_CHANLIST=0x00000800                     /
//                          -DZDAPP_CONFIG_PAN_ID=0xFFF1                      /
//                          -DNWK_START_DELAY=100 -DEXTENDED_JOINING_RANDOM_M /
//                          ASK=0x007F -DBEACON_REQUEST_DELAY=100             /
//                          -DBEACON_REQ_DELAY_MASK=0x00FF                    /
//                          -DLINK_STATUS_JITTER_MASK=0x007F                  /
//                          -DROUTE_EXPIRY_TIME=30 -DAPSC_ACK_WAIT_DURATION_P /
//                          OLLED=3000 -DNWK_INDIRECT_MSG_TIMEOUT=7           /
//                          -DMAX_RREQ_ENTRIES=8 -DAPSC_MAX_FRAME_RETRIES=3   /
//                          -DNWK_MAX_DATA_RETRIES=2                          /
//                          -DMAX_POLL_FAILURE_RETRIES=2 -DMAX_BCAST=9        /
//                          -DAPS_MAX_GROUPS=16 -DMAX_RTG_ENTRIES=40          /
//                          -DNWK_MAX_BINDING_ENTRIES=4                       /
//                          -DMAX_BINDING_CLUSTER_IDS=4                       /
//                          "-DDEFAULT_KEY={0x01, 0x03, 0x05, 0x07, 0x09,     /
//                          0x0B, 0x0D, 0x0F, 0x00, 0x02, 0x04, 0x06, 0x08,   /
//                          0x0A, 0x0C, 0x0D}" -DMAC_MAX_FRAME_SIZE=116       /
//                          -DZDNWKMGR_MIN_TRANSMISSIONS=20 "-DCONST=const    /
//                          __code" -DGENERIC=__generic                       /
//                          -DRFD_RCVC_ALWAYS_ON=FALSE -DPOLL_RATE=1000       /
//                          -DQUEUED_POLL_RATE=100 -DRESPONSE_POLL_RATE=100)  /
//                          -DREJOIN_POLL_RATE=440 H:\项目\2019.5\旺旺（lwk47 /
//                          4153686）\ZStack-2.5.1a\Projects\zstack\Samples\S /
//                          ampleApp\Source\MPU6050\eMPL\inv_mpu.c -D         /
//                          ZTOOL_P1 -D xMT_TASK -D xMT_SYS_FUNC -D           /
//                          xMT_ZDO_FUNC -D LCD_SUPPORTED=DEBUG -lC           /
//                          H:\项目\2019.5\旺旺（lwk474153686）\ZStack-2.5.1a /
//                          \Projects\zstack\Samples\SampleApp\CC2530DB\Coord /
//                          inatorEB\List\ -lA H:\项目\2019.5\旺旺（lwk474153 /
//                          686）\ZStack-2.5.1a\Projects\zstack\Samples\Sampl /
//                          eApp\CC2530DB\CoordinatorEB\List\                 /
//                          --diag_suppress Pe001,Pa010 -o                    /
//                          H:\项目\2019.5\旺旺（lwk474153686）\ZStack-2.5.1a /
//                          \Projects\zstack\Samples\SampleApp\CC2530DB\Coord /
//                          inatorEB\Obj\ -e --no_code_motion --debug         /
//                          --core=plain --dptr=16,1 --data_model=large       /
//                          --code_model=banked --calling_convention=xdata_re /
//                          entrant --place_constants=data_rom                /
//                          --nr_virtual_regs 16 -I                           /
//                          H:\项目\2019.5\旺旺（lwk474153686）\ZStack-2.5.1a /
//                          \Projects\zstack\Samples\SampleApp\CC2530DB\ -I   /
//                          H:\项目\2019.5\旺旺（lwk474153686）\ZStack-2.5.1a /
//                          \Projects\zstack\Samples\SampleApp\CC2530DB\..\So /
//                          urce\ -I H:\项目\2019.5\旺旺（lwk474153686）\ZSta /
//                          ck-2.5.1a\Projects\zstack\Samples\SampleApp\CC253 /
//                          0DB\..\Source\MPU6050\ -I                         /
//                          H:\项目\2019.5\旺旺（lwk474153686）\ZStack-2.5.1a /
//                          \Projects\zstack\Samples\SampleApp\CC2530DB\..\So /
//                          urce\MPU6050\eMPL\ -I H:\项目\2019.5\旺旺（lwk474 /
//                          153686）\ZStack-2.5.1a\Projects\zstack\Samples\Sa /
//                          mpleApp\CC2530DB\..\..\..\ZMain\TI2530DB\ -I      /
//                          H:\项目\2019.5\旺旺（lwk474153686）\ZStack-2.5.1a /
//                          \Projects\zstack\Samples\SampleApp\CC2530DB\..\.. /
//                          \..\..\..\Components\hal\include\ -I              /
//                          H:\项目\2019.5\旺旺（lwk474153686）\ZStack-2.5.1a /
//                          \Projects\zstack\Samples\SampleApp\CC2530DB\..\.. /
//                          \..\..\..\Components\hal\target\CC2530EB\ -I      /
//                          H:\项目\2019.5\旺旺（lwk474153686）\ZStack-2.5.1a /
//                          \Projects\zstack\Samples\SampleApp\CC2530DB\..\.. /
//                          \..\..\..\Components\mac\include\ -I              /
//                          H:\项目\2019.5\旺旺（lwk474153686）\ZStack-2.5.1a /
//                          \Projects\zstack\Samples\SampleApp\CC2530DB\..\.. /
//                          \..\..\..\Components\mac\high_level\ -I           /
//                          H:\项目\2019.5\旺旺（lwk474153686）\ZStack-2.5.1a /
//                          \Projects\zstack\Samples\SampleApp\CC2530DB\..\.. /
//                          \..\..\..\Components\mac\low_level\srf04\ -I      /
//                          H:\项目\2019.5\旺旺（lwk474153686）\ZStack-2.5.1a /
//                          \Projects\zstack\Samples\SampleApp\CC2530DB\..\.. /
//                          \..\..\..\Components\mac\low_level\srf04\single_c /
//                          hip\ -I H:\项目\2019.5\旺旺（lwk474153686）\ZStac /
//                          k-2.5.1a\Projects\zstack\Samples\SampleApp\CC2530 /
//                          DB\..\..\..\..\..\Components\mt\ -I               /
//                          H:\项目\2019.5\旺旺（lwk474153686）\ZStack-2.5.1a /
//                          \Projects\zstack\Samples\SampleApp\CC2530DB\..\.. /
//                          \..\..\..\Components\osal\include\ -I             /
//                          H:\项目\2019.5\旺旺（lwk474153686）\ZStack-2.5.1a /
//                          \Projects\zstack\Samples\SampleApp\CC2530DB\..\.. /
//                          \..\..\..\Components\services\saddr\ -I           /
//                          H:\项目\2019.5\旺旺（lwk474153686）\ZStack-2.5.1a /
//                          \Projects\zstack\Samples\SampleApp\CC2530DB\..\.. /
//                          \..\..\..\Components\services\sdata\ -I           /
//                          H:\项目\2019.5\旺旺（lwk474153686）\ZStack-2.5.1a /
//                          \Projects\zstack\Samples\SampleApp\CC2530DB\..\.. /
//                          \..\..\..\Components\stack\af\ -I                 /
//                          H:\项目\2019.5\旺旺（lwk474153686）\ZStack-2.5.1a /
//                          \Projects\zstack\Samples\SampleApp\CC2530DB\..\.. /
//                          \..\..\..\Components\stack\nwk\ -I                /
//                          H:\项目\2019.5\旺旺（lwk474153686）\ZStack-2.5.1a /
//                          \Projects\zstack\Samples\SampleApp\CC2530DB\..\.. /
//                          \..\..\..\Components\stack\sapi\ -I               /
//                          H:\项目\2019.5\旺旺（lwk474153686）\ZStack-2.5.1a /
//                          \Projects\zstack\Samples\SampleApp\CC2530DB\..\.. /
//                          \..\..\..\Components\stack\sec\ -I                /
//                          H:\项目\2019.5\旺旺（lwk474153686）\ZStack-2.5.1a /
//                          \Projects\zstack\Samples\SampleApp\CC2530DB\..\.. /
//                          \..\..\..\Components\stack\sys\ -I                /
//                          H:\项目\2019.5\旺旺（lwk474153686）\ZStack-2.5.1a /
//                          \Projects\zstack\Samples\SampleApp\CC2530DB\..\.. /
//                          \..\..\..\Components\stack\zdo\ -I                /
//                          H:\项目\2019.5\旺旺（lwk474153686）\ZStack-2.5.1a /
//                          \Projects\zstack\Samples\SampleApp\CC2530DB\..\.. /
//                          \..\..\..\Components\zmac\ -I                     /
//                          H:\项目\2019.5\旺旺（lwk474153686）\ZStack-2.5.1a /
//                          \Projects\zstack\Samples\SampleApp\CC2530DB\..\.. /
//                          \..\..\..\Components\zmac\f8w\ -Ohz               /
//    List file          =  H:\项目\2019.5\旺旺（lwk474153686）\ZStack-2.5.1a /
//                          \Projects\zstack\Samples\SampleApp\CC2530DB\Coord /
//                          inatorEB\List\inv_mpu.s51                         /
//                                                                            /
//                                                                            /
///////////////////////////////////////////////////////////////////////////////

        NAME inv_mpu

        RTMODEL "__SystemLibrary", "CLib"
        RTMODEL "__calling_convention", "xdata_reentrant"
        RTMODEL "__code_model", "banked"
        RTMODEL "__core", "plain"
        RTMODEL "__data_model", "large"
        RTMODEL "__dptr_size", "16"
        RTMODEL "__extended_stack", "disabled"
        RTMODEL "__location_for_constants", "data"
        RTMODEL "__number_of_dptrs", "1"
        RTMODEL "__rt_version", "1"

        RSEG DOVERLAY:DATA:NOROOT(0)
        RSEG IOVERLAY:IDATA:NOROOT(0)
        RSEG ISTACK:IDATA:NOROOT(0)
        RSEG PSTACK:XDATA:NOROOT(0)
        RSEG XSTACK:XDATA:NOROOT(0)

        EXTERN ?ALLOC_XSTACK8
        EXTERN ?BANKED_ENTER_XDATA
        EXTERN ?BANKED_LEAVE_XDATA
        EXTERN ?BDISPATCH
        EXTERN ?BRET
        EXTERN ?DEALLOC_XSTACK8
        EXTERN ?FLT_ADD
        EXTERN ?FLT_DIV
        EXTERN ?FLT_EQ
        EXTERN ?FLT_GE
        EXTERN ?FLT_LT
        EXTERN ?FLT_MUL
        EXTERN ?FLT_SUB
        EXTERN ?FLT_TO_L
        EXTERN ?L_ADD_TO_X
        EXTERN ?L_DIV_MOD
        EXTERN ?L_MOV_TO_X
        EXTERN ?L_MOV_X
        EXTERN ?L_MUL
        EXTERN ?L_SHL
        EXTERN ?L_SUB_X
        EXTERN ?L_TO_FLT
        EXTERN ?MOVE_LONG8_XDATA_XDATA
        EXTERN ?PUSH_XSTACK8_X_FOUR
        EXTERN ?PUSH_XSTACK_I_FOUR
        EXTERN ?PUSH_XSTACK_I_TWO
        EXTERN ?SL_GT_X
        EXTERN ?SS_SHR
        EXTERN ?S_DIV_MOD
        EXTERN ?S_SHL
        EXTERN ?UL_DIV_MOD
        EXTERN ?UL_SHR
        EXTERN ?UL_TO_FLT
        EXTERN ?US_DIV_MOD
        EXTERN ?US_SHR
        EXTERN ?US_SWITCH_SPARSE
        EXTERN ?V0
        EXTERN ?XLOAD_R2345
        EXTERN ?XSP
        EXTERN ?XSTACK_DISP0_8
        EXTERN ?XSTORE_R2345
        EXTERN __INIT_XDATA_I

        FUNCTION ??accel_self_test?relay,0203H
        FUNCTION ??get_accel_prod_shift?relay,0203H
        FUNCTION ??get_st_biases?relay,0203H
        FUNCTION ??gyro_self_test?relay,0203H
        PUBLIC ??inv_orientation_matrix_to_scalar?relay
        FUNCTION ??inv_orientation_matrix_to_scalar?relay,0203H
        PUBLIC ??inv_row_2_scale?relay
        FUNCTION ??inv_row_2_scale?relay,0203H
        PUBLIC ??mget_ms?relay
        FUNCTION ??mget_ms?relay,0203H
        PUBLIC ??mpu_configure_fifo?relay
        FUNCTION ??mpu_configure_fifo?relay,0203H
        PUBLIC ??mpu_dmp_get_data?relay
        FUNCTION ??mpu_dmp_get_data?relay,0203H
        PUBLIC ??mpu_dmp_init?relay
        FUNCTION ??mpu_dmp_init?relay,0203H
        PUBLIC ??mpu_get_accel_fsr?relay
        FUNCTION ??mpu_get_accel_fsr?relay,0203H
        PUBLIC ??mpu_get_accel_reg?relay
        FUNCTION ??mpu_get_accel_reg?relay,0203H
        PUBLIC ??mpu_get_accel_sens?relay
        FUNCTION ??mpu_get_accel_sens?relay,0203H
        PUBLIC ??mpu_get_compass_fsr?relay
        FUNCTION ??mpu_get_compass_fsr?relay,0203H
        PUBLIC ??mpu_get_compass_reg?relay
        FUNCTION ??mpu_get_compass_reg?relay,0203H
        PUBLIC ??mpu_get_compass_sample_rate?relay
        FUNCTION ??mpu_get_compass_sample_rate?relay,0203H
        PUBLIC ??mpu_get_dmp_state?relay
        FUNCTION ??mpu_get_dmp_state?relay,0203H
        PUBLIC ??mpu_get_fifo_config?relay
        FUNCTION ??mpu_get_fifo_config?relay,0203H
        PUBLIC ??mpu_get_gyro_fsr?relay
        FUNCTION ??mpu_get_gyro_fsr?relay,0203H
        PUBLIC ??mpu_get_gyro_reg?relay
        FUNCTION ??mpu_get_gyro_reg?relay,0203H
        PUBLIC ??mpu_get_gyro_sens?relay
        FUNCTION ??mpu_get_gyro_sens?relay,0203H
        PUBLIC ??mpu_get_int_status?relay
        FUNCTION ??mpu_get_int_status?relay,0203H
        PUBLIC ??mpu_get_lpf?relay
        FUNCTION ??mpu_get_lpf?relay,0203H
        PUBLIC ??mpu_get_power_state?relay
        FUNCTION ??mpu_get_power_state?relay,0203H
        PUBLIC ??mpu_get_sample_rate?relay
        FUNCTION ??mpu_get_sample_rate?relay,0203H
        PUBLIC ??mpu_get_temperature?relay
        FUNCTION ??mpu_get_temperature?relay,0203H
        PUBLIC ??mpu_init?relay
        FUNCTION ??mpu_init?relay,0203H
        PUBLIC ??mpu_load_firmware?relay
        FUNCTION ??mpu_load_firmware?relay,0203H
        PUBLIC ??mpu_lp_accel_mode?relay
        FUNCTION ??mpu_lp_accel_mode?relay,0203H
        PUBLIC ??mpu_lp_motion_interrupt?relay
        FUNCTION ??mpu_lp_motion_interrupt?relay,0203H
        PUBLIC ??mpu_read_fifo?relay
        FUNCTION ??mpu_read_fifo?relay,0203H
        PUBLIC ??mpu_read_fifo_stream?relay
        FUNCTION ??mpu_read_fifo_stream?relay,0203H
        PUBLIC ??mpu_read_mem?relay
        FUNCTION ??mpu_read_mem?relay,0203H
        PUBLIC ??mpu_read_reg?relay
        FUNCTION ??mpu_read_reg?relay,0203H
        PUBLIC ??mpu_reg_dump?relay
        FUNCTION ??mpu_reg_dump?relay,0203H
        PUBLIC ??mpu_reset_fifo?relay
        FUNCTION ??mpu_reset_fifo?relay,0203H
        PUBLIC ??mpu_run_self_test?relay
        FUNCTION ??mpu_run_self_test?relay,0203H
        PUBLIC ??mpu_set_accel_bias?relay
        FUNCTION ??mpu_set_accel_bias?relay,0203H
        PUBLIC ??mpu_set_accel_fsr?relay
        FUNCTION ??mpu_set_accel_fsr?relay,0203H
        PUBLIC ??mpu_set_bypass?relay
        FUNCTION ??mpu_set_bypass?relay,0203H
        PUBLIC ??mpu_set_compass_sample_rate?relay
        FUNCTION ??mpu_set_compass_sample_rate?relay,0203H
        PUBLIC ??mpu_set_dmp_state?relay
        FUNCTION ??mpu_set_dmp_state?relay,0203H
        PUBLIC ??mpu_set_gyro_fsr?relay
        FUNCTION ??mpu_set_gyro_fsr?relay,0203H
        PUBLIC ??mpu_set_int_latched?relay
        FUNCTION ??mpu_set_int_latched?relay,0203H
        PUBLIC ??mpu_set_int_level?relay
        FUNCTION ??mpu_set_int_level?relay,0203H
        PUBLIC ??mpu_set_lpf?relay
        FUNCTION ??mpu_set_lpf?relay,0203H
        PUBLIC ??mpu_set_sample_rate?relay
        FUNCTION ??mpu_set_sample_rate?relay,0203H
        PUBLIC ??mpu_set_sensors?relay
        FUNCTION ??mpu_set_sensors?relay,0203H
        PUBLIC ??mpu_write_mem?relay
        FUNCTION ??mpu_write_mem?relay,0203H
        PUBLIC ??run_self_test?relay
        FUNCTION ??run_self_test?relay,0203H
        FUNCTION ??set_int_enable?relay,0203H
        PUBLIC ??setup_compass?relay
        FUNCTION ??setup_compass?relay,0203H
        PUBWEAK __Constant_0
        PUBWEAK __Constant_1
        PUBWEAK __Constant_10000
        PUBWEAK __Constant_30800000
        PUBWEAK __Constant_37800000
        PUBWEAK __Constant_3e99999a
        PUBWEAK __Constant_3eae147b
        PUBWEAK __Constant_3f733334
        PUBWEAK __Constant_3f800000
        PUBWEAK __Constant_3f845a1d
        PUBWEAK __Constant_3f85e354
        PUBWEAK __Constant_40000000
        PUBWEAK __Constant_41200000
        PUBWEAK __Constant_41833333
        PUBWEAK __Constant_41c80000
        PUBWEAK __Constant_42033333
        PUBWEAK __Constant_420c0000
        PUBWEAK __Constant_42653333
        PUBWEAK __Constant_42830000
        PUBWEAK __Constant_42d20001
        PUBWEAK __Constant_43030000
        PUBWEAK __Constant_47800000
        PUBWEAK __Constant_83
        PUBWEAK __Constant_bf800000
        PUBWEAK __Constant_c0000000
        PUBWEAK __Constant_ffff0000
        FUNCTION accel_self_test,021203H
        ARGFRAME XSTACK, 48, STACK
        ARGFRAME IOVERLAY, 0, STATIC
        ARGFRAME DOVERLAY, 0, STATIC
        LOCFRAME XSTACK, 38, STACK
        FUNCTION get_accel_prod_shift,021203H
        ARGFRAME XSTACK, 38, STACK
        ARGFRAME IOVERLAY, 0, STATIC
        ARGFRAME DOVERLAY, 0, STATIC
        LOCFRAME ISTACK, 1, STACK
        LOCFRAME XSTACK, 25, STACK
        FUNCTION get_st_biases,021203H
        ARGFRAME XSTACK, 48, STACK
        ARGFRAME IOVERLAY, 0, STATIC
        ARGFRAME DOVERLAY, 0, STATIC
        LOCFRAME ISTACK, 2, STACK
        LOCFRAME XSTACK, 47, STACK
        FUNCTION gyro_self_test,021203H
        ARGFRAME XSTACK, 48, STACK
        ARGFRAME IOVERLAY, 0, STATIC
        ARGFRAME DOVERLAY, 0, STATIC
        LOCFRAME XSTACK, 29, STACK
        PUBLIC hw
        PUBLIC inv_orientation_matrix_to_scalar
        FUNCTION inv_orientation_matrix_to_scalar,021203H
        ARGFRAME XSTACK, 10, STACK
        ARGFRAME IOVERLAY, 0, STATIC
        ARGFRAME DOVERLAY, 0, STATIC
        LOCFRAME XSTACK, 14, STACK
        PUBLIC inv_row_2_scale
        FUNCTION inv_row_2_scale,0203H
        ARGFRAME XSTACK, 14, STACK
        ARGFRAME IOVERLAY, 0, STATIC
        ARGFRAME DOVERLAY, 0, STATIC
        LOCFRAME ISTACK, 2, STACK
        PUBLIC mget_ms
        FUNCTION mget_ms,0203H
        ARGFRAME XSTACK, 0, STACK
        PUBLIC mpu_configure_fifo
        FUNCTION mpu_configure_fifo,021203H
        ARGFRAME XSTACK, 48, STACK
        ARGFRAME IOVERLAY, 0, STATIC
        ARGFRAME DOVERLAY, 0, STATIC
        LOCFRAME XSTACK, 12, STACK
        PUBLIC mpu_dmp_get_data
        FUNCTION mpu_dmp_get_data,021203H
        ARGFRAME XSTACK, 2, STACK
        LOCFRAME ISTACK, 4, STACK
        LOCFRAME XSTACK, 207, STACK
        PUBLIC mpu_dmp_init
        FUNCTION mpu_dmp_init,021203H
        ARGFRAME XSTACK, 0, STACK
        LOCFRAME XSTACK, 10, STACK
        PUBLIC mpu_get_accel_fsr
        FUNCTION mpu_get_accel_fsr,0203H
        ARGFRAME XSTACK, 48, STACK
        ARGFRAME IOVERLAY, 0, STATIC
        ARGFRAME DOVERLAY, 0, STATIC
        LOCFRAME ISTACK, 3, STACK
        PUBLIC mpu_get_accel_reg
        FUNCTION mpu_get_accel_reg,021203H
        ARGFRAME XSTACK, 0, STACK
        LOCFRAME XSTACK, 15, STACK
        PUBLIC mpu_get_accel_sens
        FUNCTION mpu_get_accel_sens,0203H
        ARGFRAME XSTACK, 46, STACK
        ARGFRAME IOVERLAY, 0, STATIC
        ARGFRAME DOVERLAY, 0, STATIC
        LOCFRAME ISTACK, 2, STACK
        PUBLIC mpu_get_compass_fsr
        FUNCTION mpu_get_compass_fsr,0203H
        ARGFRAME XSTACK, 0, STACK
        PUBLIC mpu_get_compass_reg
        FUNCTION mpu_get_compass_reg,0203H
        ARGFRAME XSTACK, 0, STACK
        PUBLIC mpu_get_compass_sample_rate
        FUNCTION mpu_get_compass_sample_rate,0203H
        ARGFRAME XSTACK, 0, STACK
        LOCFRAME ISTACK, 2, STACK
        PUBLIC mpu_get_dmp_state
        FUNCTION mpu_get_dmp_state,0203H
        ARGFRAME XSTACK, 0, STACK
        LOCFRAME ISTACK, 3, STACK
        PUBLIC mpu_get_fifo_config
        FUNCTION mpu_get_fifo_config,0203H
        ARGFRAME XSTACK, 48, STACK
        ARGFRAME IOVERLAY, 0, STATIC
        ARGFRAME DOVERLAY, 0, STATIC
        LOCFRAME ISTACK, 3, STACK
        PUBLIC mpu_get_gyro_fsr
        FUNCTION mpu_get_gyro_fsr,0203H
        ARGFRAME XSTACK, 48, STACK
        ARGFRAME IOVERLAY, 0, STATIC
        ARGFRAME DOVERLAY, 0, STATIC
        LOCFRAME ISTACK, 2, STACK
        PUBLIC mpu_get_gyro_reg
        FUNCTION mpu_get_gyro_reg,021203H
        ARGFRAME XSTACK, 0, STACK
        LOCFRAME XSTACK, 15, STACK
        PUBLIC mpu_get_gyro_sens
        FUNCTION mpu_get_gyro_sens,0203H
        ARGFRAME XSTACK, 46, STACK
        ARGFRAME IOVERLAY, 0, STATIC
        ARGFRAME DOVERLAY, 0, STATIC
        LOCFRAME XSTACK, 9, STACK
        PUBLIC mpu_get_int_status
        FUNCTION mpu_get_int_status,021203H
        ARGFRAME XSTACK, 0, STACK
        LOCFRAME XSTACK, 11, STACK
        PUBLIC mpu_get_lpf
        FUNCTION mpu_get_lpf,0203H
        ARGFRAME XSTACK, 48, STACK
        ARGFRAME IOVERLAY, 0, STATIC
        ARGFRAME DOVERLAY, 0, STATIC
        LOCFRAME ISTACK, 2, STACK
        PUBLIC mpu_get_power_state
        FUNCTION mpu_get_power_state,0203H
        ARGFRAME XSTACK, 0, STACK
        LOCFRAME ISTACK, 2, STACK
        PUBLIC mpu_get_sample_rate
        FUNCTION mpu_get_sample_rate,0203H
        ARGFRAME XSTACK, 48, STACK
        ARGFRAME IOVERLAY, 0, STATIC
        ARGFRAME DOVERLAY, 0, STATIC
        LOCFRAME ISTACK, 2, STACK
        PUBLIC mpu_get_temperature
        FUNCTION mpu_get_temperature,021203H
        ARGFRAME XSTACK, 0, STACK
        LOCFRAME XSTACK, 18, STACK
        PUBLIC mpu_init
        FUNCTION mpu_init,021203H
        ARGFRAME XSTACK, 10, STACK
        ARGFRAME IOVERLAY, 0, STATIC
        ARGFRAME DOVERLAY, 0, STATIC
        LOCFRAME XSTACK, 18, STACK
        PUBLIC mpu_load_firmware
        FUNCTION mpu_load_firmware,021203H
        ARGFRAME XSTACK, 4, STACK
        LOCFRAME ISTACK, 1, STACK
        LOCFRAME XSTACK, 40, STACK
        PUBLIC mpu_lp_accel_mode
        FUNCTION mpu_lp_accel_mode,021203H
        ARGFRAME XSTACK, 13, STACK
        ARGFRAME IOVERLAY, 0, STATIC
        ARGFRAME DOVERLAY, 0, STATIC
        LOCFRAME ISTACK, 1, STACK
        LOCFRAME XSTACK, 11, STACK
        PUBLIC mpu_lp_motion_interrupt
        FUNCTION mpu_lp_motion_interrupt,021203H
        ARGFRAME XSTACK, 0, STACK
        LOCFRAME ISTACK, 1, STACK
        LOCFRAME XSTACK, 13, STACK
        PUBLIC mpu_read_fifo
        FUNCTION mpu_read_fifo,021203H
        ARGFRAME XSTACK, 6, STACK
        LOCFRAME ISTACK, 1, STACK
        LOCFRAME XSTACK, 34, STACK
        PUBLIC mpu_read_fifo_stream
        FUNCTION mpu_read_fifo_stream,021203H
        ARGFRAME XSTACK, 2, STACK
        LOCFRAME ISTACK, 1, STACK
        LOCFRAME XSTACK, 16, STACK
        PUBLIC mpu_read_mem
        FUNCTION mpu_read_mem,021203H
        ARGFRAME XSTACK, 40, STACK
        ARGFRAME IOVERLAY, 0, STATIC
        ARGFRAME DOVERLAY, 0, STATIC
        LOCFRAME ISTACK, 2, STACK
        LOCFRAME XSTACK, 12, STACK
        PUBLIC mpu_read_reg
        FUNCTION mpu_read_reg,021203H
        ARGFRAME XSTACK, 0, STACK
        LOCFRAME XSTACK, 9, STACK
        PUBLIC mpu_reg_dump
        FUNCTION mpu_reg_dump,021203H
        ARGFRAME XSTACK, 0, STACK
        LOCFRAME XSTACK, 15, STACK
        PUBLIC mpu_reset_fifo
        FUNCTION mpu_reset_fifo,021203H
        ARGFRAME XSTACK, 34, STACK
        ARGFRAME IOVERLAY, 0, STATIC
        ARGFRAME DOVERLAY, 0, STATIC
        LOCFRAME ISTACK, 2, STACK
        LOCFRAME XSTACK, 1, STACK
        PUBLIC mpu_run_self_test
        FUNCTION mpu_run_self_test,021203H
        ARGFRAME XSTACK, 46, STACK
        ARGFRAME IOVERLAY, 0, STATIC
        ARGFRAME DOVERLAY, 0, STATIC
        LOCFRAME XSTACK, 48, STACK
        PUBLIC mpu_set_accel_bias
        FUNCTION mpu_set_accel_bias,021203H
        ARGFRAME XSTACK, 0, STACK
        LOCFRAME ISTACK, 1, STACK
        LOCFRAME XSTACK, 40, STACK
        PUBLIC mpu_set_accel_fsr
        FUNCTION mpu_set_accel_fsr,021203H
        ARGFRAME XSTACK, 48, STACK
        ARGFRAME IOVERLAY, 0, STATIC
        ARGFRAME DOVERLAY, 0, STATIC
        LOCFRAME XSTACK, 10, STACK
        PUBLIC mpu_set_bypass
        FUNCTION mpu_set_bypass,021203H
        ARGFRAME XSTACK, 16, STACK
        ARGFRAME IOVERLAY, 0, STATIC
        ARGFRAME DOVERLAY, 0, STATIC
        LOCFRAME XSTACK, 10, STACK
        PUBLIC mpu_set_compass_sample_rate
        FUNCTION mpu_set_compass_sample_rate,0203H
        ARGFRAME XSTACK, 0, STACK
        PUBLIC mpu_set_dmp_state
        FUNCTION mpu_set_dmp_state,021203H
        ARGFRAME XSTACK, 48, STACK
        ARGFRAME IOVERLAY, 0, STATIC
        ARGFRAME DOVERLAY, 0, STATIC
        LOCFRAME ISTACK, 1, STACK
        LOCFRAME XSTACK, 10, STACK
        PUBLIC mpu_set_gyro_fsr
        FUNCTION mpu_set_gyro_fsr,0a1203H
        ARGFRAME XSTACK, 48, STACK
        ARGFRAME IOVERLAY, 0, STATIC
        ARGFRAME DOVERLAY, 0, STATIC
        LOCFRAME XSTACK, 11, STACK
        PUBLIC mpu_set_int_latched
        FUNCTION mpu_set_int_latched,021203H
        ARGFRAME XSTACK, 11, STACK
        ARGFRAME IOVERLAY, 0, STATIC
        ARGFRAME DOVERLAY, 0, STATIC
        LOCFRAME XSTACK, 10, STACK
        PUBLIC mpu_set_int_level
        FUNCTION mpu_set_int_level,0203H
        ARGFRAME XSTACK, 0, STACK
        LOCFRAME ISTACK, 2, STACK
        PUBLIC mpu_set_lpf
        FUNCTION mpu_set_lpf,021203H
        ARGFRAME XSTACK, 48, STACK
        ARGFRAME IOVERLAY, 0, STATIC
        ARGFRAME DOVERLAY, 0, STATIC
        LOCFRAME ISTACK, 2, STACK
        LOCFRAME XSTACK, 1, STACK
        PUBLIC mpu_set_sample_rate
        FUNCTION mpu_set_sample_rate,021203H
        ARGFRAME XSTACK, 48, STACK
        ARGFRAME IOVERLAY, 0, STATIC
        ARGFRAME DOVERLAY, 0, STATIC
        LOCFRAME ISTACK, 1, STACK
        LOCFRAME XSTACK, 10, STACK
        PUBLIC mpu_set_sensors
        FUNCTION mpu_set_sensors,021203H
        ARGFRAME XSTACK, 48, STACK
        ARGFRAME IOVERLAY, 0, STATIC
        ARGFRAME DOVERLAY, 0, STATIC
        LOCFRAME XSTACK, 10, STACK
        PUBLIC mpu_write_mem
        FUNCTION mpu_write_mem,021203H
        ARGFRAME XSTACK, 40, STACK
        ARGFRAME IOVERLAY, 0, STATIC
        ARGFRAME DOVERLAY, 0, STATIC
        LOCFRAME ISTACK, 2, STACK
        LOCFRAME XSTACK, 12, STACK
        PUBLIC reg
        PUBLIC run_self_test
        FUNCTION run_self_test,021203H
        ARGFRAME XSTACK, 0, STACK
        LOCFRAME XSTACK, 46, STACK
        FUNCTION set_int_enable,021203H
        ARGFRAME XSTACK, 13, STACK
        ARGFRAME IOVERLAY, 0, STATIC
        ARGFRAME DOVERLAY, 0, STATIC
        LOCFRAME XSTACK, 10, STACK
        PUBLIC setup_compass
        FUNCTION setup_compass,0203H
        ARGFRAME XSTACK, 0, STACK
        PUBLIC test
        
        CFI Names cfiNames0
        CFI StackFrame CFA_SP SP IDATA
        CFI StackFrame CFA_PSP16 PSP16 XDATA
        CFI StackFrame CFA_XSP16 XSP16 XDATA
        CFI StaticOverlayFrame CFA_IOVERLAY IOVERLAY
        CFI StaticOverlayFrame CFA_DOVERLAY DOVERLAY
        CFI Resource `PSW.CY`:1, `B.BR0`:1, `B.BR1`:1, `B.BR2`:1, `B.BR3`:1
        CFI Resource `B.BR4`:1, `B.BR5`:1, `B.BR6`:1, `B.BR7`:1, `VB.BR8`:1
        CFI Resource `VB.BR9`:1, `VB.BR10`:1, `VB.BR11`:1, `VB.BR12`:1
        CFI Resource `VB.BR13`:1, `VB.BR14`:1, `VB.BR15`:1, VB:8, B:8, A:8
        CFI Resource PSW:8, DPL0:8, DPH0:8, R0:8, R1:8, R2:8, R3:8, R4:8, R5:8
        CFI Resource R6:8, R7:8, V0:8, V1:8, V2:8, V3:8, V4:8, V5:8, V6:8, V7:8
        CFI Resource V8:8, V9:8, V10:8, V11:8, V12:8, V13:8, V14:8, V15:8, SP:8
        CFI Resource PSPH:8, PSPL:8, PSP16:16, XSPH:8, XSPL:8, XSP16:16
        CFI VirtualResource ?RET:24
        CFI Resource ?BRET_EXT:8
        CFI VirtualResource ?RET_HIGH:8, ?RET_LOW:8
        CFI ResourceParts PSP16 PSPH, PSPL
        CFI ResourceParts XSP16 XSPH, XSPL
        CFI ResourceParts ?RET ?BRET_EXT, ?RET_HIGH, ?RET_LOW
        CFI EndNames cfiNames0
        
        CFI Common cfiCommon0 Using cfiNames0
        CFI CodeAlign 1
        CFI DataAlign -1
        CFI ReturnAddress ?RET CODE
        CFI CFA_DOVERLAY Used
        CFI CFA_IOVERLAY Used
        CFI CFA_SP SP+-3
        CFI CFA_PSP16 PSP16+0
        CFI CFA_XSP16 XSP16+0
        CFI `PSW.CY` SameValue
        CFI `B.BR0` SameValue
        CFI `B.BR1` SameValue
        CFI `B.BR2` SameValue
        CFI `B.BR3` SameValue
        CFI `B.BR4` SameValue
        CFI `B.BR5` SameValue
        CFI `B.BR6` SameValue
        CFI `B.BR7` SameValue
        CFI `VB.BR8` SameValue
        CFI `VB.BR9` SameValue
        CFI `VB.BR10` SameValue
        CFI `VB.BR11` SameValue
        CFI `VB.BR12` SameValue
        CFI `VB.BR13` SameValue
        CFI `VB.BR14` SameValue
        CFI `VB.BR15` SameValue
        CFI VB SameValue
        CFI B Undefined
        CFI A Undefined
        CFI PSW SameValue
        CFI DPL0 SameValue
        CFI DPH0 SameValue
        CFI R0 Undefined
        CFI R1 Undefined
        CFI R2 Undefined
        CFI R3 Undefined
        CFI R4 Undefined
        CFI R5 Undefined
        CFI R6 SameValue
        CFI R7 SameValue
        CFI V0 SameValue
        CFI V1 SameValue
        CFI V2 SameValue
        CFI V3 SameValue
        CFI V4 SameValue
        CFI V5 SameValue
        CFI V6 SameValue
        CFI V7 SameValue
        CFI V8 SameValue
        CFI V9 SameValue
        CFI V10 SameValue
        CFI V11 SameValue
        CFI V12 SameValue
        CFI V13 SameValue
        CFI V14 SameValue
        CFI V15 SameValue
        CFI PSPH Undefined
        CFI PSPL Undefined
        CFI XSPH Undefined
        CFI XSPL Undefined
        CFI ?RET Concat
        CFI ?BRET_EXT Frame(CFA_SP, 3)
        CFI ?RET_HIGH Frame(CFA_SP, 2)
        CFI ?RET_LOW Frame(CFA_SP, 1)
        CFI EndCommon cfiCommon0
        
        
        CFI Common cfiCommon1 Using cfiNames0
        CFI CodeAlign 1
        CFI DataAlign -1
        CFI ReturnAddress ?RET CODE
        CFI CFA_DOVERLAY Used
        CFI CFA_IOVERLAY Used
        CFI CFA_SP SP+-2
        CFI CFA_PSP16 PSP16+0
        CFI CFA_XSP16 XSP16+0
        CFI `PSW.CY` SameValue
        CFI `B.BR0` SameValue
        CFI `B.BR1` SameValue
        CFI `B.BR2` SameValue
        CFI `B.BR3` SameValue
        CFI `B.BR4` SameValue
        CFI `B.BR5` SameValue
        CFI `B.BR6` SameValue
        CFI `B.BR7` SameValue
        CFI `VB.BR8` SameValue
        CFI `VB.BR9` SameValue
        CFI `VB.BR10` SameValue
        CFI `VB.BR11` SameValue
        CFI `VB.BR12` SameValue
        CFI `VB.BR13` SameValue
        CFI `VB.BR14` SameValue
        CFI `VB.BR15` SameValue
        CFI VB SameValue
        CFI B SameValue
        CFI A SameValue
        CFI PSW SameValue
        CFI DPL0 SameValue
        CFI DPH0 SameValue
        CFI R0 SameValue
        CFI R1 SameValue
        CFI R2 SameValue
        CFI R3 SameValue
        CFI R4 SameValue
        CFI R5 SameValue
        CFI R6 SameValue
        CFI R7 SameValue
        CFI V0 SameValue
        CFI V1 SameValue
        CFI V2 SameValue
        CFI V3 SameValue
        CFI V4 SameValue
        CFI V5 SameValue
        CFI V6 SameValue
        CFI V7 SameValue
        CFI V8 SameValue
        CFI V9 SameValue
        CFI V10 SameValue
        CFI V11 SameValue
        CFI V12 SameValue
        CFI V13 SameValue
        CFI V14 SameValue
        CFI V15 SameValue
        CFI PSPH Undefined
        CFI PSPL Undefined
        CFI XSPH Undefined
        CFI XSPL Undefined
        CFI ?RET Concat
        CFI ?BRET_EXT SameValue
        CFI ?RET_HIGH Frame(CFA_SP, 2)
        CFI ?RET_LOW Frame(CFA_SP, 1)
        CFI EndCommon cfiCommon1
        
MPU_Write_Len       SYMBOL "MPU_Write_Len"
printf              SYMBOL "printf"
MPU_Read_Len        SYMBOL "MPU_Read_Len"
delay_ms            SYMBOL "delay_ms"
memset              SYMBOL "memset"
labs                SYMBOL "labs"
fabsf               SYMBOL "fabsf"
memcmp              SYMBOL "memcmp"
dmp_set_gyro_bias   SYMBOL "dmp_set_gyro_bias"
dmp_set_accel_bias  SYMBOL "dmp_set_accel_bias"
MPU_IIC_Init        SYMBOL "MPU_IIC_Init"
dmp_load_motion_driver_firmware SYMBOL "dmp_load_motion_driver_firmware"
dmp_set_orientation SYMBOL "dmp_set_orientation"
dmp_enable_feature  SYMBOL "dmp_enable_feature"
dmp_set_fifo_rate   SYMBOL "dmp_set_fifo_rate"
dmp_read_fifo       SYMBOL "dmp_read_fifo"
asin                SYMBOL "asin"
atan2               SYMBOL "atan2"
sprintf             SYMBOL "sprintf"
osal_strlen         SYMBOL "osal_strlen"
HalUARTWrite        SYMBOL "HalUARTWrite"
??HalUARTWrite?relay SYMBOL "?relay", HalUARTWrite
??MPU_IIC_Init?relay SYMBOL "?relay", MPU_IIC_Init
??MPU_Read_Len?relay SYMBOL "?relay", MPU_Read_Len
??MPU_Write_Len?relay SYMBOL "?relay", MPU_Write_Len
??asin?relay        SYMBOL "?relay", asin
??atan2?relay       SYMBOL "?relay", atan2
??delay_ms?relay    SYMBOL "?relay", delay_ms
??dmp_enable_feature?relay SYMBOL "?relay", dmp_enable_feature
??dmp_load_motion_driver_firmware?relay SYMBOL "?relay", dmp_load_motion_driver_firmware
??dmp_read_fifo?relay SYMBOL "?relay", dmp_read_fifo
??dmp_set_accel_bias?relay SYMBOL "?relay", dmp_set_accel_bias
??dmp_set_fifo_rate?relay SYMBOL "?relay", dmp_set_fifo_rate
??dmp_set_gyro_bias?relay SYMBOL "?relay", dmp_set_gyro_bias
??dmp_set_orientation?relay SYMBOL "?relay", dmp_set_orientation
??fabsf?relay       SYMBOL "?relay", fabsf
??labs?relay        SYMBOL "?relay", labs
??memcmp?relay      SYMBOL "?relay", memcmp
??memset?relay      SYMBOL "?relay", memset
??osal_strlen?relay SYMBOL "?relay", osal_strlen
??printf?relay      SYMBOL "?relay", printf
??sprintf?relay     SYMBOL "?relay", sprintf
inv_orientation_matrix_to_scalar SYMBOL "inv_orientation_matrix_to_scalar"
??inv_orientation_matrix_to_scalar?relay SYMBOL "?relay", inv_orientation_matrix_to_scalar
inv_row_2_scale     SYMBOL "inv_row_2_scale"
??inv_row_2_scale?relay SYMBOL "?relay", inv_row_2_scale
mget_ms             SYMBOL "mget_ms"
??mget_ms?relay     SYMBOL "?relay", mget_ms
mpu_configure_fifo  SYMBOL "mpu_configure_fifo"
??mpu_configure_fifo?relay SYMBOL "?relay", mpu_configure_fifo
mpu_dmp_get_data    SYMBOL "mpu_dmp_get_data"
??mpu_dmp_get_data?relay SYMBOL "?relay", mpu_dmp_get_data
mpu_dmp_init        SYMBOL "mpu_dmp_init"
??mpu_dmp_init?relay SYMBOL "?relay", mpu_dmp_init
mpu_get_accel_fsr   SYMBOL "mpu_get_accel_fsr"
??mpu_get_accel_fsr?relay SYMBOL "?relay", mpu_get_accel_fsr
mpu_get_accel_reg   SYMBOL "mpu_get_accel_reg"
??mpu_get_accel_reg?relay SYMBOL "?relay", mpu_get_accel_reg
mpu_get_accel_sens  SYMBOL "mpu_get_accel_sens"
??mpu_get_accel_sens?relay SYMBOL "?relay", mpu_get_accel_sens
mpu_get_compass_fsr SYMBOL "mpu_get_compass_fsr"
??mpu_get_compass_fsr?relay SYMBOL "?relay", mpu_get_compass_fsr
mpu_get_compass_reg SYMBOL "mpu_get_compass_reg"
??mpu_get_compass_reg?relay SYMBOL "?relay", mpu_get_compass_reg
mpu_get_compass_sample_rate SYMBOL "mpu_get_compass_sample_rate"
??mpu_get_compass_sample_rate?relay SYMBOL "?relay", mpu_get_compass_sample_rate
mpu_get_dmp_state   SYMBOL "mpu_get_dmp_state"
??mpu_get_dmp_state?relay SYMBOL "?relay", mpu_get_dmp_state
mpu_get_fifo_config SYMBOL "mpu_get_fifo_config"
??mpu_get_fifo_config?relay SYMBOL "?relay", mpu_get_fifo_config
mpu_get_gyro_fsr    SYMBOL "mpu_get_gyro_fsr"
??mpu_get_gyro_fsr?relay SYMBOL "?relay", mpu_get_gyro_fsr
mpu_get_gyro_reg    SYMBOL "mpu_get_gyro_reg"
??mpu_get_gyro_reg?relay SYMBOL "?relay", mpu_get_gyro_reg
mpu_get_gyro_sens   SYMBOL "mpu_get_gyro_sens"
??mpu_get_gyro_sens?relay SYMBOL "?relay", mpu_get_gyro_sens
mpu_get_int_status  SYMBOL "mpu_get_int_status"
??mpu_get_int_status?relay SYMBOL "?relay", mpu_get_int_status
mpu_get_lpf         SYMBOL "mpu_get_lpf"
??mpu_get_lpf?relay SYMBOL "?relay", mpu_get_lpf
mpu_get_power_state SYMBOL "mpu_get_power_state"
??mpu_get_power_state?relay SYMBOL "?relay", mpu_get_power_state
mpu_get_sample_rate SYMBOL "mpu_get_sample_rate"
??mpu_get_sample_rate?relay SYMBOL "?relay", mpu_get_sample_rate
mpu_get_temperature SYMBOL "mpu_get_temperature"
??mpu_get_temperature?relay SYMBOL "?relay", mpu_get_temperature
mpu_init            SYMBOL "mpu_init"
??mpu_init?relay    SYMBOL "?relay", mpu_init
mpu_load_firmware   SYMBOL "mpu_load_firmware"
??mpu_load_firmware?relay SYMBOL "?relay", mpu_load_firmware
mpu_lp_accel_mode   SYMBOL "mpu_lp_accel_mode"
??mpu_lp_accel_mode?relay SYMBOL "?relay", mpu_lp_accel_mode
mpu_lp_motion_interrupt SYMBOL "mpu_lp_motion_interrupt"
??mpu_lp_motion_interrupt?relay SYMBOL "?relay", mpu_lp_motion_interrupt
mpu_read_fifo       SYMBOL "mpu_read_fifo"
??mpu_read_fifo?relay SYMBOL "?relay", mpu_read_fifo
mpu_read_fifo_stream SYMBOL "mpu_read_fifo_stream"
??mpu_read_fifo_stream?relay SYMBOL "?relay", mpu_read_fifo_stream
mpu_read_mem        SYMBOL "mpu_read_mem"
??mpu_read_mem?relay SYMBOL "?relay", mpu_read_mem
mpu_read_reg        SYMBOL "mpu_read_reg"
??mpu_read_reg?relay SYMBOL "?relay", mpu_read_reg
mpu_reg_dump        SYMBOL "mpu_reg_dump"
??mpu_reg_dump?relay SYMBOL "?relay", mpu_reg_dump
mpu_reset_fifo      SYMBOL "mpu_reset_fifo"
??mpu_reset_fifo?relay SYMBOL "?relay", mpu_reset_fifo
mpu_run_self_test   SYMBOL "mpu_run_self_test"
??mpu_run_self_test?relay SYMBOL "?relay", mpu_run_self_test
mpu_set_accel_bias  SYMBOL "mpu_set_accel_bias"
??mpu_set_accel_bias?relay SYMBOL "?relay", mpu_set_accel_bias
mpu_set_accel_fsr   SYMBOL "mpu_set_accel_fsr"
??mpu_set_accel_fsr?relay SYMBOL "?relay", mpu_set_accel_fsr
mpu_set_bypass      SYMBOL "mpu_set_bypass"
??mpu_set_bypass?relay SYMBOL "?relay", mpu_set_bypass
mpu_set_compass_sample_rate SYMBOL "mpu_set_compass_sample_rate"
??mpu_set_compass_sample_rate?relay SYMBOL "?relay", mpu_set_compass_sample_rate
mpu_set_dmp_state   SYMBOL "mpu_set_dmp_state"
??mpu_set_dmp_state?relay SYMBOL "?relay", mpu_set_dmp_state
mpu_set_gyro_fsr    SYMBOL "mpu_set_gyro_fsr"
??mpu_set_gyro_fsr?relay SYMBOL "?relay", mpu_set_gyro_fsr
mpu_set_int_latched SYMBOL "mpu_set_int_latched"
??mpu_set_int_latched?relay SYMBOL "?relay", mpu_set_int_latched
mpu_set_int_level   SYMBOL "mpu_set_int_level"
??mpu_set_int_level?relay SYMBOL "?relay", mpu_set_int_level
mpu_set_lpf         SYMBOL "mpu_set_lpf"
??mpu_set_lpf?relay SYMBOL "?relay", mpu_set_lpf
mpu_set_sample_rate SYMBOL "mpu_set_sample_rate"
??mpu_set_sample_rate?relay SYMBOL "?relay", mpu_set_sample_rate
mpu_set_sensors     SYMBOL "mpu_set_sensors"
??mpu_set_sensors?relay SYMBOL "?relay", mpu_set_sensors
mpu_write_mem       SYMBOL "mpu_write_mem"
??mpu_write_mem?relay SYMBOL "?relay", mpu_write_mem
run_self_test       SYMBOL "run_self_test"
??run_self_test?relay SYMBOL "?relay", run_self_test
setup_compass       SYMBOL "setup_compass"
??setup_compass?relay SYMBOL "?relay", setup_compass

        EXTERN MPU_Write_Len
        FUNCTION MPU_Write_Len,0202H
        ARGFRAME ISTACK, 2, STACK
        ARGFRAME PSTACK, 0, STACK
        ARGFRAME XSTACK, 47, STACK
        ARGFRAME IOVERLAY, 0, STATIC
        ARGFRAME DOVERLAY, 0, STATIC
        EXTERN printf
        FUNCTION printf,0202H
        ARGFRAME ISTACK, 0, STACK
        ARGFRAME PSTACK, 0, STACK
        ARGFRAME XSTACK, 18, STACK
        ARGFRAME IOVERLAY, 0, STATIC
        ARGFRAME DOVERLAY, 0, STATIC
        EXTERN MPU_Read_Len
        FUNCTION MPU_Read_Len,0202H
        ARGFRAME ISTACK, 0, STACK
        ARGFRAME PSTACK, 0, STACK
        ARGFRAME XSTACK, 47, STACK
        ARGFRAME IOVERLAY, 0, STATIC
        ARGFRAME DOVERLAY, 0, STATIC
        EXTERN delay_ms
        FUNCTION delay_ms,0202H
        ARGFRAME ISTACK, 2, STACK
        ARGFRAME PSTACK, 0, STACK
        ARGFRAME XSTACK, 47, STACK
        ARGFRAME IOVERLAY, 0, STATIC
        ARGFRAME DOVERLAY, 0, STATIC
        EXTERN memset
        FUNCTION memset,010202H
        ARGFRAME ISTACK, 0, STACK
        ARGFRAME PSTACK, 0, STACK
        ARGFRAME XSTACK, 18, STACK
        ARGFRAME IOVERLAY, 0, STATIC
        ARGFRAME DOVERLAY, 0, STATIC
        EXTERN labs
        FUNCTION labs,010202H
        ARGFRAME ISTACK, 0, STACK
        ARGFRAME PSTACK, 0, STACK
        ARGFRAME XSTACK, 38, STACK
        ARGFRAME IOVERLAY, 0, STATIC
        ARGFRAME DOVERLAY, 0, STATIC
        EXTERN fabsf
        FUNCTION fabsf,0200H
        ARGFRAME ISTACK, 0, STACK
        ARGFRAME PSTACK, 0, STACK
        ARGFRAME XSTACK, 38, STACK
        ARGFRAME IOVERLAY, 0, STATIC
        ARGFRAME DOVERLAY, 0, STATIC
        EXTERN memcmp
        FUNCTION memcmp,010202H
        ARGFRAME ISTACK, 0, STACK
        ARGFRAME PSTACK, 0, STACK
        ARGFRAME XSTACK, 40, STACK
        ARGFRAME IOVERLAY, 0, STATIC
        ARGFRAME DOVERLAY, 0, STATIC
        EXTERN dmp_set_gyro_bias
        FUNCTION dmp_set_gyro_bias,0202H
        ARGFRAME ISTACK, 0, STACK
        ARGFRAME PSTACK, 0, STACK
        ARGFRAME XSTACK, 46, STACK
        ARGFRAME IOVERLAY, 0, STATIC
        ARGFRAME DOVERLAY, 0, STATIC
        EXTERN dmp_set_accel_bias
        FUNCTION dmp_set_accel_bias,0202H
        ARGFRAME ISTACK, 0, STACK
        ARGFRAME PSTACK, 0, STACK
        ARGFRAME XSTACK, 46, STACK
        ARGFRAME IOVERLAY, 0, STATIC
        ARGFRAME DOVERLAY, 0, STATIC
        EXTERN MPU_IIC_Init
        FUNCTION MPU_IIC_Init,0202H
        ARGFRAME ISTACK, 0, STACK
        ARGFRAME PSTACK, 0, STACK
        ARGFRAME XSTACK, 10, STACK
        ARGFRAME IOVERLAY, 0, STATIC
        ARGFRAME DOVERLAY, 0, STATIC
        EXTERN dmp_load_motion_driver_firmware
        FUNCTION dmp_load_motion_driver_firmware,0202H
        ARGFRAME ISTACK, 0, STACK
        ARGFRAME PSTACK, 0, STACK
        ARGFRAME XSTACK, 10, STACK
        ARGFRAME IOVERLAY, 0, STATIC
        ARGFRAME DOVERLAY, 0, STATIC
        EXTERN dmp_set_orientation
        FUNCTION dmp_set_orientation,0202H
        ARGFRAME ISTACK, 0, STACK
        ARGFRAME PSTACK, 0, STACK
        ARGFRAME XSTACK, 10, STACK
        ARGFRAME IOVERLAY, 0, STATIC
        ARGFRAME DOVERLAY, 0, STATIC
        EXTERN dmp_enable_feature
        FUNCTION dmp_enable_feature,0202H
        ARGFRAME ISTACK, 0, STACK
        ARGFRAME PSTACK, 0, STACK
        ARGFRAME XSTACK, 10, STACK
        ARGFRAME IOVERLAY, 0, STATIC
        ARGFRAME DOVERLAY, 0, STATIC
        EXTERN dmp_set_fifo_rate
        FUNCTION dmp_set_fifo_rate,0202H
        ARGFRAME ISTACK, 0, STACK
        ARGFRAME PSTACK, 0, STACK
        ARGFRAME XSTACK, 10, STACK
        ARGFRAME IOVERLAY, 0, STATIC
        ARGFRAME DOVERLAY, 0, STATIC
        EXTERN dmp_read_fifo
        FUNCTION dmp_read_fifo,0202H
        ARGFRAME ISTACK, 0, STACK
        ARGFRAME PSTACK, 0, STACK
        ARGFRAME XSTACK, 187, STACK
        ARGFRAME IOVERLAY, 0, STATIC
        ARGFRAME DOVERLAY, 0, STATIC
        EXTERN asin
        FUNCTION asin,010202H
        ARGFRAME ISTACK, 0, STACK
        ARGFRAME PSTACK, 0, STACK
        ARGFRAME XSTACK, 179, STACK
        ARGFRAME IOVERLAY, 0, STATIC
        ARGFRAME DOVERLAY, 0, STATIC
        EXTERN atan2
        FUNCTION atan2,010202H
        ARGFRAME ISTACK, 0, STACK
        ARGFRAME PSTACK, 0, STACK
        ARGFRAME XSTACK, 183, STACK
        ARGFRAME IOVERLAY, 0, STATIC
        ARGFRAME DOVERLAY, 0, STATIC
        EXTERN sprintf
        FUNCTION sprintf,0202H
        ARGFRAME ISTACK, 0, STACK
        ARGFRAME PSTACK, 0, STACK
        ARGFRAME XSTACK, 207, STACK
        ARGFRAME IOVERLAY, 0, STATIC
        ARGFRAME DOVERLAY, 0, STATIC
        EXTERN osal_strlen
        FUNCTION osal_strlen,0202H
        ARGFRAME ISTACK, 0, STACK
        ARGFRAME PSTACK, 0, STACK
        ARGFRAME XSTACK, 179, STACK
        ARGFRAME IOVERLAY, 0, STATIC
        ARGFRAME DOVERLAY, 0, STATIC
        EXTERN HalUARTWrite
        FUNCTION HalUARTWrite,0202H
        ARGFRAME ISTACK, 0, STACK
        ARGFRAME PSTACK, 0, STACK
        ARGFRAME XSTACK, 179, STACK
        ARGFRAME IOVERLAY, 0, STATIC
        ARGFRAME DOVERLAY, 0, STATIC
        EXTERN ??HalUARTWrite?relay
        FUNCTION ??HalUARTWrite?relay,00H
        EXTERN ??MPU_IIC_Init?relay
        FUNCTION ??MPU_IIC_Init?relay,00H
        EXTERN ??MPU_Read_Len?relay
        FUNCTION ??MPU_Read_Len?relay,00H
        EXTERN ??MPU_Write_Len?relay
        FUNCTION ??MPU_Write_Len?relay,00H
        EXTERN ??asin?relay
        FUNCTION ??asin?relay,00H
        EXTERN ??atan2?relay
        FUNCTION ??atan2?relay,00H
        EXTERN ??delay_ms?relay
        FUNCTION ??delay_ms?relay,00H
        EXTERN ??dmp_enable_feature?relay
        FUNCTION ??dmp_enable_feature?relay,00H
        EXTERN ??dmp_load_motion_driver_firmware?relay
        FUNCTION ??dmp_load_motion_driver_firmware?relay,00H
        EXTERN ??dmp_read_fifo?relay
        FUNCTION ??dmp_read_fifo?relay,00H
        EXTERN ??dmp_set_accel_bias?relay
        FUNCTION ??dmp_set_accel_bias?relay,00H
        EXTERN ??dmp_set_fifo_rate?relay
        FUNCTION ??dmp_set_fifo_rate?relay,00H
        EXTERN ??dmp_set_gyro_bias?relay
        FUNCTION ??dmp_set_gyro_bias?relay,00H
        EXTERN ??dmp_set_orientation?relay
        FUNCTION ??dmp_set_orientation?relay,00H
        EXTERN ??fabsf?relay
        FUNCTION ??fabsf?relay,00H
        EXTERN ??labs?relay
        FUNCTION ??labs?relay,00H
        EXTERN ??memcmp?relay
        FUNCTION ??memcmp?relay,00H
        EXTERN ??memset?relay
        FUNCTION ??memset?relay,00H
        EXTERN ??osal_strlen?relay
        FUNCTION ??osal_strlen?relay,00H
        EXTERN ??printf?relay
        FUNCTION ??printf?relay,00H
        EXTERN ??sprintf?relay
        FUNCTION ??sprintf?relay,00H

// H:\项目\2019.5\旺旺（lwk474153686）\ZStack-2.5.1a\Projects\zstack\Samples\SampleApp\Source\MPU6050\eMPL\inv_mpu.c
//    1 /*
//    2  $License:
//    3     Copyright (C) 2011-2012 InvenSense Corporation, All Rights Reserved.
//    4     See included License.txt for License information.
//    5  $
//    6  */
//    7 /**
//    8  *  @addtogroup  DRIVERS Sensor Driver Layer
//    9  *  @brief       Hardware drivers to communicate with sensors via I2C.
//   10  *
//   11  *  @{
//   12  *      @file       inv_mpu.c
//   13  *      @brief      An I2C-based driver for Invensense gyroscopes.
//   14  *      @details    This driver currently works for the following devices:
//   15  *                  MPU6050
//   16  *                  MPU6500
//   17  *                  MPU9150 (or MPU6050 w/ AK8975 on the auxiliary bus)
//   18  *                  MPU9250 (or MPU6500 w/ AK8963 on the auxiliary bus)
//   19  */
//   20 #include <stdio.h>
//   21 //#include <stdint.h>
//   22 #include <stdlib.h>
//   23 #include <string.h>
//   24 #include <math.h>
//   25 #include "inv_mpu.h"
//   26 #include "inv_mpu_dmp_motion_driver.h"
//   27 #include "mpu6050.h"
//   28 #include "delay.h"
//   29 //#include "usart.h"
//   30 
//   31 
//   32 #define MPU6050							//定义我们使用的传感器为MPU6050
//   33 #define MOTION_DRIVER_TARGET_MSP430		//定义驱动部分,采用MSP430的驱动(移植到STM32F1)
//   34 
//   35 /* The following functions must be defined for this platform:
//   36  * i2c_write(unsigned char slave_addr, unsigned char reg_addr,
//   37  *      unsigned char length, unsigned char const *data)
//   38  * i2c_read(unsigned char slave_addr, unsigned char reg_addr,
//   39  *      unsigned char length, unsigned char *data)
//   40  * delay_ms(unsigned long num_ms)
//   41  * get_ms(unsigned long *count)
//   42  * reg_int_cb(void (*cb)(void), unsigned char port, unsigned char pin)
//   43  * labs(long x)
//   44  * fabsf(float x)
//   45  * min(int a, int b)
//   46  */
//   47 
//   48 
//   49 #if defined MOTION_DRIVER_TARGET_MSP430
//   50 //#include "msp430.h"
//   51 //#include "msp430_i2c.h"
//   52 //#include "msp430_clock.h"
//   53 //#include "msp430_interrupt.h"
//   54 
//   55 #define i2c_write   MPU_Write_Len
//   56 #define i2c_read    MPU_Read_Len
//   57 #define delay_ms    delay_ms
//   58 #define get_ms      mget_ms
//   59 //static inline int reg_int_cb(struct int_param_s *int_param)
//   60 //{
//   61 //    return msp430_reg_int_cb(int_param->cb, int_param->pin, int_param->lp_exit,
//   62 //        int_param->active_low);
//   63 //}
//   64 #define log_i 	printf	//打印信息
//   65 #define log_e  	printf	//打印信息
//   66 /* labs is already defined by TI's toolchain. */
//   67 /* fabs is for doubles. fabsf is for floats. */
//   68 #define fabs        fabsf
//   69 //#define fabs        fabs
//   70 #define min(a,b) ((a<b)?a:b)
//   71 #elif defined EMPL_TARGET_MSP430
//   72 #include "msp430.h"
//   73 #include "msp430_i2c.h"
//   74 #include "msp430_clock.h"
//   75 #include "msp430_interrupt.h"
//   76 #include "log.h"
//   77 #define i2c_write   msp430_i2c_write
//   78 #define i2c_read    msp430_i2c_read
//   79 #define delay_ms    msp430_delay_ms
//   80 #define get_ms      msp430_get_clock_ms
//   81 static inline int reg_int_cb(struct int_param_s *int_param)
//   82 {
//   83     return msp430_reg_int_cb(int_param->cb, int_param->pin, int_param->lp_exit,
//   84         int_param->active_low);
//   85 }
//   86 #define log_i       MPL_LOGI
//   87 #define log_e       MPL_LOGE
//   88 /* labs is already defined by TI's toolchain. */
//   89 /* fabs is for doubles. fabsf is for floats. */
//   90 #define fabs        fabsf
//   91 #define min(a,b) ((a<b)?a:b)
//   92 #elif defined EMPL_TARGET_UC3L0
//   93 /* Instead of using the standard TWI driver from the ASF library, we're using
//   94  * a TWI driver that follows the slave address + register address convention.
//   95  */
//   96 #include "twi.h"
//   97 #include "delay.h"
//   98 #include "sysclk.h"
//   99 #include "log.h"
//  100 #include "sensors_xplained.h"
//  101 #include "uc3l0_clock.h"
//  102 #define i2c_write(a, b, c, d)   twi_write(a, b, d, c)
//  103 #define i2c_read(a, b, c, d)    twi_read(a, b, d, c)
//  104 /* delay_ms is a function already defined in ASF. */
//  105 #define get_ms  uc3l0_get_clock_ms
//  106 static inline int reg_int_cb(struct int_param_s *int_param)
//  107 {
//  108     sensor_board_irq_connect(int_param->pin, int_param->cb, int_param->arg);
//  109     return 0;
//  110 }
//  111 #define log_i       MPL_LOGI
//  112 #define log_e       MPL_LOGE
//  113 /* UC3 is a 32-bit processor, so abs and labs are equivalent. */
//  114 #define labs        abs
//  115 #define fabs(x)     (((x)>0)?(x):-(x))
//  116 #else
//  117 #error  Gyro driver is missing the system layer implementations.
//  118 #endif
//  119 
//  120 #if !defined MPU6050 && !defined MPU9150 && !defined MPU6500 && !defined MPU9250
//  121 #error  Which gyro are you using? Define MPUxxxx in your compiler options.
//  122 #endif
//  123 
//  124 /* Time for some messy macro work. =]
//  125  * #define MPU9150
//  126  * is equivalent to..
//  127  * #define MPU6050
//  128  * #define AK8975_SECONDARY
//  129  *
//  130  * #define MPU9250
//  131  * is equivalent to..
//  132  * #define MPU6500
//  133  * #define AK8963_SECONDARY
//  134  */
//  135 #if defined MPU9150
//  136 #ifndef MPU6050
//  137 #define MPU6050
//  138 #endif                          /* #ifndef MPU6050 */
//  139 #if defined AK8963_SECONDARY
//  140 #error "MPU9150 and AK8963_SECONDARY cannot both be defined."
//  141 #elif !defined AK8975_SECONDARY /* #if defined AK8963_SECONDARY */
//  142 #define AK8975_SECONDARY
//  143 #endif                          /* #if defined AK8963_SECONDARY */
//  144 #elif defined MPU9250           /* #if defined MPU9150 */
//  145 #ifndef MPU6500
//  146 #define MPU6500
//  147 #endif                          /* #ifndef MPU6500 */
//  148 #if defined AK8975_SECONDARY
//  149 #error "MPU9250 and AK8975_SECONDARY cannot both be defined."
//  150 #elif !defined AK8963_SECONDARY /* #if defined AK8975_SECONDARY */
//  151 #define AK8963_SECONDARY
//  152 #endif                          /* #if defined AK8975_SECONDARY */
//  153 #endif                          /* #if defined MPU9150 */
//  154 
//  155 #if defined AK8975_SECONDARY || defined AK8963_SECONDARY
//  156 #define AK89xx_SECONDARY
//  157 #else
//  158 /* #warning "No compass = less profit for Invensense. Lame." */
//  159 #endif
//  160 
//  161 static int set_int_enable(unsigned char enable);
//  162 
//  163 /* Hardware registers needed by driver. */
//  164 struct gyro_reg_s {
//  165     unsigned char who_am_i;
//  166     unsigned char rate_div;
//  167     unsigned char lpf;
//  168     unsigned char prod_id;
//  169     unsigned char user_ctrl;
//  170     unsigned char fifo_en;
//  171     unsigned char gyro_cfg;
//  172     unsigned char accel_cfg;
//  173 //    unsigned char accel_cfg2;
//  174 //    unsigned char lp_accel_odr;
//  175     unsigned char motion_thr;
//  176     unsigned char motion_dur;
//  177     unsigned char fifo_count_h;
//  178     unsigned char fifo_r_w;
//  179     unsigned char raw_gyro;
//  180     unsigned char raw_accel;
//  181     unsigned char temp;
//  182     unsigned char int_enable;
//  183     unsigned char dmp_int_status;
//  184     unsigned char int_status;
//  185 //    unsigned char accel_intel;
//  186     unsigned char pwr_mgmt_1;
//  187     unsigned char pwr_mgmt_2;
//  188     unsigned char int_pin_cfg;
//  189     unsigned char mem_r_w;
//  190     unsigned char accel_offs;
//  191     unsigned char i2c_mst;
//  192     unsigned char bank_sel;
//  193     unsigned char mem_start_addr;
//  194     unsigned char prgm_start_h;
//  195 #if defined AK89xx_SECONDARY
//  196     unsigned char s0_addr;
//  197     unsigned char s0_reg;
//  198     unsigned char s0_ctrl;
//  199     unsigned char s1_addr;
//  200     unsigned char s1_reg;
//  201     unsigned char s1_ctrl;
//  202     unsigned char s4_ctrl;
//  203     unsigned char s0_do;
//  204     unsigned char s1_do;
//  205     unsigned char i2c_delay_ctrl;
//  206     unsigned char raw_compass;
//  207     /* The I2C_MST_VDDIO bit is in this register. */
//  208     unsigned char yg_offs_tc;
//  209 #endif
//  210 };
//  211 
//  212 /* Information specific to a particular device. */
//  213 struct hw_s {
//  214     unsigned char addr;
//  215     unsigned short max_fifo;
//  216     unsigned char num_reg;
//  217     unsigned short temp_sens;
//  218     short temp_offset;
//  219     unsigned short bank_size;
//  220 #if defined AK89xx_SECONDARY
//  221     unsigned short compass_fsr;
//  222 #endif
//  223 };
//  224 
//  225 /* When entering motion interrupt mode, the driver keeps track of the
//  226  * previous state so that it can be restored at a later time.
//  227  * TODO: This is tacky. Fix it.
//  228  */
//  229 struct motion_int_cache_s {
//  230     unsigned short gyro_fsr;
//  231     unsigned char accel_fsr;
//  232     unsigned short lpf;
//  233     unsigned short sample_rate;
//  234     unsigned char sensors_on;
//  235     unsigned char fifo_sensors;
//  236     unsigned char dmp_on;
//  237 };
//  238 
//  239 /* Cached chip configuration data.
//  240  * TODO: A lot of these can be handled with a bitmask.
//  241  */
//  242 struct chip_cfg_s {
//  243     /* Matches gyro_cfg >> 3 & 0x03 */
//  244     unsigned char gyro_fsr;
//  245     /* Matches accel_cfg >> 3 & 0x03 */
//  246     unsigned char accel_fsr;
//  247     /* Enabled sensors. Uses same masks as fifo_en, NOT pwr_mgmt_2. */
//  248     unsigned char sensors;
//  249     /* Matches config register. */
//  250     unsigned char lpf;
//  251     unsigned char clk_src;
//  252     /* Sample rate, NOT rate divider. */
//  253     unsigned short sample_rate;
//  254     /* Matches fifo_en register. */
//  255     unsigned char fifo_enable;
//  256     /* Matches int enable register. */
//  257     unsigned char int_enable;
//  258     /* 1 if devices on auxiliary I2C bus appear on the primary. */
//  259     unsigned char bypass_mode;
//  260     /* 1 if half-sensitivity.
//  261      * NOTE: This doesn't belong here, but everything else in hw_s is const,
//  262      * and this allows us to save some precious RAM.
//  263      */
//  264     unsigned char accel_half;
//  265     /* 1 if device in low-power accel-only mode. */
//  266     unsigned char lp_accel_mode;
//  267     /* 1 if interrupts are only triggered on motion events. */
//  268     unsigned char int_motion_only;
//  269     struct motion_int_cache_s cache;
//  270     /* 1 for active low interrupts. */
//  271     unsigned char active_low_int;
//  272     /* 1 for latched interrupts. */
//  273     unsigned char latched_int;
//  274     /* 1 if DMP is enabled. */
//  275     unsigned char dmp_on;
//  276     /* Ensures that DMP will only be loaded once. */
//  277     unsigned char dmp_loaded;
//  278     /* Sampling rate used when DMP is enabled. */
//  279     unsigned short dmp_sample_rate;
//  280 #ifdef AK89xx_SECONDARY
//  281     /* Compass sample rate. */
//  282     unsigned short compass_sample_rate;
//  283     unsigned char compass_addr;
//  284     short mag_sens_adj[3];
//  285 #endif
//  286 };
//  287 
//  288 /* Information for self-test. */
//  289 struct test_s {
//  290     unsigned long gyro_sens;
//  291     unsigned long accel_sens;
//  292     unsigned char reg_rate_div;
//  293     unsigned char reg_lpf;
//  294     unsigned char reg_gyro_fsr;
//  295     unsigned char reg_accel_fsr;
//  296     unsigned short wait_ms;
//  297     unsigned char packet_thresh;
//  298     float min_dps;
//  299     float max_dps;
//  300     float max_gyro_var;
//  301     float min_g;
//  302     float max_g;
//  303     float max_accel_var;
//  304 };
//  305 
//  306 /* Gyro driver state variables. */
//  307 struct gyro_state_s {
//  308     const struct gyro_reg_s *reg;
//  309     const struct hw_s *hw;
//  310     struct chip_cfg_s chip_cfg;
//  311     const struct test_s *test;
//  312 };
//  313 
//  314 /* Filter configurations. */
//  315 enum lpf_e {
//  316     INV_FILTER_256HZ_NOLPF2 = 0,
//  317     INV_FILTER_188HZ,
//  318     INV_FILTER_98HZ,
//  319     INV_FILTER_42HZ,
//  320     INV_FILTER_20HZ,
//  321     INV_FILTER_10HZ,
//  322     INV_FILTER_5HZ,
//  323     INV_FILTER_2100HZ_NOLPF,
//  324     NUM_FILTER
//  325 };
//  326 
//  327 /* Full scale ranges. */
//  328 enum gyro_fsr_e {
//  329     INV_FSR_250DPS = 0,
//  330     INV_FSR_500DPS,
//  331     INV_FSR_1000DPS,
//  332     INV_FSR_2000DPS,
//  333     NUM_GYRO_FSR
//  334 };
//  335 
//  336 /* Full scale ranges. */
//  337 enum accel_fsr_e {
//  338     INV_FSR_2G = 0,
//  339     INV_FSR_4G,
//  340     INV_FSR_8G,
//  341     INV_FSR_16G,
//  342     NUM_ACCEL_FSR
//  343 };
//  344 
//  345 /* Clock sources. */
//  346 enum clock_sel_e {
//  347     INV_CLK_INTERNAL = 0,
//  348     INV_CLK_PLL,
//  349     NUM_CLK
//  350 };
//  351 
//  352 /* Low-power accel wakeup rates. */
//  353 enum lp_accel_rate_e {
//  354 #if defined MPU6050
//  355     INV_LPA_1_25HZ,
//  356     INV_LPA_5HZ,
//  357     INV_LPA_20HZ,
//  358     INV_LPA_40HZ
//  359 #elif defined MPU6500
//  360     INV_LPA_0_3125HZ,
//  361     INV_LPA_0_625HZ,
//  362     INV_LPA_1_25HZ,
//  363     INV_LPA_2_5HZ,
//  364     INV_LPA_5HZ,
//  365     INV_LPA_10HZ,
//  366     INV_LPA_20HZ,
//  367     INV_LPA_40HZ,
//  368     INV_LPA_80HZ,
//  369     INV_LPA_160HZ,
//  370     INV_LPA_320HZ,
//  371     INV_LPA_640HZ
//  372 #endif
//  373 };
//  374 
//  375 #define BIT_I2C_MST_VDDIO   (0x80)
//  376 #define BIT_FIFO_EN         (0x40)
//  377 #define BIT_DMP_EN          (0x80)
//  378 #define BIT_FIFO_RST        (0x04)
//  379 #define BIT_DMP_RST         (0x08)
//  380 #define BIT_FIFO_OVERFLOW   (0x10)
//  381 #define BIT_DATA_RDY_EN     (0x01)
//  382 #define BIT_DMP_INT_EN      (0x02)
//  383 #define BIT_MOT_INT_EN      (0x40)
//  384 #define BITS_FSR            (0x18)
//  385 #define BITS_LPF            (0x07)
//  386 #define BITS_HPF            (0x07)
//  387 #define BITS_CLK            (0x07)
//  388 #define BIT_FIFO_SIZE_1024  (0x40)
//  389 #define BIT_FIFO_SIZE_2048  (0x80)
//  390 #define BIT_FIFO_SIZE_4096  (0xC0)
//  391 #define BIT_RESET           (0x80)
//  392 #define BIT_SLEEP           (0x40)
//  393 #define BIT_S0_DELAY_EN     (0x01)
//  394 #define BIT_S2_DELAY_EN     (0x04)
//  395 #define BITS_SLAVE_LENGTH   (0x0F)
//  396 #define BIT_SLAVE_BYTE_SW   (0x40)
//  397 #define BIT_SLAVE_GROUP     (0x10)
//  398 #define BIT_SLAVE_EN        (0x80)
//  399 #define BIT_I2C_READ        (0x80)
//  400 #define BITS_I2C_MASTER_DLY (0x1F)
//  401 #define BIT_AUX_IF_EN       (0x20)
//  402 #define BIT_ACTL            (0x80)
//  403 #define BIT_LATCH_EN        (0x20)
//  404 #define BIT_ANY_RD_CLR      (0x10)
//  405 #define BIT_BYPASS_EN       (0x02)
//  406 #define BITS_WOM_EN         (0xC0)
//  407 #define BIT_LPA_CYCLE       (0x20)
//  408 #define BIT_STBY_XA         (0x20)
//  409 #define BIT_STBY_YA         (0x10)
//  410 #define BIT_STBY_ZA         (0x08)
//  411 #define BIT_STBY_XG         (0x04)
//  412 #define BIT_STBY_YG         (0x02)
//  413 #define BIT_STBY_ZG         (0x01)
//  414 #define BIT_STBY_XYZA       (BIT_STBY_XA | BIT_STBY_YA | BIT_STBY_ZA)
//  415 #define BIT_STBY_XYZG       (BIT_STBY_XG | BIT_STBY_YG | BIT_STBY_ZG)
//  416 
//  417 #if defined AK8975_SECONDARY
//  418 #define SUPPORTS_AK89xx_HIGH_SENS   (0x00)
//  419 #define AK89xx_FSR                  (9830)
//  420 #elif defined AK8963_SECONDARY
//  421 #define SUPPORTS_AK89xx_HIGH_SENS   (0x10)
//  422 #define AK89xx_FSR                  (4915)
//  423 #endif
//  424 
//  425 #ifdef AK89xx_SECONDARY
//  426 #define AKM_REG_WHOAMI      (0x00)
//  427 
//  428 #define AKM_REG_ST1         (0x02)
//  429 #define AKM_REG_HXL         (0x03)
//  430 #define AKM_REG_ST2         (0x09)
//  431 
//  432 #define AKM_REG_CNTL        (0x0A)
//  433 #define AKM_REG_ASTC        (0x0C)
//  434 #define AKM_REG_ASAX        (0x10)
//  435 #define AKM_REG_ASAY        (0x11)
//  436 #define AKM_REG_ASAZ        (0x12)
//  437 
//  438 #define AKM_DATA_READY      (0x01)
//  439 #define AKM_DATA_OVERRUN    (0x02)
//  440 #define AKM_OVERFLOW        (0x80)
//  441 #define AKM_DATA_ERROR      (0x40)
//  442 
//  443 #define AKM_BIT_SELF_TEST   (0x40)
//  444 
//  445 #define AKM_POWER_DOWN          (0x00 | SUPPORTS_AK89xx_HIGH_SENS)
//  446 #define AKM_SINGLE_MEASUREMENT  (0x01 | SUPPORTS_AK89xx_HIGH_SENS)
//  447 #define AKM_FUSE_ROM_ACCESS     (0x0F | SUPPORTS_AK89xx_HIGH_SENS)
//  448 #define AKM_MODE_SELF_TEST      (0x08 | SUPPORTS_AK89xx_HIGH_SENS)
//  449 
//  450 #define AKM_WHOAMI      (0x48)
//  451 #endif
//  452 
//  453 #if defined MPU6050
//  454 //const struct gyro_reg_s reg = {
//  455 //    .who_am_i       = 0x75,
//  456 //    .rate_div       = 0x19,
//  457 //    .lpf            = 0x1A,
//  458 //    .prod_id        = 0x0C,
//  459 //    .user_ctrl      = 0x6A,
//  460 //    .fifo_en        = 0x23,
//  461 //    .gyro_cfg       = 0x1B,
//  462 //    .accel_cfg      = 0x1C,
//  463 //    .motion_thr     = 0x1F,
//  464 //    .motion_dur     = 0x20,
//  465 //    .fifo_count_h   = 0x72,
//  466 //    .fifo_r_w       = 0x74,
//  467 //    .raw_gyro       = 0x43,
//  468 //    .raw_accel      = 0x3B,
//  469 //    .temp           = 0x41,
//  470 //    .int_enable     = 0x38,
//  471 //    .dmp_int_status = 0x39,
//  472 //    .int_status     = 0x3A,
//  473 //    .pwr_mgmt_1     = 0x6B,
//  474 //    .pwr_mgmt_2     = 0x6C,
//  475 //    .int_pin_cfg    = 0x37,
//  476 //    .mem_r_w        = 0x6F,
//  477 //    .accel_offs     = 0x06,
//  478 //    .i2c_mst        = 0x24,
//  479 //    .bank_sel       = 0x6D,
//  480 //    .mem_start_addr = 0x6E,
//  481 //    .prgm_start_h   = 0x70
//  482 //#ifdef AK89xx_SECONDARY
//  483 //    ,.raw_compass   = 0x49,
//  484 //    .yg_offs_tc     = 0x01,
//  485 //    .s0_addr        = 0x25,
//  486 //    .s0_reg         = 0x26,
//  487 //    .s0_ctrl        = 0x27,
//  488 //    .s1_addr        = 0x28,
//  489 //    .s1_reg         = 0x29,
//  490 //    .s1_ctrl        = 0x2A,
//  491 //    .s4_ctrl        = 0x34,
//  492 //    .s0_do          = 0x63,
//  493 //    .s1_do          = 0x64,
//  494 //    .i2c_delay_ctrl = 0x67
//  495 //#endif
//  496 //};

        RSEG XDATA_ROM_C:CONST:REORDER:NOROOT(0)
        DATA8
//  497 const struct gyro_reg_s reg = {
reg:
        DB 117
        DB 25
        DB 26
        DB 12
        DB 106
        DB 35
        DB 27
        DB 28
        DB 31
        DB 32
        DB 114
        DB 116
        DB 67
        DB 59
        DB 65
        DB 56
        DB 57
        DB 58
        DB 107
        DB 108
        DB 55
        DB 111
        DB 6
        DB 36
        DB 109
        DB 110
        DB 112
//  498 0x75,  //who_am_i
//  499 0x19,  //rate_div
//  500 0x1A,  //lpf
//  501 0x0C,  //prod_id
//  502 0x6A,  //user_ctrl
//  503 0x23,  //fifo_en
//  504 0x1B,  //gyro_cfg
//  505 0x1C,  //accel_cfg
//  506 0x1F,  // motion_thr
//  507 0x20,  // motion_dur
//  508 0x72,  // fifo_count_h
//  509 0x74,  // fifo_r_w
//  510 0x43,  // raw_gyro
//  511 0x3B,  // raw_accel
//  512 0x41,  // temp
//  513 0x38,  // int_enable
//  514 0x39,  //  dmp_int_status
//  515 0x3A,  //  int_status
//  516 0x6B,  // pwr_mgmt_1
//  517 0x6C,  // pwr_mgmt_2
//  518 0x37,  // int_pin_cfg
//  519 0x6F,  // mem_r_w
//  520 0x06,  // accel_offs
//  521 0x24,  // i2c_mst
//  522 0x6D,  // bank_sel
//  523 0x6E,  // mem_start_addr
//  524 0x70   // prgm_start_h
//  525 };
//  526 
//  527 //const struct hw_s hw = {
//  528 //    .addr           = 0x68,
//  529 //    .max_fifo       = 1024,
//  530 //    .num_reg        = 118,
//  531 //    .temp_sens      = 340,
//  532 //    .temp_offset    = -521,
//  533 //    .bank_size      = 256
//  534 //#if defined AK89xx_SECONDARY
//  535 //    ,.compass_fsr    = AK89xx_FSR
//  536 //#endif
//  537 //};

        RSEG XDATA_ROM_C:CONST:REORDER:NOROOT(0)
        DATA8
//  538 const struct hw_s hw={
hw:
        DB 104
        DATA16
        DW 1024
        DATA8
        DB 118
        DATA16
        DW 340
        DW -521
        DW 256
//  539   0x68,	 //addr
//  540   1024,	 //max_fifo
//  541   118,	 //num_reg
//  542   340,	 //temp_sens
//  543   -521,	 //temp_offset
//  544   256	 //bank_size
//  545 };
//  546 
//  547 //const struct test_s test = {
//  548 //    .gyro_sens      = 32768/250,
//  549 //    .accel_sens     = 32768/16,
//  550 //    .reg_rate_div   = 0,    /* 1kHz. */
//  551 //    .reg_lpf        = 1,    /* 188Hz. */
//  552 //    .reg_gyro_fsr   = 0,    /* 250dps. */
//  553 //    .reg_accel_fsr  = 0x18, /* 16g. */
//  554 //    .wait_ms        = 50,
//  555 //    .packet_thresh  = 5,    /* 5% */
//  556 //    .min_dps        = 10.f,
//  557 //    .max_dps        = 105.f,
//  558 //    .max_gyro_var   = 0.14f,
//  559 //    .min_g          = 0.3f,
//  560 //    .max_g          = 0.95f,
//  561 //    .max_accel_var  = 0.14f
//  562 //};

        RSEG XDATA_ROM_C:CONST:REORDER:NOROOT(0)
        DATA8
//  563 const struct test_s test={
test:
        DATA32
        DD 131
        DD 2048
        DATA8
        DB 0
        DB 1
        DB 0
        DB 24
        DATA16
        DW 50
        DATA8
        DB 5
        DATA32
        DD 41200000H
        DD 42D20000H
        DD 3E0F5C29H
        DD 3E99999AH
        DD 3F733333H
        DD 3E0F5C29H
//  564 32768/250,		 //gyro_sens
//  565 32768/16,		 //	accel_sens
//  566 0,				 //	reg_rate_div
//  567 1,				//	reg_lpf
//  568 0,				 //	reg_gyro_fsr
//  569 0x18,			//	reg_accel_fsr
//  570 50,				//	wait_ms
//  571 5,				//	packet_thresh
//  572 10.0f,			 //	min_dps
//  573 105.0f,			 //	max_dps
//  574 0.14f,			//	max_gyro_var
//  575 0.3f,		   //	min_g
//  576 0.95f,		   //	max_g
//  577 0.14f		   //	max_accel_var
//  578 };
//  579 
//  580 //static struct gyro_state_s st = {
//  581 //    .reg = &reg,
//  582 //    .hw = &hw,
//  583 //    .test = &test
//  584 //};

        RSEG XDATA_I:XDATA:NOROOT(0)
//  585 static struct gyro_state_s st={
st:
        DATA8
        DS 35
        REQUIRE `?<Initializer for st>`
        REQUIRE __INIT_XDATA_I
//  586   &reg,
//  587   &hw,
//  588   {0},
//  589   &test
//  590 };
//  591 
//  592 
//  593 #elif defined MPU6500
//  594 const struct gyro_reg_s reg = {
//  595     .who_am_i       = 0x75,
//  596     .rate_div       = 0x19,
//  597     .lpf            = 0x1A,
//  598     .prod_id        = 0x0C,
//  599     .user_ctrl      = 0x6A,
//  600     .fifo_en        = 0x23,
//  601     .gyro_cfg       = 0x1B,
//  602     .accel_cfg      = 0x1C,
//  603     .accel_cfg2     = 0x1D,
//  604     .lp_accel_odr   = 0x1E,
//  605     .motion_thr     = 0x1F,
//  606     .motion_dur     = 0x20,
//  607     .fifo_count_h   = 0x72,
//  608     .fifo_r_w       = 0x74,
//  609     .raw_gyro       = 0x43,
//  610     .raw_accel      = 0x3B,
//  611     .temp           = 0x41,
//  612     .int_enable     = 0x38,
//  613     .dmp_int_status = 0x39,
//  614     .int_status     = 0x3A,
//  615     .accel_intel    = 0x69,
//  616     .pwr_mgmt_1     = 0x6B,
//  617     .pwr_mgmt_2     = 0x6C,
//  618     .int_pin_cfg    = 0x37,
//  619     .mem_r_w        = 0x6F,
//  620     .accel_offs     = 0x77,
//  621     .i2c_mst        = 0x24,
//  622     .bank_sel       = 0x6D,
//  623     .mem_start_addr = 0x6E,
//  624     .prgm_start_h   = 0x70
//  625 #ifdef AK89xx_SECONDARY
//  626     ,.raw_compass   = 0x49,
//  627     .s0_addr        = 0x25,
//  628     .s0_reg         = 0x26,
//  629     .s0_ctrl        = 0x27,
//  630     .s1_addr        = 0x28,
//  631     .s1_reg         = 0x29,
//  632     .s1_ctrl        = 0x2A,
//  633     .s4_ctrl        = 0x34,
//  634     .s0_do          = 0x63,
//  635     .s1_do          = 0x64,
//  636     .i2c_delay_ctrl = 0x67
//  637 #endif
//  638 };
//  639 const struct hw_s hw = {
//  640     .addr           = 0x68,
//  641     .max_fifo       = 1024,
//  642     .num_reg        = 128,
//  643     .temp_sens      = 321,
//  644     .temp_offset    = 0,
//  645     .bank_size      = 256
//  646 #if defined AK89xx_SECONDARY
//  647     ,.compass_fsr    = AK89xx_FSR
//  648 #endif
//  649 };
//  650 
//  651 const struct test_s test = {
//  652     .gyro_sens      = 32768/250,
//  653     .accel_sens     = 32768/16,
//  654     .reg_rate_div   = 0,    /* 1kHz. */
//  655     .reg_lpf        = 1,    /* 188Hz. */
//  656     .reg_gyro_fsr   = 0,    /* 250dps. */
//  657     .reg_accel_fsr  = 0x18, /* 16g. */
//  658     .wait_ms        = 50,
//  659     .packet_thresh  = 5,    /* 5% */
//  660     .min_dps        = 10.f,
//  661     .max_dps        = 105.f,
//  662     .max_gyro_var   = 0.14f,
//  663     .min_g          = 0.3f,
//  664     .max_g          = 0.95f,
//  665     .max_accel_var  = 0.14f
//  666 };
//  667 
//  668 static struct gyro_state_s st = {
//  669     .reg = &reg,
//  670     .hw = &hw,
//  671     .test = &test
//  672 };
//  673 #endif
//  674 
//  675 #define MAX_PACKET_LENGTH (12)
//  676 
//  677 #ifdef AK89xx_SECONDARY
//  678 static int setup_compass(void);
//  679 #define MAX_COMPASS_SAMPLE_RATE (100)
//  680 #endif
//  681 
//  682 /**
//  683  *  @brief      Enable/disable data ready interrupt.
//  684  *  If the DMP is on, the DMP interrupt is enabled. Otherwise, the data ready
//  685  *  interrupt is used.
//  686  *  @param[in]  enable      1 to enable interrupt.
//  687  *  @return     0 if successful.
//  688  */

        RSEG BANKED_CODE:CODE:NOROOT(0)
//  689 static int set_int_enable(unsigned char enable)
set_int_enable:
        CFI Block cfiBlock0 Using cfiCommon0
        CFI Function set_int_enable
        CODE
//  690 {
        FUNCALL set_int_enable, MPU_Write_Len
        LOCFRAME ISTACK, 0, STACK
        LOCFRAME PSTACK, 0, STACK
        LOCFRAME XSTACK, 10, STACK
        LOCFRAME IOVERLAY, 0, STATIC
        LOCFRAME DOVERLAY, 0, STATIC
        ARGFRAME ISTACK, 0, STACK
        ARGFRAME PSTACK, 0, STACK
        ARGFRAME XSTACK, 10, STACK
        ARGFRAME IOVERLAY, 0, STATIC
        ARGFRAME DOVERLAY, 0, STATIC
        FUNCALL set_int_enable, MPU_Write_Len
        LOCFRAME ISTACK, 0, STACK
        LOCFRAME PSTACK, 0, STACK
        LOCFRAME XSTACK, 10, STACK
        LOCFRAME IOVERLAY, 0, STATIC
        LOCFRAME DOVERLAY, 0, STATIC
        ARGFRAME ISTACK, 0, STACK
        ARGFRAME PSTACK, 0, STACK
        ARGFRAME XSTACK, 10, STACK
        ARGFRAME IOVERLAY, 0, STATIC
        ARGFRAME DOVERLAY, 0, STATIC
        MOV     A,#-0x9
        LCALL   ?BANKED_ENTER_XDATA
        CFI DPH0 load(1, XDATA, add(CFA_XSP16, literal(-1)))
        CFI DPL0 load(1, XDATA, add(CFA_XSP16, literal(-2)))
        CFI ?BRET_EXT load(1, XDATA, add(CFA_XSP16, literal(-3)))
        CFI ?RET_HIGH load(1, XDATA, add(CFA_XSP16, literal(-4)))
        CFI ?RET_LOW load(1, XDATA, add(CFA_XSP16, literal(-5)))
        CFI R7 load(1, XDATA, add(CFA_XSP16, literal(-6)))
        CFI V0 load(1, XDATA, add(CFA_XSP16, literal(-7)))
        CFI VB load(1, XDATA, add(CFA_XSP16, literal(-8)))
        CFI R6 load(1, XDATA, add(CFA_XSP16, literal(-9)))
        CFI CFA_SP SP+0
        CFI CFA_XSP16 add(XSP16, 9)
        ; Saved register size: 9
        ; Auto size: 1
        MOV     A,#-0x1
        LCALL   ?ALLOC_XSTACK8
        CFI CFA_XSP16 add(XSP16, 10)
        MOV     A,R1
        MOV     R6,A
//  691     unsigned char tmp;
//  692 
//  693     if (st.chip_cfg.dmp_on) {
        MOV     DPTR,#st + 29
        MOVX    A,@DPTR
        JZ      ??set_int_enable_0
//  694         if (enable)
        MOV     A,R6
        MOV     DPL,?XSP + 0
        MOV     DPH,?XSP + 1
        JZ      ??set_int_enable_1
//  695             tmp = BIT_DMP_INT_EN;
        MOV     A,#0x2
        SJMP    ??set_int_enable_2
//  696         else
//  697             tmp = 0x00;
??set_int_enable_1:
        CLR     A
??set_int_enable_2:
        LCALL   ??Subroutine138_0 & 0xFFFF
//  698         if (i2c_write(st.hw->addr, st.reg->int_enable, 1, &tmp))
??CrossCallReturnLabel_303:
        LCALL   ??Subroutine108_0 & 0xFFFF
??CrossCallReturnLabel_145:
        JZ      ??set_int_enable_3
//  699             return -1;
??set_int_enable_4:
        MOV     R2,#-0x1
        MOV     R3,#-0x1
??set_int_enable_5:
        LJMP    ?Subroutine0 & 0xFFFF
//  700         st.chip_cfg.int_enable = tmp;
//  701     } else {
//  702         if (!st.chip_cfg.sensors)
??set_int_enable_0:
        MOV     DPTR,#st + 6
        MOVX    A,@DPTR
        JZ      ??set_int_enable_4
//  703             return -1;
//  704         if (enable && st.chip_cfg.int_enable)
        MOV     A,R6
        JZ      ??set_int_enable_6
        MOV     DPTR,#st + 12
        MOVX    A,@DPTR
        JZ      ??set_int_enable_7
//  705             return 0;
??set_int_enable_8:
        MOV     R2,#0x0
        MOV     R3,#0x0
        SJMP    ??set_int_enable_5
//  706         if (enable)
//  707             tmp = BIT_DATA_RDY_EN;
??set_int_enable_7:
        MOV     DPL,?XSP + 0
        MOV     DPH,?XSP + 1
        MOV     A,#0x1
        SJMP    ??set_int_enable_9
//  708         else
//  709             tmp = 0x00;
??set_int_enable_6:
        MOV     DPL,?XSP + 0
        MOV     DPH,?XSP + 1
        CLR     A
//  710         if (i2c_write(st.hw->addr, st.reg->int_enable, 1, &tmp))
//  711             return -1;
//  712         st.chip_cfg.int_enable = tmp;
//  713     }
??set_int_enable_9:
        LCALL   ??Subroutine138_0 & 0xFFFF
??CrossCallReturnLabel_304:
        LCALL   ??Subroutine108_0 & 0xFFFF
??CrossCallReturnLabel_146:
        JNZ     ??set_int_enable_4
??set_int_enable_3:
        MOV     DPL,?XSP + 0
        MOV     DPH,?XSP + 1
        MOVX    A,@DPTR
        MOV     DPTR,#st + 12
        MOVX    @DPTR,A
        SJMP    ??set_int_enable_8
        CFI EndBlock cfiBlock0
//  714     return 0;
//  715 }

        RSEG BANKED_CODE:CODE:NOROOT(0)
?Subroutine11:
        CFI Block cfiCond1 Using cfiCommon0
        CFI NoFunction
        CFI Conditional ??CrossCallReturnLabel_137
        CFI R6 load(1, XDATA, add(CFA_XSP16, literal(-9)))
        CFI VB load(1, XDATA, add(CFA_XSP16, literal(-8)))
        CFI V0 load(1, XDATA, add(CFA_XSP16, literal(-7)))
        CFI R7 load(1, XDATA, add(CFA_XSP16, literal(-6)))
        CFI ?RET_LOW load(1, XDATA, add(CFA_XSP16, literal(-5)))
        CFI ?RET_HIGH load(1, XDATA, add(CFA_XSP16, literal(-4)))
        CFI ?BRET_EXT load(1, XDATA, add(CFA_XSP16, literal(-3)))
        CFI DPL0 load(1, XDATA, add(CFA_XSP16, literal(-2)))
        CFI DPH0 load(1, XDATA, add(CFA_XSP16, literal(-1)))
        CFI CFA_SP SP+0
        CFI CFA_XSP16 add(XSP16, 11)
        CFI Block cfiCond2 Using cfiCommon0
        CFI (cfiCond2) NoFunction
        CFI (cfiCond2) Conditional ??CrossCallReturnLabel_138
        CFI (cfiCond2) R6 load(1, XDATA, add(CFA_XSP16, literal(-10)))
        CFI (cfiCond2) VB load(1, XDATA, add(CFA_XSP16, literal(-9)))
        CFI (cfiCond2) V0 load(1, XDATA, add(CFA_XSP16, literal(-8)))
        CFI (cfiCond2) V1 load(1, XDATA, add(CFA_XSP16, literal(-7)))
        CFI (cfiCond2) R7 load(1, XDATA, add(CFA_XSP16, literal(-6)))
        CFI (cfiCond2) ?RET_LOW load(1, XDATA, add(CFA_XSP16, literal(-5)))
        CFI (cfiCond2) ?RET_HIGH load(1, XDATA, add(CFA_XSP16, literal(-4)))
        CFI (cfiCond2) ?BRET_EXT load(1, XDATA, add(CFA_XSP16, literal(-3)))
        CFI (cfiCond2) DPL0 load(1, XDATA, add(CFA_XSP16, literal(-2)))
        CFI (cfiCond2) DPH0 load(1, XDATA, add(CFA_XSP16, literal(-1)))
        CFI (cfiCond2) CFA_SP SP+0
        CFI (cfiCond2) CFA_XSP16 add(XSP16, 13)
        CFI Block cfiPicker3 Using cfiCommon1
        CFI (cfiPicker3) NoFunction
        CFI (cfiPicker3) Picker
        MOVX    A,@DPTR
        SWAP    A
        RLC     A
        RLC     A
        ANL     A,#0xc0
        ORL     A,#0x7
        CFI EndBlock cfiCond1
        CFI EndBlock cfiCond2
        CFI EndBlock cfiPicker3
        REQUIRE ??Subroutine106_0
        ; // Fall through to label ??Subroutine106_0

        RSEG BANKED_CODE:CODE:NOROOT(0)
??Subroutine106_0:
        CFI Block cfiCond4 Using cfiCommon0
        CFI NoFunction
        CFI Conditional ??CrossCallReturnLabel_139
        CFI R6 load(1, XDATA, add(CFA_XSP16, literal(-9)))
        CFI VB load(1, XDATA, add(CFA_XSP16, literal(-8)))
        CFI V0 load(1, XDATA, add(CFA_XSP16, literal(-7)))
        CFI R7 load(1, XDATA, add(CFA_XSP16, literal(-6)))
        CFI ?RET_LOW load(1, XDATA, add(CFA_XSP16, literal(-5)))
        CFI ?RET_HIGH load(1, XDATA, add(CFA_XSP16, literal(-4)))
        CFI ?BRET_EXT load(1, XDATA, add(CFA_XSP16, literal(-3)))
        CFI DPL0 load(1, XDATA, add(CFA_XSP16, literal(-2)))
        CFI DPH0 load(1, XDATA, add(CFA_XSP16, literal(-1)))
        CFI CFA_SP SP+0
        CFI CFA_XSP16 add(XSP16, 11)
        CFI Block cfiCond5 Using cfiCommon0
        CFI (cfiCond5) NoFunction
        CFI (cfiCond5) Conditional ??CrossCallReturnLabel_140
        CFI (cfiCond5) R6 load(1, XDATA, add(CFA_XSP16, literal(-23)))
        CFI (cfiCond5) VB load(1, XDATA, add(CFA_XSP16, literal(-22)))
        CFI (cfiCond5) V0 load(1, XDATA, add(CFA_XSP16, literal(-21)))
        CFI (cfiCond5) V1 load(1, XDATA, add(CFA_XSP16, literal(-20)))
        CFI (cfiCond5) V2 load(1, XDATA, add(CFA_XSP16, literal(-19)))
        CFI (cfiCond5) V3 load(1, XDATA, add(CFA_XSP16, literal(-18)))
        CFI (cfiCond5) V4 load(1, XDATA, add(CFA_XSP16, literal(-17)))
        CFI (cfiCond5) V5 load(1, XDATA, add(CFA_XSP16, literal(-16)))
        CFI (cfiCond5) V6 load(1, XDATA, add(CFA_XSP16, literal(-15)))
        CFI (cfiCond5) V7 load(1, XDATA, add(CFA_XSP16, literal(-14)))
        CFI (cfiCond5) V8 load(1, XDATA, add(CFA_XSP16, literal(-13)))
        CFI (cfiCond5) V9 load(1, XDATA, add(CFA_XSP16, literal(-12)))
        CFI (cfiCond5) V10 load(1, XDATA, add(CFA_XSP16, literal(-11)))
        CFI (cfiCond5) V11 load(1, XDATA, add(CFA_XSP16, literal(-10)))
        CFI (cfiCond5) V12 load(1, XDATA, add(CFA_XSP16, literal(-9)))
        CFI (cfiCond5) V13 load(1, XDATA, add(CFA_XSP16, literal(-8)))
        CFI (cfiCond5) V14 load(1, XDATA, add(CFA_XSP16, literal(-7)))
        CFI (cfiCond5) R7 load(1, XDATA, add(CFA_XSP16, literal(-6)))
        CFI (cfiCond5) ?RET_LOW load(1, XDATA, add(CFA_XSP16, literal(-5)))
        CFI (cfiCond5) ?RET_HIGH load(1, XDATA, add(CFA_XSP16, literal(-4)))
        CFI (cfiCond5) ?BRET_EXT load(1, XDATA, add(CFA_XSP16, literal(-3)))
        CFI (cfiCond5) DPL0 load(1, XDATA, add(CFA_XSP16, literal(-2)))
        CFI (cfiCond5) DPH0 load(1, XDATA, add(CFA_XSP16, literal(-1)))
        CFI (cfiCond5) CFA_SP SP+0
        CFI (cfiCond5) CFA_XSP16 add(XSP16, 47)
        CFI Block cfiCond6 Using cfiCommon0
        CFI (cfiCond6) NoFunction
        CFI (cfiCond6) Conditional ??CrossCallReturnLabel_137
        CFI (cfiCond6) R6 load(1, XDATA, add(CFA_XSP16, literal(-9)))
        CFI (cfiCond6) VB load(1, XDATA, add(CFA_XSP16, literal(-8)))
        CFI (cfiCond6) V0 load(1, XDATA, add(CFA_XSP16, literal(-7)))
        CFI (cfiCond6) R7 load(1, XDATA, add(CFA_XSP16, literal(-6)))
        CFI (cfiCond6) ?RET_LOW load(1, XDATA, add(CFA_XSP16, literal(-5)))
        CFI (cfiCond6) ?RET_HIGH load(1, XDATA, add(CFA_XSP16, literal(-4)))
        CFI (cfiCond6) ?BRET_EXT load(1, XDATA, add(CFA_XSP16, literal(-3)))
        CFI (cfiCond6) DPL0 load(1, XDATA, add(CFA_XSP16, literal(-2)))
        CFI (cfiCond6) DPH0 load(1, XDATA, add(CFA_XSP16, literal(-1)))
        CFI (cfiCond6) CFA_SP SP+0
        CFI (cfiCond6) CFA_XSP16 add(XSP16, 11)
        CFI Block cfiCond7 Using cfiCommon0
        CFI (cfiCond7) NoFunction
        CFI (cfiCond7) Conditional ??CrossCallReturnLabel_138
        CFI (cfiCond7) R6 load(1, XDATA, add(CFA_XSP16, literal(-10)))
        CFI (cfiCond7) VB load(1, XDATA, add(CFA_XSP16, literal(-9)))
        CFI (cfiCond7) V0 load(1, XDATA, add(CFA_XSP16, literal(-8)))
        CFI (cfiCond7) V1 load(1, XDATA, add(CFA_XSP16, literal(-7)))
        CFI (cfiCond7) R7 load(1, XDATA, add(CFA_XSP16, literal(-6)))
        CFI (cfiCond7) ?RET_LOW load(1, XDATA, add(CFA_XSP16, literal(-5)))
        CFI (cfiCond7) ?RET_HIGH load(1, XDATA, add(CFA_XSP16, literal(-4)))
        CFI (cfiCond7) ?BRET_EXT load(1, XDATA, add(CFA_XSP16, literal(-3)))
        CFI (cfiCond7) DPL0 load(1, XDATA, add(CFA_XSP16, literal(-2)))
        CFI (cfiCond7) DPH0 load(1, XDATA, add(CFA_XSP16, literal(-1)))
        CFI (cfiCond7) CFA_SP SP+0
        CFI (cfiCond7) CFA_XSP16 add(XSP16, 13)
        CFI Block cfiPicker8 Using cfiCommon1
        CFI (cfiPicker8) NoFunction
        CFI (cfiPicker8) Picker
        LCALL   ?Subroutine90 & 0xFFFF
        CFI EndBlock cfiCond4
        CFI EndBlock cfiCond5
        CFI EndBlock cfiCond6
        CFI EndBlock cfiCond7
        CFI EndBlock cfiPicker8
??CrossCallReturnLabel_133:
        REQUIRE ??Subroutine107_0
        ; // Fall through to label ??Subroutine107_0

        RSEG BANKED_CODE:CODE:NOROOT(0)
??Subroutine107_0:
        CFI Block cfiCond9 Using cfiCommon0
        CFI NoFunction
        CFI Conditional ??CrossCallReturnLabel_141
        CFI R6 load(1, XDATA, add(CFA_XSP16, literal(-10)))
        CFI VB load(1, XDATA, add(CFA_XSP16, literal(-9)))
        CFI V0 load(1, XDATA, add(CFA_XSP16, literal(-8)))
        CFI V1 load(1, XDATA, add(CFA_XSP16, literal(-7)))
        CFI R7 load(1, XDATA, add(CFA_XSP16, literal(-6)))
        CFI ?RET_LOW load(1, XDATA, add(CFA_XSP16, literal(-5)))
        CFI ?RET_HIGH load(1, XDATA, add(CFA_XSP16, literal(-4)))
        CFI ?BRET_EXT load(1, XDATA, add(CFA_XSP16, literal(-3)))
        CFI DPL0 load(1, XDATA, add(CFA_XSP16, literal(-2)))
        CFI DPH0 load(1, XDATA, add(CFA_XSP16, literal(-1)))
        CFI CFA_SP SP+0
        CFI CFA_XSP16 add(XSP16, 16)
        CFI Block cfiCond10 Using cfiCommon0
        CFI (cfiCond10) NoFunction
        CFI (cfiCond10) Conditional ??CrossCallReturnLabel_142
        CFI (cfiCond10) R6 load(1, XDATA, add(CFA_XSP16, literal(-10)))
        CFI (cfiCond10) VB load(1, XDATA, add(CFA_XSP16, literal(-9)))
        CFI (cfiCond10) V0 load(1, XDATA, add(CFA_XSP16, literal(-8)))
        CFI (cfiCond10) V1 load(1, XDATA, add(CFA_XSP16, literal(-7)))
        CFI (cfiCond10) R7 load(1, XDATA, add(CFA_XSP16, literal(-6)))
        CFI (cfiCond10) ?RET_LOW load(1, XDATA, add(CFA_XSP16, literal(-5)))
        CFI (cfiCond10) ?RET_HIGH load(1, XDATA, add(CFA_XSP16, literal(-4)))
        CFI (cfiCond10) ?BRET_EXT load(1, XDATA, add(CFA_XSP16, literal(-3)))
        CFI (cfiCond10) DPL0 load(1, XDATA, add(CFA_XSP16, literal(-2)))
        CFI (cfiCond10) DPH0 load(1, XDATA, add(CFA_XSP16, literal(-1)))
        CFI (cfiCond10) CFA_SP SP+0
        CFI (cfiCond10) CFA_XSP16 add(XSP16, 16)
        CFI Block cfiCond11 Using cfiCommon0
        CFI (cfiCond11) NoFunction
        CFI (cfiCond11) Conditional ??CrossCallReturnLabel_143
        CFI (cfiCond11) R6 load(1, XDATA, add(CFA_XSP16, literal(-9)))
        CFI (cfiCond11) VB load(1, XDATA, add(CFA_XSP16, literal(-8)))
        CFI (cfiCond11) V0 load(1, XDATA, add(CFA_XSP16, literal(-7)))
        CFI (cfiCond11) R7 load(1, XDATA, add(CFA_XSP16, literal(-6)))
        CFI (cfiCond11) ?RET_LOW load(1, XDATA, add(CFA_XSP16, literal(-5)))
        CFI (cfiCond11) ?RET_HIGH load(1, XDATA, add(CFA_XSP16, literal(-4)))
        CFI (cfiCond11) ?BRET_EXT load(1, XDATA, add(CFA_XSP16, literal(-3)))
        CFI (cfiCond11) DPL0 load(1, XDATA, add(CFA_XSP16, literal(-2)))
        CFI (cfiCond11) DPH0 load(1, XDATA, add(CFA_XSP16, literal(-1)))
        CFI (cfiCond11) CFA_SP SP+0
        CFI (cfiCond11) CFA_XSP16 add(XSP16, 10)
        CFI Block cfiCond12 Using cfiCommon0
        CFI (cfiCond12) NoFunction
        CFI (cfiCond12) Conditional ??CrossCallReturnLabel_144
        CFI (cfiCond12) R6 load(1, XDATA, add(CFA_XSP16, literal(-23)))
        CFI (cfiCond12) VB load(1, XDATA, add(CFA_XSP16, literal(-22)))
        CFI (cfiCond12) V0 load(1, XDATA, add(CFA_XSP16, literal(-21)))
        CFI (cfiCond12) V1 load(1, XDATA, add(CFA_XSP16, literal(-20)))
        CFI (cfiCond12) V2 load(1, XDATA, add(CFA_XSP16, literal(-19)))
        CFI (cfiCond12) V3 load(1, XDATA, add(CFA_XSP16, literal(-18)))
        CFI (cfiCond12) V4 load(1, XDATA, add(CFA_XSP16, literal(-17)))
        CFI (cfiCond12) V5 load(1, XDATA, add(CFA_XSP16, literal(-16)))
        CFI (cfiCond12) V6 load(1, XDATA, add(CFA_XSP16, literal(-15)))
        CFI (cfiCond12) V7 load(1, XDATA, add(CFA_XSP16, literal(-14)))
        CFI (cfiCond12) V8 load(1, XDATA, add(CFA_XSP16, literal(-13)))
        CFI (cfiCond12) V9 load(1, XDATA, add(CFA_XSP16, literal(-12)))
        CFI (cfiCond12) V10 load(1, XDATA, add(CFA_XSP16, literal(-11)))
        CFI (cfiCond12) V11 load(1, XDATA, add(CFA_XSP16, literal(-10)))
        CFI (cfiCond12) V12 load(1, XDATA, add(CFA_XSP16, literal(-9)))
        CFI (cfiCond12) V13 load(1, XDATA, add(CFA_XSP16, literal(-8)))
        CFI (cfiCond12) V14 load(1, XDATA, add(CFA_XSP16, literal(-7)))
        CFI (cfiCond12) R7 load(1, XDATA, add(CFA_XSP16, literal(-6)))
        CFI (cfiCond12) ?RET_LOW load(1, XDATA, add(CFA_XSP16, literal(-5)))
        CFI (cfiCond12) ?RET_HIGH load(1, XDATA, add(CFA_XSP16, literal(-4)))
        CFI (cfiCond12) ?BRET_EXT load(1, XDATA, add(CFA_XSP16, literal(-3)))
        CFI (cfiCond12) DPL0 load(1, XDATA, add(CFA_XSP16, literal(-2)))
        CFI (cfiCond12) DPH0 load(1, XDATA, add(CFA_XSP16, literal(-1)))
        CFI (cfiCond12) CFA_SP SP+0
        CFI (cfiCond12) CFA_XSP16 add(XSP16, 47)
        CFI Block cfiCond13 Using cfiCommon0
        CFI (cfiCond13) NoFunction
        CFI (cfiCond13) Conditional ??CrossCallReturnLabel_139
        CFI (cfiCond13) R6 load(1, XDATA, add(CFA_XSP16, literal(-9)))
        CFI (cfiCond13) VB load(1, XDATA, add(CFA_XSP16, literal(-8)))
        CFI (cfiCond13) V0 load(1, XDATA, add(CFA_XSP16, literal(-7)))
        CFI (cfiCond13) R7 load(1, XDATA, add(CFA_XSP16, literal(-6)))
        CFI (cfiCond13) ?RET_LOW load(1, XDATA, add(CFA_XSP16, literal(-5)))
        CFI (cfiCond13) ?RET_HIGH load(1, XDATA, add(CFA_XSP16, literal(-4)))
        CFI (cfiCond13) ?BRET_EXT load(1, XDATA, add(CFA_XSP16, literal(-3)))
        CFI (cfiCond13) DPL0 load(1, XDATA, add(CFA_XSP16, literal(-2)))
        CFI (cfiCond13) DPH0 load(1, XDATA, add(CFA_XSP16, literal(-1)))
        CFI (cfiCond13) CFA_SP SP+0
        CFI (cfiCond13) CFA_XSP16 add(XSP16, 11)
        CFI Block cfiCond14 Using cfiCommon0
        CFI (cfiCond14) NoFunction
        CFI (cfiCond14) Conditional ??CrossCallReturnLabel_140
        CFI (cfiCond14) R6 load(1, XDATA, add(CFA_XSP16, literal(-23)))
        CFI (cfiCond14) VB load(1, XDATA, add(CFA_XSP16, literal(-22)))
        CFI (cfiCond14) V0 load(1, XDATA, add(CFA_XSP16, literal(-21)))
        CFI (cfiCond14) V1 load(1, XDATA, add(CFA_XSP16, literal(-20)))
        CFI (cfiCond14) V2 load(1, XDATA, add(CFA_XSP16, literal(-19)))
        CFI (cfiCond14) V3 load(1, XDATA, add(CFA_XSP16, literal(-18)))
        CFI (cfiCond14) V4 load(1, XDATA, add(CFA_XSP16, literal(-17)))
        CFI (cfiCond14) V5 load(1, XDATA, add(CFA_XSP16, literal(-16)))
        CFI (cfiCond14) V6 load(1, XDATA, add(CFA_XSP16, literal(-15)))
        CFI (cfiCond14) V7 load(1, XDATA, add(CFA_XSP16, literal(-14)))
        CFI (cfiCond14) V8 load(1, XDATA, add(CFA_XSP16, literal(-13)))
        CFI (cfiCond14) V9 load(1, XDATA, add(CFA_XSP16, literal(-12)))
        CFI (cfiCond14) V10 load(1, XDATA, add(CFA_XSP16, literal(-11)))
        CFI (cfiCond14) V11 load(1, XDATA, add(CFA_XSP16, literal(-10)))
        CFI (cfiCond14) V12 load(1, XDATA, add(CFA_XSP16, literal(-9)))
        CFI (cfiCond14) V13 load(1, XDATA, add(CFA_XSP16, literal(-8)))
        CFI (cfiCond14) V14 load(1, XDATA, add(CFA_XSP16, literal(-7)))
        CFI (cfiCond14) R7 load(1, XDATA, add(CFA_XSP16, literal(-6)))
        CFI (cfiCond14) ?RET_LOW load(1, XDATA, add(CFA_XSP16, literal(-5)))
        CFI (cfiCond14) ?RET_HIGH load(1, XDATA, add(CFA_XSP16, literal(-4)))
        CFI (cfiCond14) ?BRET_EXT load(1, XDATA, add(CFA_XSP16, literal(-3)))
        CFI (cfiCond14) DPL0 load(1, XDATA, add(CFA_XSP16, literal(-2)))
        CFI (cfiCond14) DPH0 load(1, XDATA, add(CFA_XSP16, literal(-1)))
        CFI (cfiCond14) CFA_SP SP+0
        CFI (cfiCond14) CFA_XSP16 add(XSP16, 47)
        CFI Block cfiCond15 Using cfiCommon0
        CFI (cfiCond15) NoFunction
        CFI (cfiCond15) Conditional ??CrossCallReturnLabel_137
        CFI (cfiCond15) R6 load(1, XDATA, add(CFA_XSP16, literal(-9)))
        CFI (cfiCond15) VB load(1, XDATA, add(CFA_XSP16, literal(-8)))
        CFI (cfiCond15) V0 load(1, XDATA, add(CFA_XSP16, literal(-7)))
        CFI (cfiCond15) R7 load(1, XDATA, add(CFA_XSP16, literal(-6)))
        CFI (cfiCond15) ?RET_LOW load(1, XDATA, add(CFA_XSP16, literal(-5)))
        CFI (cfiCond15) ?RET_HIGH load(1, XDATA, add(CFA_XSP16, literal(-4)))
        CFI (cfiCond15) ?BRET_EXT load(1, XDATA, add(CFA_XSP16, literal(-3)))
        CFI (cfiCond15) DPL0 load(1, XDATA, add(CFA_XSP16, literal(-2)))
        CFI (cfiCond15) DPH0 load(1, XDATA, add(CFA_XSP16, literal(-1)))
        CFI (cfiCond15) CFA_SP SP+0
        CFI (cfiCond15) CFA_XSP16 add(XSP16, 11)
        CFI Block cfiCond16 Using cfiCommon0
        CFI (cfiCond16) NoFunction
        CFI (cfiCond16) Conditional ??CrossCallReturnLabel_138
        CFI (cfiCond16) R6 load(1, XDATA, add(CFA_XSP16, literal(-10)))
        CFI (cfiCond16) VB load(1, XDATA, add(CFA_XSP16, literal(-9)))
        CFI (cfiCond16) V0 load(1, XDATA, add(CFA_XSP16, literal(-8)))
        CFI (cfiCond16) V1 load(1, XDATA, add(CFA_XSP16, literal(-7)))
        CFI (cfiCond16) R7 load(1, XDATA, add(CFA_XSP16, literal(-6)))
        CFI (cfiCond16) ?RET_LOW load(1, XDATA, add(CFA_XSP16, literal(-5)))
        CFI (cfiCond16) ?RET_HIGH load(1, XDATA, add(CFA_XSP16, literal(-4)))
        CFI (cfiCond16) ?BRET_EXT load(1, XDATA, add(CFA_XSP16, literal(-3)))
        CFI (cfiCond16) DPL0 load(1, XDATA, add(CFA_XSP16, literal(-2)))
        CFI (cfiCond16) DPH0 load(1, XDATA, add(CFA_XSP16, literal(-1)))
        CFI (cfiCond16) CFA_SP SP+0
        CFI (cfiCond16) CFA_XSP16 add(XSP16, 13)
        CFI Block cfiPicker17 Using cfiCommon1
        CFI (cfiPicker17) NoFunction
        CFI (cfiPicker17) Picker
        MOV     DPTR,#st
        MOVX    A,@DPTR
        ADD     A,#0x12
        CFI EndBlock cfiCond9
        CFI EndBlock cfiCond10
        CFI EndBlock cfiCond11
        CFI EndBlock cfiCond12
        CFI EndBlock cfiCond13
        CFI EndBlock cfiCond14
        CFI EndBlock cfiCond15
        CFI EndBlock cfiCond16
        CFI EndBlock cfiPicker17
        REQUIRE ??Subroutine108_0
        ; // Fall through to label ??Subroutine108_0

        RSEG BANKED_CODE:CODE:NOROOT(0)
??Subroutine108_0:
        CFI Block cfiCond18 Using cfiCommon0
        CFI NoFunction
        CFI Conditional ??CrossCallReturnLabel_145
        CFI R6 load(1, XDATA, add(CFA_XSP16, literal(-9)))
        CFI VB load(1, XDATA, add(CFA_XSP16, literal(-8)))
        CFI V0 load(1, XDATA, add(CFA_XSP16, literal(-7)))
        CFI R7 load(1, XDATA, add(CFA_XSP16, literal(-6)))
        CFI ?RET_LOW load(1, XDATA, add(CFA_XSP16, literal(-5)))
        CFI ?RET_HIGH load(1, XDATA, add(CFA_XSP16, literal(-4)))
        CFI ?BRET_EXT load(1, XDATA, add(CFA_XSP16, literal(-3)))
        CFI DPL0 load(1, XDATA, add(CFA_XSP16, literal(-2)))
        CFI DPH0 load(1, XDATA, add(CFA_XSP16, literal(-1)))
        CFI CFA_SP SP+0
        CFI CFA_XSP16 add(XSP16, 10)
        CFI Block cfiCond19 Using cfiCommon0
        CFI (cfiCond19) NoFunction
        CFI (cfiCond19) Conditional ??CrossCallReturnLabel_146
        CFI (cfiCond19) R6 load(1, XDATA, add(CFA_XSP16, literal(-9)))
        CFI (cfiCond19) VB load(1, XDATA, add(CFA_XSP16, literal(-8)))
        CFI (cfiCond19) V0 load(1, XDATA, add(CFA_XSP16, literal(-7)))
        CFI (cfiCond19) R7 load(1, XDATA, add(CFA_XSP16, literal(-6)))
        CFI (cfiCond19) ?RET_LOW load(1, XDATA, add(CFA_XSP16, literal(-5)))
        CFI (cfiCond19) ?RET_HIGH load(1, XDATA, add(CFA_XSP16, literal(-4)))
        CFI (cfiCond19) ?BRET_EXT load(1, XDATA, add(CFA_XSP16, literal(-3)))
        CFI (cfiCond19) DPL0 load(1, XDATA, add(CFA_XSP16, literal(-2)))
        CFI (cfiCond19) DPH0 load(1, XDATA, add(CFA_XSP16, literal(-1)))
        CFI (cfiCond19) CFA_SP SP+0
        CFI (cfiCond19) CFA_XSP16 add(XSP16, 10)
        CFI Block cfiCond20 Using cfiCommon0
        CFI (cfiCond20) NoFunction
        CFI (cfiCond20) Conditional ??CrossCallReturnLabel_147
        CFI (cfiCond20) DPL0 Frame(CFA_SP, 4)
        CFI (cfiCond20) DPH0 Frame(CFA_SP, 5)
        CFI (cfiCond20) CFA_SP SP+-5
        CFI (cfiCond20) CFA_XSP16 add(XSP16, 1)
        CFI Block cfiCond21 Using cfiCommon0
        CFI (cfiCond21) NoFunction
        CFI (cfiCond21) Conditional ??CrossCallReturnLabel_148
        CFI (cfiCond21) DPL0 Frame(CFA_SP, 4)
        CFI (cfiCond21) DPH0 Frame(CFA_SP, 5)
        CFI (cfiCond21) CFA_SP SP+-5
        CFI (cfiCond21) CFA_XSP16 add(XSP16, 1)
        CFI Block cfiCond22 Using cfiCommon0
        CFI (cfiCond22) NoFunction
        CFI (cfiCond22) Conditional ??CrossCallReturnLabel_149
        CFI (cfiCond22) DPL0 Frame(CFA_SP, 4)
        CFI (cfiCond22) DPH0 Frame(CFA_SP, 5)
        CFI (cfiCond22) CFA_SP SP+-5
        CFI (cfiCond22) CFA_XSP16 add(XSP16, 1)
        CFI Block cfiCond23 Using cfiCommon0
        CFI (cfiCond23) NoFunction
        CFI (cfiCond23) Conditional ??CrossCallReturnLabel_150
        CFI (cfiCond23) R6 load(1, XDATA, add(CFA_XSP16, literal(-9)))
        CFI (cfiCond23) VB load(1, XDATA, add(CFA_XSP16, literal(-8)))
        CFI (cfiCond23) V0 load(1, XDATA, add(CFA_XSP16, literal(-7)))
        CFI (cfiCond23) R7 load(1, XDATA, add(CFA_XSP16, literal(-6)))
        CFI (cfiCond23) ?RET_LOW load(1, XDATA, add(CFA_XSP16, literal(-5)))
        CFI (cfiCond23) ?RET_HIGH load(1, XDATA, add(CFA_XSP16, literal(-4)))
        CFI (cfiCond23) ?BRET_EXT load(1, XDATA, add(CFA_XSP16, literal(-3)))
        CFI (cfiCond23) DPL0 load(1, XDATA, add(CFA_XSP16, literal(-2)))
        CFI (cfiCond23) DPH0 load(1, XDATA, add(CFA_XSP16, literal(-1)))
        CFI (cfiCond23) CFA_SP SP+0
        CFI (cfiCond23) CFA_XSP16 add(XSP16, 10)
        CFI Block cfiCond24 Using cfiCommon0
        CFI (cfiCond24) NoFunction
        CFI (cfiCond24) Conditional ??CrossCallReturnLabel_151
        CFI (cfiCond24) R6 load(1, XDATA, add(CFA_XSP16, literal(-9)))
        CFI (cfiCond24) VB load(1, XDATA, add(CFA_XSP16, literal(-8)))
        CFI (cfiCond24) V0 load(1, XDATA, add(CFA_XSP16, literal(-7)))
        CFI (cfiCond24) R7 load(1, XDATA, add(CFA_XSP16, literal(-6)))
        CFI (cfiCond24) ?RET_LOW load(1, XDATA, add(CFA_XSP16, literal(-5)))
        CFI (cfiCond24) ?RET_HIGH load(1, XDATA, add(CFA_XSP16, literal(-4)))
        CFI (cfiCond24) ?BRET_EXT load(1, XDATA, add(CFA_XSP16, literal(-3)))
        CFI (cfiCond24) DPL0 load(1, XDATA, add(CFA_XSP16, literal(-2)))
        CFI (cfiCond24) DPH0 load(1, XDATA, add(CFA_XSP16, literal(-1)))
        CFI (cfiCond24) CFA_SP SP+0
        CFI (cfiCond24) CFA_XSP16 add(XSP16, 10)
        CFI Block cfiCond25 Using cfiCommon0
        CFI (cfiCond25) NoFunction
        CFI (cfiCond25) Conditional ??CrossCallReturnLabel_152
        CFI (cfiCond25) R6 load(1, XDATA, add(CFA_XSP16, literal(-9)))
        CFI (cfiCond25) VB load(1, XDATA, add(CFA_XSP16, literal(-8)))
        CFI (cfiCond25) V0 load(1, XDATA, add(CFA_XSP16, literal(-7)))
        CFI (cfiCond25) R7 load(1, XDATA, add(CFA_XSP16, literal(-6)))
        CFI (cfiCond25) ?RET_LOW load(1, XDATA, add(CFA_XSP16, literal(-5)))
        CFI (cfiCond25) ?RET_HIGH load(1, XDATA, add(CFA_XSP16, literal(-4)))
        CFI (cfiCond25) ?BRET_EXT load(1, XDATA, add(CFA_XSP16, literal(-3)))
        CFI (cfiCond25) DPL0 load(1, XDATA, add(CFA_XSP16, literal(-2)))
        CFI (cfiCond25) DPH0 load(1, XDATA, add(CFA_XSP16, literal(-1)))
        CFI (cfiCond25) CFA_SP SP+0
        CFI (cfiCond25) CFA_XSP16 add(XSP16, 10)
        CFI Block cfiCond26 Using cfiCommon0
        CFI (cfiCond26) NoFunction
        CFI (cfiCond26) Conditional ??CrossCallReturnLabel_153
        CFI (cfiCond26) R6 load(1, XDATA, add(CFA_XSP16, literal(-9)))
        CFI (cfiCond26) VB load(1, XDATA, add(CFA_XSP16, literal(-8)))
        CFI (cfiCond26) V0 load(1, XDATA, add(CFA_XSP16, literal(-7)))
        CFI (cfiCond26) R7 load(1, XDATA, add(CFA_XSP16, literal(-6)))
        CFI (cfiCond26) ?RET_LOW load(1, XDATA, add(CFA_XSP16, literal(-5)))
        CFI (cfiCond26) ?RET_HIGH load(1, XDATA, add(CFA_XSP16, literal(-4)))
        CFI (cfiCond26) ?BRET_EXT load(1, XDATA, add(CFA_XSP16, literal(-3)))
        CFI (cfiCond26) DPL0 load(1, XDATA, add(CFA_XSP16, literal(-2)))
        CFI (cfiCond26) DPH0 load(1, XDATA, add(CFA_XSP16, literal(-1)))
        CFI (cfiCond26) CFA_SP SP+0
        CFI (cfiCond26) CFA_XSP16 add(XSP16, 10)
        CFI Block cfiCond27 Using cfiCommon0
        CFI (cfiCond27) NoFunction
        CFI (cfiCond27) Conditional ??CrossCallReturnLabel_154
        CFI (cfiCond27) R6 load(1, XDATA, add(CFA_XSP16, literal(-23)))
        CFI (cfiCond27) VB load(1, XDATA, add(CFA_XSP16, literal(-22)))
        CFI (cfiCond27) V0 load(1, XDATA, add(CFA_XSP16, literal(-21)))
        CFI (cfiCond27) V1 load(1, XDATA, add(CFA_XSP16, literal(-20)))
        CFI (cfiCond27) V2 load(1, XDATA, add(CFA_XSP16, literal(-19)))
        CFI (cfiCond27) V3 load(1, XDATA, add(CFA_XSP16, literal(-18)))
        CFI (cfiCond27) V4 load(1, XDATA, add(CFA_XSP16, literal(-17)))
        CFI (cfiCond27) V5 load(1, XDATA, add(CFA_XSP16, literal(-16)))
        CFI (cfiCond27) V6 load(1, XDATA, add(CFA_XSP16, literal(-15)))
        CFI (cfiCond27) V7 load(1, XDATA, add(CFA_XSP16, literal(-14)))
        CFI (cfiCond27) V8 load(1, XDATA, add(CFA_XSP16, literal(-13)))
        CFI (cfiCond27) V9 load(1, XDATA, add(CFA_XSP16, literal(-12)))
        CFI (cfiCond27) V10 load(1, XDATA, add(CFA_XSP16, literal(-11)))
        CFI (cfiCond27) V11 load(1, XDATA, add(CFA_XSP16, literal(-10)))
        CFI (cfiCond27) V12 load(1, XDATA, add(CFA_XSP16, literal(-9)))
        CFI (cfiCond27) V13 load(1, XDATA, add(CFA_XSP16, literal(-8)))
        CFI (cfiCond27) V14 load(1, XDATA, add(CFA_XSP16, literal(-7)))
        CFI (cfiCond27) R7 load(1, XDATA, add(CFA_XSP16, literal(-6)))
        CFI (cfiCond27) ?RET_LOW load(1, XDATA, add(CFA_XSP16, literal(-5)))
        CFI (cfiCond27) ?RET_HIGH load(1, XDATA, add(CFA_XSP16, literal(-4)))
        CFI (cfiCond27) ?BRET_EXT load(1, XDATA, add(CFA_XSP16, literal(-3)))
        CFI (cfiCond27) DPL0 load(1, XDATA, add(CFA_XSP16, literal(-2)))
        CFI (cfiCond27) DPH0 load(1, XDATA, add(CFA_XSP16, literal(-1)))
        CFI (cfiCond27) CFA_SP SP+0
        CFI (cfiCond27) CFA_XSP16 add(XSP16, 47)
        CFI Block cfiCond28 Using cfiCommon0
        CFI (cfiCond28) NoFunction
        CFI (cfiCond28) Conditional ??CrossCallReturnLabel_155
        CFI (cfiCond28) R6 load(1, XDATA, add(CFA_XSP16, literal(-23)))
        CFI (cfiCond28) VB load(1, XDATA, add(CFA_XSP16, literal(-22)))
        CFI (cfiCond28) V0 load(1, XDATA, add(CFA_XSP16, literal(-21)))
        CFI (cfiCond28) V1 load(1, XDATA, add(CFA_XSP16, literal(-20)))
        CFI (cfiCond28) V2 load(1, XDATA, add(CFA_XSP16, literal(-19)))
        CFI (cfiCond28) V3 load(1, XDATA, add(CFA_XSP16, literal(-18)))
        CFI (cfiCond28) V4 load(1, XDATA, add(CFA_XSP16, literal(-17)))
        CFI (cfiCond28) V5 load(1, XDATA, add(CFA_XSP16, literal(-16)))
        CFI (cfiCond28) V6 load(1, XDATA, add(CFA_XSP16, literal(-15)))
        CFI (cfiCond28) V7 load(1, XDATA, add(CFA_XSP16, literal(-14)))
        CFI (cfiCond28) V8 load(1, XDATA, add(CFA_XSP16, literal(-13)))
        CFI (cfiCond28) V9 load(1, XDATA, add(CFA_XSP16, literal(-12)))
        CFI (cfiCond28) V10 load(1, XDATA, add(CFA_XSP16, literal(-11)))
        CFI (cfiCond28) V11 load(1, XDATA, add(CFA_XSP16, literal(-10)))
        CFI (cfiCond28) V12 load(1, XDATA, add(CFA_XSP16, literal(-9)))
        CFI (cfiCond28) V13 load(1, XDATA, add(CFA_XSP16, literal(-8)))
        CFI (cfiCond28) V14 load(1, XDATA, add(CFA_XSP16, literal(-7)))
        CFI (cfiCond28) R7 load(1, XDATA, add(CFA_XSP16, literal(-6)))
        CFI (cfiCond28) ?RET_LOW load(1, XDATA, add(CFA_XSP16, literal(-5)))
        CFI (cfiCond28) ?RET_HIGH load(1, XDATA, add(CFA_XSP16, literal(-4)))
        CFI (cfiCond28) ?BRET_EXT load(1, XDATA, add(CFA_XSP16, literal(-3)))
        CFI (cfiCond28) DPL0 load(1, XDATA, add(CFA_XSP16, literal(-2)))
        CFI (cfiCond28) DPH0 load(1, XDATA, add(CFA_XSP16, literal(-1)))
        CFI (cfiCond28) CFA_SP SP+0
        CFI (cfiCond28) CFA_XSP16 add(XSP16, 47)
        CFI Block cfiCond29 Using cfiCommon0
        CFI (cfiCond29) NoFunction
        CFI (cfiCond29) Conditional ??CrossCallReturnLabel_156
        CFI (cfiCond29) R6 load(1, XDATA, add(CFA_XSP16, literal(-10)))
        CFI (cfiCond29) VB load(1, XDATA, add(CFA_XSP16, literal(-9)))
        CFI (cfiCond29) V0 load(1, XDATA, add(CFA_XSP16, literal(-8)))
        CFI (cfiCond29) V1 load(1, XDATA, add(CFA_XSP16, literal(-7)))
        CFI (cfiCond29) R7 load(1, XDATA, add(CFA_XSP16, literal(-6)))
        CFI (cfiCond29) ?RET_LOW load(1, XDATA, add(CFA_XSP16, literal(-5)))
        CFI (cfiCond29) ?RET_HIGH load(1, XDATA, add(CFA_XSP16, literal(-4)))
        CFI (cfiCond29) ?BRET_EXT load(1, XDATA, add(CFA_XSP16, literal(-3)))
        CFI (cfiCond29) DPL0 load(1, XDATA, add(CFA_XSP16, literal(-2)))
        CFI (cfiCond29) DPH0 load(1, XDATA, add(CFA_XSP16, literal(-1)))
        CFI (cfiCond29) CFA_SP SP+0
        CFI (cfiCond29) CFA_XSP16 add(XSP16, 12)
        CFI Block cfiCond30 Using cfiCommon0
        CFI (cfiCond30) NoFunction
        CFI (cfiCond30) Conditional ??CrossCallReturnLabel_157
        CFI (cfiCond30) R6 load(1, XDATA, add(CFA_XSP16, literal(-10)))
        CFI (cfiCond30) VB load(1, XDATA, add(CFA_XSP16, literal(-9)))
        CFI (cfiCond30) V0 load(1, XDATA, add(CFA_XSP16, literal(-8)))
        CFI (cfiCond30) V1 load(1, XDATA, add(CFA_XSP16, literal(-7)))
        CFI (cfiCond30) R7 load(1, XDATA, add(CFA_XSP16, literal(-6)))
        CFI (cfiCond30) ?RET_LOW load(1, XDATA, add(CFA_XSP16, literal(-5)))
        CFI (cfiCond30) ?RET_HIGH load(1, XDATA, add(CFA_XSP16, literal(-4)))
        CFI (cfiCond30) ?BRET_EXT load(1, XDATA, add(CFA_XSP16, literal(-3)))
        CFI (cfiCond30) DPL0 load(1, XDATA, add(CFA_XSP16, literal(-2)))
        CFI (cfiCond30) DPH0 load(1, XDATA, add(CFA_XSP16, literal(-1)))
        CFI (cfiCond30) CFA_SP SP+0
        CFI (cfiCond30) CFA_XSP16 add(XSP16, 12)
        CFI Block cfiCond31 Using cfiCommon0
        CFI (cfiCond31) NoFunction
        CFI (cfiCond31) Conditional ??CrossCallReturnLabel_158
        CFI (cfiCond31) R6 load(1, XDATA, add(CFA_XSP16, literal(-10)))
        CFI (cfiCond31) VB load(1, XDATA, add(CFA_XSP16, literal(-9)))
        CFI (cfiCond31) V0 load(1, XDATA, add(CFA_XSP16, literal(-8)))
        CFI (cfiCond31) V1 load(1, XDATA, add(CFA_XSP16, literal(-7)))
        CFI (cfiCond31) R7 load(1, XDATA, add(CFA_XSP16, literal(-6)))
        CFI (cfiCond31) ?RET_LOW load(1, XDATA, add(CFA_XSP16, literal(-5)))
        CFI (cfiCond31) ?RET_HIGH load(1, XDATA, add(CFA_XSP16, literal(-4)))
        CFI (cfiCond31) ?BRET_EXT load(1, XDATA, add(CFA_XSP16, literal(-3)))
        CFI (cfiCond31) DPL0 load(1, XDATA, add(CFA_XSP16, literal(-2)))
        CFI (cfiCond31) DPH0 load(1, XDATA, add(CFA_XSP16, literal(-1)))
        CFI (cfiCond31) CFA_SP SP+0
        CFI (cfiCond31) CFA_XSP16 add(XSP16, 12)
        CFI Block cfiCond32 Using cfiCommon0
        CFI (cfiCond32) NoFunction
        CFI (cfiCond32) Conditional ??CrossCallReturnLabel_159
        CFI (cfiCond32) R6 load(1, XDATA, add(CFA_XSP16, literal(-20)))
        CFI (cfiCond32) VB load(1, XDATA, add(CFA_XSP16, literal(-19)))
        CFI (cfiCond32) V0 load(1, XDATA, add(CFA_XSP16, literal(-18)))
        CFI (cfiCond32) V1 load(1, XDATA, add(CFA_XSP16, literal(-17)))
        CFI (cfiCond32) V2 load(1, XDATA, add(CFA_XSP16, literal(-16)))
        CFI (cfiCond32) V3 load(1, XDATA, add(CFA_XSP16, literal(-15)))
        CFI (cfiCond32) V4 load(1, XDATA, add(CFA_XSP16, literal(-14)))
        CFI (cfiCond32) V5 load(1, XDATA, add(CFA_XSP16, literal(-13)))
        CFI (cfiCond32) V6 load(1, XDATA, add(CFA_XSP16, literal(-12)))
        CFI (cfiCond32) V7 load(1, XDATA, add(CFA_XSP16, literal(-11)))
        CFI (cfiCond32) V8 load(1, XDATA, add(CFA_XSP16, literal(-10)))
        CFI (cfiCond32) V9 load(1, XDATA, add(CFA_XSP16, literal(-9)))
        CFI (cfiCond32) V10 load(1, XDATA, add(CFA_XSP16, literal(-8)))
        CFI (cfiCond32) V11 load(1, XDATA, add(CFA_XSP16, literal(-7)))
        CFI (cfiCond32) R7 load(1, XDATA, add(CFA_XSP16, literal(-6)))
        CFI (cfiCond32) ?RET_LOW load(1, XDATA, add(CFA_XSP16, literal(-5)))
        CFI (cfiCond32) ?RET_HIGH load(1, XDATA, add(CFA_XSP16, literal(-4)))
        CFI (cfiCond32) ?BRET_EXT load(1, XDATA, add(CFA_XSP16, literal(-3)))
        CFI (cfiCond32) DPL0 load(1, XDATA, add(CFA_XSP16, literal(-2)))
        CFI (cfiCond32) DPH0 load(1, XDATA, add(CFA_XSP16, literal(-1)))
        CFI (cfiCond32) CFA_SP SP+0
        CFI (cfiCond32) CFA_XSP16 add(XSP16, 38)
        CFI Block cfiCond33 Using cfiCommon0
        CFI (cfiCond33) NoFunction
        CFI (cfiCond33) Conditional ??CrossCallReturnLabel_160
        CFI (cfiCond33) R6 load(1, XDATA, add(CFA_XSP16, literal(-10)))
        CFI (cfiCond33) VB load(1, XDATA, add(CFA_XSP16, literal(-9)))
        CFI (cfiCond33) V0 load(1, XDATA, add(CFA_XSP16, literal(-8)))
        CFI (cfiCond33) V1 load(1, XDATA, add(CFA_XSP16, literal(-7)))
        CFI (cfiCond33) R7 load(1, XDATA, add(CFA_XSP16, literal(-6)))
        CFI (cfiCond33) ?RET_LOW load(1, XDATA, add(CFA_XSP16, literal(-5)))
        CFI (cfiCond33) ?RET_HIGH load(1, XDATA, add(CFA_XSP16, literal(-4)))
        CFI (cfiCond33) ?BRET_EXT load(1, XDATA, add(CFA_XSP16, literal(-3)))
        CFI (cfiCond33) DPL0 load(1, XDATA, add(CFA_XSP16, literal(-2)))
        CFI (cfiCond33) DPH0 load(1, XDATA, add(CFA_XSP16, literal(-1)))
        CFI (cfiCond33) CFA_SP SP+0
        CFI (cfiCond33) CFA_XSP16 add(XSP16, 13)
        CFI Block cfiCond34 Using cfiCommon0
        CFI (cfiCond34) NoFunction
        CFI (cfiCond34) Conditional ??CrossCallReturnLabel_141
        CFI (cfiCond34) R6 load(1, XDATA, add(CFA_XSP16, literal(-10)))
        CFI (cfiCond34) VB load(1, XDATA, add(CFA_XSP16, literal(-9)))
        CFI (cfiCond34) V0 load(1, XDATA, add(CFA_XSP16, literal(-8)))
        CFI (cfiCond34) V1 load(1, XDATA, add(CFA_XSP16, literal(-7)))
        CFI (cfiCond34) R7 load(1, XDATA, add(CFA_XSP16, literal(-6)))
        CFI (cfiCond34) ?RET_LOW load(1, XDATA, add(CFA_XSP16, literal(-5)))
        CFI (cfiCond34) ?RET_HIGH load(1, XDATA, add(CFA_XSP16, literal(-4)))
        CFI (cfiCond34) ?BRET_EXT load(1, XDATA, add(CFA_XSP16, literal(-3)))
        CFI (cfiCond34) DPL0 load(1, XDATA, add(CFA_XSP16, literal(-2)))
        CFI (cfiCond34) DPH0 load(1, XDATA, add(CFA_XSP16, literal(-1)))
        CFI (cfiCond34) CFA_SP SP+0
        CFI (cfiCond34) CFA_XSP16 add(XSP16, 16)
        CFI Block cfiCond35 Using cfiCommon0
        CFI (cfiCond35) NoFunction
        CFI (cfiCond35) Conditional ??CrossCallReturnLabel_142
        CFI (cfiCond35) R6 load(1, XDATA, add(CFA_XSP16, literal(-10)))
        CFI (cfiCond35) VB load(1, XDATA, add(CFA_XSP16, literal(-9)))
        CFI (cfiCond35) V0 load(1, XDATA, add(CFA_XSP16, literal(-8)))
        CFI (cfiCond35) V1 load(1, XDATA, add(CFA_XSP16, literal(-7)))
        CFI (cfiCond35) R7 load(1, XDATA, add(CFA_XSP16, literal(-6)))
        CFI (cfiCond35) ?RET_LOW load(1, XDATA, add(CFA_XSP16, literal(-5)))
        CFI (cfiCond35) ?RET_HIGH load(1, XDATA, add(CFA_XSP16, literal(-4)))
        CFI (cfiCond35) ?BRET_EXT load(1, XDATA, add(CFA_XSP16, literal(-3)))
        CFI (cfiCond35) DPL0 load(1, XDATA, add(CFA_XSP16, literal(-2)))
        CFI (cfiCond35) DPH0 load(1, XDATA, add(CFA_XSP16, literal(-1)))
        CFI (cfiCond35) CFA_SP SP+0
        CFI (cfiCond35) CFA_XSP16 add(XSP16, 16)
        CFI Block cfiCond36 Using cfiCommon0
        CFI (cfiCond36) NoFunction
        CFI (cfiCond36) Conditional ??CrossCallReturnLabel_143
        CFI (cfiCond36) R6 load(1, XDATA, add(CFA_XSP16, literal(-9)))
        CFI (cfiCond36) VB load(1, XDATA, add(CFA_XSP16, literal(-8)))
        CFI (cfiCond36) V0 load(1, XDATA, add(CFA_XSP16, literal(-7)))
        CFI (cfiCond36) R7 load(1, XDATA, add(CFA_XSP16, literal(-6)))
        CFI (cfiCond36) ?RET_LOW load(1, XDATA, add(CFA_XSP16, literal(-5)))
        CFI (cfiCond36) ?RET_HIGH load(1, XDATA, add(CFA_XSP16, literal(-4)))
        CFI (cfiCond36) ?BRET_EXT load(1, XDATA, add(CFA_XSP16, literal(-3)))
        CFI (cfiCond36) DPL0 load(1, XDATA, add(CFA_XSP16, literal(-2)))
        CFI (cfiCond36) DPH0 load(1, XDATA, add(CFA_XSP16, literal(-1)))
        CFI (cfiCond36) CFA_SP SP+0
        CFI (cfiCond36) CFA_XSP16 add(XSP16, 10)
        CFI Block cfiCond37 Using cfiCommon0
        CFI (cfiCond37) NoFunction
        CFI (cfiCond37) Conditional ??CrossCallReturnLabel_144
        CFI (cfiCond37) R6 load(1, XDATA, add(CFA_XSP16, literal(-23)))
        CFI (cfiCond37) VB load(1, XDATA, add(CFA_XSP16, literal(-22)))
        CFI (cfiCond37) V0 load(1, XDATA, add(CFA_XSP16, literal(-21)))
        CFI (cfiCond37) V1 load(1, XDATA, add(CFA_XSP16, literal(-20)))
        CFI (cfiCond37) V2 load(1, XDATA, add(CFA_XSP16, literal(-19)))
        CFI (cfiCond37) V3 load(1, XDATA, add(CFA_XSP16, literal(-18)))
        CFI (cfiCond37) V4 load(1, XDATA, add(CFA_XSP16, literal(-17)))
        CFI (cfiCond37) V5 load(1, XDATA, add(CFA_XSP16, literal(-16)))
        CFI (cfiCond37) V6 load(1, XDATA, add(CFA_XSP16, literal(-15)))
        CFI (cfiCond37) V7 load(1, XDATA, add(CFA_XSP16, literal(-14)))
        CFI (cfiCond37) V8 load(1, XDATA, add(CFA_XSP16, literal(-13)))
        CFI (cfiCond37) V9 load(1, XDATA, add(CFA_XSP16, literal(-12)))
        CFI (cfiCond37) V10 load(1, XDATA, add(CFA_XSP16, literal(-11)))
        CFI (cfiCond37) V11 load(1, XDATA, add(CFA_XSP16, literal(-10)))
        CFI (cfiCond37) V12 load(1, XDATA, add(CFA_XSP16, literal(-9)))
        CFI (cfiCond37) V13 load(1, XDATA, add(CFA_XSP16, literal(-8)))
        CFI (cfiCond37) V14 load(1, XDATA, add(CFA_XSP16, literal(-7)))
        CFI (cfiCond37) R7 load(1, XDATA, add(CFA_XSP16, literal(-6)))
        CFI (cfiCond37) ?RET_LOW load(1, XDATA, add(CFA_XSP16, literal(-5)))
        CFI (cfiCond37) ?RET_HIGH load(1, XDATA, add(CFA_XSP16, literal(-4)))
        CFI (cfiCond37) ?BRET_EXT load(1, XDATA, add(CFA_XSP16, literal(-3)))
        CFI (cfiCond37) DPL0 load(1, XDATA, add(CFA_XSP16, literal(-2)))
        CFI (cfiCond37) DPH0 load(1, XDATA, add(CFA_XSP16, literal(-1)))
        CFI (cfiCond37) CFA_SP SP+0
        CFI (cfiCond37) CFA_XSP16 add(XSP16, 47)
        CFI Block cfiCond38 Using cfiCommon0
        CFI (cfiCond38) NoFunction
        CFI (cfiCond38) Conditional ??CrossCallReturnLabel_139
        CFI (cfiCond38) R6 load(1, XDATA, add(CFA_XSP16, literal(-9)))
        CFI (cfiCond38) VB load(1, XDATA, add(CFA_XSP16, literal(-8)))
        CFI (cfiCond38) V0 load(1, XDATA, add(CFA_XSP16, literal(-7)))
        CFI (cfiCond38) R7 load(1, XDATA, add(CFA_XSP16, literal(-6)))
        CFI (cfiCond38) ?RET_LOW load(1, XDATA, add(CFA_XSP16, literal(-5)))
        CFI (cfiCond38) ?RET_HIGH load(1, XDATA, add(CFA_XSP16, literal(-4)))
        CFI (cfiCond38) ?BRET_EXT load(1, XDATA, add(CFA_XSP16, literal(-3)))
        CFI (cfiCond38) DPL0 load(1, XDATA, add(CFA_XSP16, literal(-2)))
        CFI (cfiCond38) DPH0 load(1, XDATA, add(CFA_XSP16, literal(-1)))
        CFI (cfiCond38) CFA_SP SP+0
        CFI (cfiCond38) CFA_XSP16 add(XSP16, 11)
        CFI Block cfiCond39 Using cfiCommon0
        CFI (cfiCond39) NoFunction
        CFI (cfiCond39) Conditional ??CrossCallReturnLabel_140
        CFI (cfiCond39) R6 load(1, XDATA, add(CFA_XSP16, literal(-23)))
        CFI (cfiCond39) VB load(1, XDATA, add(CFA_XSP16, literal(-22)))
        CFI (cfiCond39) V0 load(1, XDATA, add(CFA_XSP16, literal(-21)))
        CFI (cfiCond39) V1 load(1, XDATA, add(CFA_XSP16, literal(-20)))
        CFI (cfiCond39) V2 load(1, XDATA, add(CFA_XSP16, literal(-19)))
        CFI (cfiCond39) V3 load(1, XDATA, add(CFA_XSP16, literal(-18)))
        CFI (cfiCond39) V4 load(1, XDATA, add(CFA_XSP16, literal(-17)))
        CFI (cfiCond39) V5 load(1, XDATA, add(CFA_XSP16, literal(-16)))
        CFI (cfiCond39) V6 load(1, XDATA, add(CFA_XSP16, literal(-15)))
        CFI (cfiCond39) V7 load(1, XDATA, add(CFA_XSP16, literal(-14)))
        CFI (cfiCond39) V8 load(1, XDATA, add(CFA_XSP16, literal(-13)))
        CFI (cfiCond39) V9 load(1, XDATA, add(CFA_XSP16, literal(-12)))
        CFI (cfiCond39) V10 load(1, XDATA, add(CFA_XSP16, literal(-11)))
        CFI (cfiCond39) V11 load(1, XDATA, add(CFA_XSP16, literal(-10)))
        CFI (cfiCond39) V12 load(1, XDATA, add(CFA_XSP16, literal(-9)))
        CFI (cfiCond39) V13 load(1, XDATA, add(CFA_XSP16, literal(-8)))
        CFI (cfiCond39) V14 load(1, XDATA, add(CFA_XSP16, literal(-7)))
        CFI (cfiCond39) R7 load(1, XDATA, add(CFA_XSP16, literal(-6)))
        CFI (cfiCond39) ?RET_LOW load(1, XDATA, add(CFA_XSP16, literal(-5)))
        CFI (cfiCond39) ?RET_HIGH load(1, XDATA, add(CFA_XSP16, literal(-4)))
        CFI (cfiCond39) ?BRET_EXT load(1, XDATA, add(CFA_XSP16, literal(-3)))
        CFI (cfiCond39) DPL0 load(1, XDATA, add(CFA_XSP16, literal(-2)))
        CFI (cfiCond39) DPH0 load(1, XDATA, add(CFA_XSP16, literal(-1)))
        CFI (cfiCond39) CFA_SP SP+0
        CFI (cfiCond39) CFA_XSP16 add(XSP16, 47)
        CFI Block cfiCond40 Using cfiCommon0
        CFI (cfiCond40) NoFunction
        CFI (cfiCond40) Conditional ??CrossCallReturnLabel_137
        CFI (cfiCond40) R6 load(1, XDATA, add(CFA_XSP16, literal(-9)))
        CFI (cfiCond40) VB load(1, XDATA, add(CFA_XSP16, literal(-8)))
        CFI (cfiCond40) V0 load(1, XDATA, add(CFA_XSP16, literal(-7)))
        CFI (cfiCond40) R7 load(1, XDATA, add(CFA_XSP16, literal(-6)))
        CFI (cfiCond40) ?RET_LOW load(1, XDATA, add(CFA_XSP16, literal(-5)))
        CFI (cfiCond40) ?RET_HIGH load(1, XDATA, add(CFA_XSP16, literal(-4)))
        CFI (cfiCond40) ?BRET_EXT load(1, XDATA, add(CFA_XSP16, literal(-3)))
        CFI (cfiCond40) DPL0 load(1, XDATA, add(CFA_XSP16, literal(-2)))
        CFI (cfiCond40) DPH0 load(1, XDATA, add(CFA_XSP16, literal(-1)))
        CFI (cfiCond40) CFA_SP SP+0
        CFI (cfiCond40) CFA_XSP16 add(XSP16, 11)
        CFI Block cfiCond41 Using cfiCommon0
        CFI (cfiCond41) NoFunction
        CFI (cfiCond41) Conditional ??CrossCallReturnLabel_138
        CFI (cfiCond41) R6 load(1, XDATA, add(CFA_XSP16, literal(-10)))
        CFI (cfiCond41) VB load(1, XDATA, add(CFA_XSP16, literal(-9)))
        CFI (cfiCond41) V0 load(1, XDATA, add(CFA_XSP16, literal(-8)))
        CFI (cfiCond41) V1 load(1, XDATA, add(CFA_XSP16, literal(-7)))
        CFI (cfiCond41) R7 load(1, XDATA, add(CFA_XSP16, literal(-6)))
        CFI (cfiCond41) ?RET_LOW load(1, XDATA, add(CFA_XSP16, literal(-5)))
        CFI (cfiCond41) ?RET_HIGH load(1, XDATA, add(CFA_XSP16, literal(-4)))
        CFI (cfiCond41) ?BRET_EXT load(1, XDATA, add(CFA_XSP16, literal(-3)))
        CFI (cfiCond41) DPL0 load(1, XDATA, add(CFA_XSP16, literal(-2)))
        CFI (cfiCond41) DPH0 load(1, XDATA, add(CFA_XSP16, literal(-1)))
        CFI (cfiCond41) CFA_SP SP+0
        CFI (cfiCond41) CFA_XSP16 add(XSP16, 13)
        CFI Block cfiPicker42 Using cfiCommon1
        CFI (cfiPicker42) NoFunction
        CFI (cfiPicker42) Picker
        LCALL   ?Subroutine89 & 0xFFFF
        CFI EndBlock cfiCond18
        CFI EndBlock cfiCond19
        CFI EndBlock cfiCond20
        CFI EndBlock cfiCond21
        CFI EndBlock cfiCond22
        CFI EndBlock cfiCond23
        CFI EndBlock cfiCond24
        CFI EndBlock cfiCond25
        CFI EndBlock cfiCond26
        CFI EndBlock cfiCond27
        CFI EndBlock cfiCond28
        CFI EndBlock cfiCond29
        CFI EndBlock cfiCond30
        CFI EndBlock cfiCond31
        CFI EndBlock cfiCond32
        CFI EndBlock cfiCond33
        CFI EndBlock cfiCond34
        CFI EndBlock cfiCond35
        CFI EndBlock cfiCond36
        CFI EndBlock cfiCond37
        CFI EndBlock cfiCond38
        CFI EndBlock cfiCond39
        CFI EndBlock cfiCond40
        CFI EndBlock cfiCond41
        CFI EndBlock cfiPicker42
??CrossCallReturnLabel_194:
        REQUIRE ??Subroutine109_0
        ; // Fall through to label ??Subroutine109_0

        RSEG BANKED_CODE:CODE:NOROOT(0)
??Subroutine109_0:
        CFI Block cfiCond43 Using cfiCommon0
        CFI NoFunction
        CFI Conditional ??CrossCallReturnLabel_161
        CFI DPL0 Frame(CFA_SP, 4)
        CFI DPH0 Frame(CFA_SP, 5)
        CFI CFA_SP SP+-5
        CFI CFA_XSP16 add(XSP16, 1)
        CFI Block cfiCond44 Using cfiCommon0
        CFI (cfiCond44) NoFunction
        CFI (cfiCond44) Conditional ??CrossCallReturnLabel_162
        CFI (cfiCond44) DPL0 Frame(CFA_SP, 4)
        CFI (cfiCond44) DPH0 Frame(CFA_SP, 5)
        CFI (cfiCond44) CFA_SP SP+-5
        CFI (cfiCond44) CFA_XSP16 add(XSP16, 1)
        CFI Block cfiCond45 Using cfiCommon0
        CFI (cfiCond45) NoFunction
        CFI (cfiCond45) Conditional ??CrossCallReturnLabel_163
        CFI (cfiCond45) DPL0 Frame(CFA_SP, 4)
        CFI (cfiCond45) DPH0 Frame(CFA_SP, 5)
        CFI (cfiCond45) CFA_SP SP+-5
        CFI (cfiCond45) CFA_XSP16 add(XSP16, 1)
        CFI Block cfiCond46 Using cfiCommon0
        CFI (cfiCond46) NoFunction
        CFI (cfiCond46) Conditional ??CrossCallReturnLabel_164
        CFI (cfiCond46) DPL0 Frame(CFA_SP, 4)
        CFI (cfiCond46) DPH0 Frame(CFA_SP, 5)
        CFI (cfiCond46) CFA_SP SP+-5
        CFI (cfiCond46) CFA_XSP16 add(XSP16, 1)
        CFI Block cfiCond47 Using cfiCommon0
        CFI (cfiCond47) NoFunction
        CFI (cfiCond47) Conditional ??CrossCallReturnLabel_165
        CFI (cfiCond47) DPL0 Frame(CFA_SP, 4)
        CFI (cfiCond47) DPH0 Frame(CFA_SP, 5)
        CFI (cfiCond47) CFA_SP SP+-5
        CFI (cfiCond47) CFA_XSP16 add(XSP16, 1)
        CFI Block cfiCond48 Using cfiCommon0
        CFI (cfiCond48) NoFunction
        CFI (cfiCond48) Conditional ??CrossCallReturnLabel_166
        CFI (cfiCond48) DPL0 Frame(CFA_SP, 4)
        CFI (cfiCond48) DPH0 Frame(CFA_SP, 5)
        CFI (cfiCond48) CFA_SP SP+-5
        CFI (cfiCond48) CFA_XSP16 add(XSP16, 1)
        CFI Block cfiCond49 Using cfiCommon0
        CFI (cfiCond49) NoFunction
        CFI (cfiCond49) Conditional ??CrossCallReturnLabel_167
        CFI (cfiCond49) DPL0 Frame(CFA_SP, 4)
        CFI (cfiCond49) DPH0 Frame(CFA_SP, 5)
        CFI (cfiCond49) CFA_SP SP+-5
        CFI (cfiCond49) CFA_XSP16 add(XSP16, 1)
        CFI Block cfiCond50 Using cfiCommon0
        CFI (cfiCond50) NoFunction
        CFI (cfiCond50) Conditional ??CrossCallReturnLabel_168
        CFI (cfiCond50) DPL0 Frame(CFA_SP, 4)
        CFI (cfiCond50) DPH0 Frame(CFA_SP, 5)
        CFI (cfiCond50) CFA_SP SP+-5
        CFI (cfiCond50) CFA_XSP16 add(XSP16, 1)
        CFI Block cfiCond51 Using cfiCommon0
        CFI (cfiCond51) NoFunction
        CFI (cfiCond51) Conditional ??CrossCallReturnLabel_169
        CFI (cfiCond51) R6 load(1, XDATA, add(CFA_XSP16, literal(-10)))
        CFI (cfiCond51) VB load(1, XDATA, add(CFA_XSP16, literal(-9)))
        CFI (cfiCond51) V0 load(1, XDATA, add(CFA_XSP16, literal(-8)))
        CFI (cfiCond51) V1 load(1, XDATA, add(CFA_XSP16, literal(-7)))
        CFI (cfiCond51) R7 load(1, XDATA, add(CFA_XSP16, literal(-6)))
        CFI (cfiCond51) ?RET_LOW load(1, XDATA, add(CFA_XSP16, literal(-5)))
        CFI (cfiCond51) ?RET_HIGH load(1, XDATA, add(CFA_XSP16, literal(-4)))
        CFI (cfiCond51) ?BRET_EXT load(1, XDATA, add(CFA_XSP16, literal(-3)))
        CFI (cfiCond51) DPL0 load(1, XDATA, add(CFA_XSP16, literal(-2)))
        CFI (cfiCond51) DPH0 load(1, XDATA, add(CFA_XSP16, literal(-1)))
        CFI (cfiCond51) CFA_SP SP+0
        CFI (cfiCond51) CFA_XSP16 add(XSP16, 11)
        CFI Block cfiCond52 Using cfiCommon0
        CFI (cfiCond52) NoFunction
        CFI (cfiCond52) Conditional ??CrossCallReturnLabel_170
        CFI (cfiCond52) R6 load(1, XDATA, add(CFA_XSP16, literal(-9)))
        CFI (cfiCond52) VB load(1, XDATA, add(CFA_XSP16, literal(-8)))
        CFI (cfiCond52) V0 load(1, XDATA, add(CFA_XSP16, literal(-7)))
        CFI (cfiCond52) R7 load(1, XDATA, add(CFA_XSP16, literal(-6)))
        CFI (cfiCond52) ?RET_LOW load(1, XDATA, add(CFA_XSP16, literal(-5)))
        CFI (cfiCond52) ?RET_HIGH load(1, XDATA, add(CFA_XSP16, literal(-4)))
        CFI (cfiCond52) ?BRET_EXT load(1, XDATA, add(CFA_XSP16, literal(-3)))
        CFI (cfiCond52) DPL0 load(1, XDATA, add(CFA_XSP16, literal(-2)))
        CFI (cfiCond52) DPH0 load(1, XDATA, add(CFA_XSP16, literal(-1)))
        CFI (cfiCond52) CFA_SP SP+0
        CFI (cfiCond52) CFA_XSP16 add(XSP16, 10)
        CFI Block cfiCond53 Using cfiCommon0
        CFI (cfiCond53) NoFunction
        CFI (cfiCond53) Conditional ??CrossCallReturnLabel_171
        CFI (cfiCond53) DPL0 Frame(CFA_SP, 4)
        CFI (cfiCond53) DPH0 Frame(CFA_SP, 5)
        CFI (cfiCond53) CFA_SP SP+-5
        CFI (cfiCond53) CFA_XSP16 add(XSP16, 1)
        CFI Block cfiCond54 Using cfiCommon0
        CFI (cfiCond54) NoFunction
        CFI (cfiCond54) Conditional ??CrossCallReturnLabel_172
        CFI (cfiCond54) R6 load(1, XDATA, add(CFA_XSP16, literal(-9)))
        CFI (cfiCond54) VB load(1, XDATA, add(CFA_XSP16, literal(-8)))
        CFI (cfiCond54) V0 load(1, XDATA, add(CFA_XSP16, literal(-7)))
        CFI (cfiCond54) R7 load(1, XDATA, add(CFA_XSP16, literal(-6)))
        CFI (cfiCond54) ?RET_LOW load(1, XDATA, add(CFA_XSP16, literal(-5)))
        CFI (cfiCond54) ?RET_HIGH load(1, XDATA, add(CFA_XSP16, literal(-4)))
        CFI (cfiCond54) ?BRET_EXT load(1, XDATA, add(CFA_XSP16, literal(-3)))
        CFI (cfiCond54) DPL0 load(1, XDATA, add(CFA_XSP16, literal(-2)))
        CFI (cfiCond54) DPH0 load(1, XDATA, add(CFA_XSP16, literal(-1)))
        CFI (cfiCond54) CFA_SP SP+0
        CFI (cfiCond54) CFA_XSP16 add(XSP16, 10)
        CFI Block cfiCond55 Using cfiCommon0
        CFI (cfiCond55) NoFunction
        CFI (cfiCond55) Conditional ??CrossCallReturnLabel_173
        CFI (cfiCond55) R6 load(1, XDATA, add(CFA_XSP16, literal(-9)))
        CFI (cfiCond55) VB load(1, XDATA, add(CFA_XSP16, literal(-8)))
        CFI (cfiCond55) V0 load(1, XDATA, add(CFA_XSP16, literal(-7)))
        CFI (cfiCond55) R7 load(1, XDATA, add(CFA_XSP16, literal(-6)))
        CFI (cfiCond55) ?RET_LOW load(1, XDATA, add(CFA_XSP16, literal(-5)))
        CFI (cfiCond55) ?RET_HIGH load(1, XDATA, add(CFA_XSP16, literal(-4)))
        CFI (cfiCond55) ?BRET_EXT load(1, XDATA, add(CFA_XSP16, literal(-3)))
        CFI (cfiCond55) DPL0 load(1, XDATA, add(CFA_XSP16, literal(-2)))
        CFI (cfiCond55) DPH0 load(1, XDATA, add(CFA_XSP16, literal(-1)))
        CFI (cfiCond55) CFA_SP SP+0
        CFI (cfiCond55) CFA_XSP16 add(XSP16, 10)
        CFI Block cfiCond56 Using cfiCommon0
        CFI (cfiCond56) NoFunction
        CFI (cfiCond56) Conditional ??CrossCallReturnLabel_174
        CFI (cfiCond56) R6 load(1, XDATA, add(CFA_XSP16, literal(-9)))
        CFI (cfiCond56) VB load(1, XDATA, add(CFA_XSP16, literal(-8)))
        CFI (cfiCond56) V0 load(1, XDATA, add(CFA_XSP16, literal(-7)))
        CFI (cfiCond56) R7 load(1, XDATA, add(CFA_XSP16, literal(-6)))
        CFI (cfiCond56) ?RET_LOW load(1, XDATA, add(CFA_XSP16, literal(-5)))
        CFI (cfiCond56) ?RET_HIGH load(1, XDATA, add(CFA_XSP16, literal(-4)))
        CFI (cfiCond56) ?BRET_EXT load(1, XDATA, add(CFA_XSP16, literal(-3)))
        CFI (cfiCond56) DPL0 load(1, XDATA, add(CFA_XSP16, literal(-2)))
        CFI (cfiCond56) DPH0 load(1, XDATA, add(CFA_XSP16, literal(-1)))
        CFI (cfiCond56) CFA_SP SP+0
        CFI (cfiCond56) CFA_XSP16 add(XSP16, 10)
        CFI Block cfiCond57 Using cfiCommon0
        CFI (cfiCond57) NoFunction
        CFI (cfiCond57) Conditional ??CrossCallReturnLabel_175
        CFI (cfiCond57) R6 load(1, XDATA, add(CFA_XSP16, literal(-23)))
        CFI (cfiCond57) VB load(1, XDATA, add(CFA_XSP16, literal(-22)))
        CFI (cfiCond57) V0 load(1, XDATA, add(CFA_XSP16, literal(-21)))
        CFI (cfiCond57) V1 load(1, XDATA, add(CFA_XSP16, literal(-20)))
        CFI (cfiCond57) V2 load(1, XDATA, add(CFA_XSP16, literal(-19)))
        CFI (cfiCond57) V3 load(1, XDATA, add(CFA_XSP16, literal(-18)))
        CFI (cfiCond57) V4 load(1, XDATA, add(CFA_XSP16, literal(-17)))
        CFI (cfiCond57) V5 load(1, XDATA, add(CFA_XSP16, literal(-16)))
        CFI (cfiCond57) V6 load(1, XDATA, add(CFA_XSP16, literal(-15)))
        CFI (cfiCond57) V7 load(1, XDATA, add(CFA_XSP16, literal(-14)))
        CFI (cfiCond57) V8 load(1, XDATA, add(CFA_XSP16, literal(-13)))
        CFI (cfiCond57) V9 load(1, XDATA, add(CFA_XSP16, literal(-12)))
        CFI (cfiCond57) V10 load(1, XDATA, add(CFA_XSP16, literal(-11)))
        CFI (cfiCond57) V11 load(1, XDATA, add(CFA_XSP16, literal(-10)))
        CFI (cfiCond57) V12 load(1, XDATA, add(CFA_XSP16, literal(-9)))
        CFI (cfiCond57) V13 load(1, XDATA, add(CFA_XSP16, literal(-8)))
        CFI (cfiCond57) V14 load(1, XDATA, add(CFA_XSP16, literal(-7)))
        CFI (cfiCond57) R7 load(1, XDATA, add(CFA_XSP16, literal(-6)))
        CFI (cfiCond57) ?RET_LOW load(1, XDATA, add(CFA_XSP16, literal(-5)))
        CFI (cfiCond57) ?RET_HIGH load(1, XDATA, add(CFA_XSP16, literal(-4)))
        CFI (cfiCond57) ?BRET_EXT load(1, XDATA, add(CFA_XSP16, literal(-3)))
        CFI (cfiCond57) DPL0 load(1, XDATA, add(CFA_XSP16, literal(-2)))
        CFI (cfiCond57) DPH0 load(1, XDATA, add(CFA_XSP16, literal(-1)))
        CFI (cfiCond57) CFA_SP SP+0
        CFI (cfiCond57) CFA_XSP16 add(XSP16, 47)
        CFI Block cfiCond58 Using cfiCommon0
        CFI (cfiCond58) NoFunction
        CFI (cfiCond58) Conditional ??CrossCallReturnLabel_176
        CFI (cfiCond58) R6 load(1, XDATA, add(CFA_XSP16, literal(-23)))
        CFI (cfiCond58) VB load(1, XDATA, add(CFA_XSP16, literal(-22)))
        CFI (cfiCond58) V0 load(1, XDATA, add(CFA_XSP16, literal(-21)))
        CFI (cfiCond58) V1 load(1, XDATA, add(CFA_XSP16, literal(-20)))
        CFI (cfiCond58) V2 load(1, XDATA, add(CFA_XSP16, literal(-19)))
        CFI (cfiCond58) V3 load(1, XDATA, add(CFA_XSP16, literal(-18)))
        CFI (cfiCond58) V4 load(1, XDATA, add(CFA_XSP16, literal(-17)))
        CFI (cfiCond58) V5 load(1, XDATA, add(CFA_XSP16, literal(-16)))
        CFI (cfiCond58) V6 load(1, XDATA, add(CFA_XSP16, literal(-15)))
        CFI (cfiCond58) V7 load(1, XDATA, add(CFA_XSP16, literal(-14)))
        CFI (cfiCond58) V8 load(1, XDATA, add(CFA_XSP16, literal(-13)))
        CFI (cfiCond58) V9 load(1, XDATA, add(CFA_XSP16, literal(-12)))
        CFI (cfiCond58) V10 load(1, XDATA, add(CFA_XSP16, literal(-11)))
        CFI (cfiCond58) V11 load(1, XDATA, add(CFA_XSP16, literal(-10)))
        CFI (cfiCond58) V12 load(1, XDATA, add(CFA_XSP16, literal(-9)))
        CFI (cfiCond58) V13 load(1, XDATA, add(CFA_XSP16, literal(-8)))
        CFI (cfiCond58) V14 load(1, XDATA, add(CFA_XSP16, literal(-7)))
        CFI (cfiCond58) R7 load(1, XDATA, add(CFA_XSP16, literal(-6)))
        CFI (cfiCond58) ?RET_LOW load(1, XDATA, add(CFA_XSP16, literal(-5)))
        CFI (cfiCond58) ?RET_HIGH load(1, XDATA, add(CFA_XSP16, literal(-4)))
        CFI (cfiCond58) ?BRET_EXT load(1, XDATA, add(CFA_XSP16, literal(-3)))
        CFI (cfiCond58) DPL0 load(1, XDATA, add(CFA_XSP16, literal(-2)))
        CFI (cfiCond58) DPH0 load(1, XDATA, add(CFA_XSP16, literal(-1)))
        CFI (cfiCond58) CFA_SP SP+0
        CFI (cfiCond58) CFA_XSP16 add(XSP16, 47)
        CFI Block cfiCond59 Using cfiCommon0
        CFI (cfiCond59) NoFunction
        CFI (cfiCond59) Conditional ??CrossCallReturnLabel_177
        CFI (cfiCond59) R6 load(1, XDATA, add(CFA_XSP16, literal(-23)))
        CFI (cfiCond59) VB load(1, XDATA, add(CFA_XSP16, literal(-22)))
        CFI (cfiCond59) V0 load(1, XDATA, add(CFA_XSP16, literal(-21)))
        CFI (cfiCond59) V1 load(1, XDATA, add(CFA_XSP16, literal(-20)))
        CFI (cfiCond59) V2 load(1, XDATA, add(CFA_XSP16, literal(-19)))
        CFI (cfiCond59) V3 load(1, XDATA, add(CFA_XSP16, literal(-18)))
        CFI (cfiCond59) V4 load(1, XDATA, add(CFA_XSP16, literal(-17)))
        CFI (cfiCond59) V5 load(1, XDATA, add(CFA_XSP16, literal(-16)))
        CFI (cfiCond59) V6 load(1, XDATA, add(CFA_XSP16, literal(-15)))
        CFI (cfiCond59) V7 load(1, XDATA, add(CFA_XSP16, literal(-14)))
        CFI (cfiCond59) V8 load(1, XDATA, add(CFA_XSP16, literal(-13)))
        CFI (cfiCond59) V9 load(1, XDATA, add(CFA_XSP16, literal(-12)))
        CFI (cfiCond59) V10 load(1, XDATA, add(CFA_XSP16, literal(-11)))
        CFI (cfiCond59) V11 load(1, XDATA, add(CFA_XSP16, literal(-10)))
        CFI (cfiCond59) V12 load(1, XDATA, add(CFA_XSP16, literal(-9)))
        CFI (cfiCond59) V13 load(1, XDATA, add(CFA_XSP16, literal(-8)))
        CFI (cfiCond59) V14 load(1, XDATA, add(CFA_XSP16, literal(-7)))
        CFI (cfiCond59) R7 load(1, XDATA, add(CFA_XSP16, literal(-6)))
        CFI (cfiCond59) ?RET_LOW load(1, XDATA, add(CFA_XSP16, literal(-5)))
        CFI (cfiCond59) ?RET_HIGH load(1, XDATA, add(CFA_XSP16, literal(-4)))
        CFI (cfiCond59) ?BRET_EXT load(1, XDATA, add(CFA_XSP16, literal(-3)))
        CFI (cfiCond59) DPL0 load(1, XDATA, add(CFA_XSP16, literal(-2)))
        CFI (cfiCond59) DPH0 load(1, XDATA, add(CFA_XSP16, literal(-1)))
        CFI (cfiCond59) CFA_SP SP+0
        CFI (cfiCond59) CFA_XSP16 add(XSP16, 47)
        CFI Block cfiCond60 Using cfiCommon0
        CFI (cfiCond60) NoFunction
        CFI (cfiCond60) Conditional ??CrossCallReturnLabel_178
        CFI (cfiCond60) R6 load(1, XDATA, add(CFA_XSP16, literal(-23)))
        CFI (cfiCond60) VB load(1, XDATA, add(CFA_XSP16, literal(-22)))
        CFI (cfiCond60) V0 load(1, XDATA, add(CFA_XSP16, literal(-21)))
        CFI (cfiCond60) V1 load(1, XDATA, add(CFA_XSP16, literal(-20)))
        CFI (cfiCond60) V2 load(1, XDATA, add(CFA_XSP16, literal(-19)))
        CFI (cfiCond60) V3 load(1, XDATA, add(CFA_XSP16, literal(-18)))
        CFI (cfiCond60) V4 load(1, XDATA, add(CFA_XSP16, literal(-17)))
        CFI (cfiCond60) V5 load(1, XDATA, add(CFA_XSP16, literal(-16)))
        CFI (cfiCond60) V6 load(1, XDATA, add(CFA_XSP16, literal(-15)))
        CFI (cfiCond60) V7 load(1, XDATA, add(CFA_XSP16, literal(-14)))
        CFI (cfiCond60) V8 load(1, XDATA, add(CFA_XSP16, literal(-13)))
        CFI (cfiCond60) V9 load(1, XDATA, add(CFA_XSP16, literal(-12)))
        CFI (cfiCond60) V10 load(1, XDATA, add(CFA_XSP16, literal(-11)))
        CFI (cfiCond60) V11 load(1, XDATA, add(CFA_XSP16, literal(-10)))
        CFI (cfiCond60) V12 load(1, XDATA, add(CFA_XSP16, literal(-9)))
        CFI (cfiCond60) V13 load(1, XDATA, add(CFA_XSP16, literal(-8)))
        CFI (cfiCond60) V14 load(1, XDATA, add(CFA_XSP16, literal(-7)))
        CFI (cfiCond60) R7 load(1, XDATA, add(CFA_XSP16, literal(-6)))
        CFI (cfiCond60) ?RET_LOW load(1, XDATA, add(CFA_XSP16, literal(-5)))
        CFI (cfiCond60) ?RET_HIGH load(1, XDATA, add(CFA_XSP16, literal(-4)))
        CFI (cfiCond60) ?BRET_EXT load(1, XDATA, add(CFA_XSP16, literal(-3)))
        CFI (cfiCond60) DPL0 load(1, XDATA, add(CFA_XSP16, literal(-2)))
        CFI (cfiCond60) DPH0 load(1, XDATA, add(CFA_XSP16, literal(-1)))
        CFI (cfiCond60) CFA_SP SP+0
        CFI (cfiCond60) CFA_XSP16 add(XSP16, 47)
        CFI Block cfiCond61 Using cfiCommon0
        CFI (cfiCond61) NoFunction
        CFI (cfiCond61) Conditional ??CrossCallReturnLabel_179
        CFI (cfiCond61) R6 load(1, XDATA, add(CFA_XSP16, literal(-23)))
        CFI (cfiCond61) VB load(1, XDATA, add(CFA_XSP16, literal(-22)))
        CFI (cfiCond61) V0 load(1, XDATA, add(CFA_XSP16, literal(-21)))
        CFI (cfiCond61) V1 load(1, XDATA, add(CFA_XSP16, literal(-20)))
        CFI (cfiCond61) V2 load(1, XDATA, add(CFA_XSP16, literal(-19)))
        CFI (cfiCond61) V3 load(1, XDATA, add(CFA_XSP16, literal(-18)))
        CFI (cfiCond61) V4 load(1, XDATA, add(CFA_XSP16, literal(-17)))
        CFI (cfiCond61) V5 load(1, XDATA, add(CFA_XSP16, literal(-16)))
        CFI (cfiCond61) V6 load(1, XDATA, add(CFA_XSP16, literal(-15)))
        CFI (cfiCond61) V7 load(1, XDATA, add(CFA_XSP16, literal(-14)))
        CFI (cfiCond61) V8 load(1, XDATA, add(CFA_XSP16, literal(-13)))
        CFI (cfiCond61) V9 load(1, XDATA, add(CFA_XSP16, literal(-12)))
        CFI (cfiCond61) V10 load(1, XDATA, add(CFA_XSP16, literal(-11)))
        CFI (cfiCond61) V11 load(1, XDATA, add(CFA_XSP16, literal(-10)))
        CFI (cfiCond61) V12 load(1, XDATA, add(CFA_XSP16, literal(-9)))
        CFI (cfiCond61) V13 load(1, XDATA, add(CFA_XSP16, literal(-8)))
        CFI (cfiCond61) V14 load(1, XDATA, add(CFA_XSP16, literal(-7)))
        CFI (cfiCond61) R7 load(1, XDATA, add(CFA_XSP16, literal(-6)))
        CFI (cfiCond61) ?RET_LOW load(1, XDATA, add(CFA_XSP16, literal(-5)))
        CFI (cfiCond61) ?RET_HIGH load(1, XDATA, add(CFA_XSP16, literal(-4)))
        CFI (cfiCond61) ?BRET_EXT load(1, XDATA, add(CFA_XSP16, literal(-3)))
        CFI (cfiCond61) DPL0 load(1, XDATA, add(CFA_XSP16, literal(-2)))
        CFI (cfiCond61) DPH0 load(1, XDATA, add(CFA_XSP16, literal(-1)))
        CFI (cfiCond61) CFA_SP SP+0
        CFI (cfiCond61) CFA_XSP16 add(XSP16, 47)
        CFI Block cfiCond62 Using cfiCommon0
        CFI (cfiCond62) NoFunction
        CFI (cfiCond62) Conditional ??CrossCallReturnLabel_180
        CFI (cfiCond62) R6 load(1, XDATA, add(CFA_XSP16, literal(-23)))
        CFI (cfiCond62) VB load(1, XDATA, add(CFA_XSP16, literal(-22)))
        CFI (cfiCond62) V0 load(1, XDATA, add(CFA_XSP16, literal(-21)))
        CFI (cfiCond62) V1 load(1, XDATA, add(CFA_XSP16, literal(-20)))
        CFI (cfiCond62) V2 load(1, XDATA, add(CFA_XSP16, literal(-19)))
        CFI (cfiCond62) V3 load(1, XDATA, add(CFA_XSP16, literal(-18)))
        CFI (cfiCond62) V4 load(1, XDATA, add(CFA_XSP16, literal(-17)))
        CFI (cfiCond62) V5 load(1, XDATA, add(CFA_XSP16, literal(-16)))
        CFI (cfiCond62) V6 load(1, XDATA, add(CFA_XSP16, literal(-15)))
        CFI (cfiCond62) V7 load(1, XDATA, add(CFA_XSP16, literal(-14)))
        CFI (cfiCond62) V8 load(1, XDATA, add(CFA_XSP16, literal(-13)))
        CFI (cfiCond62) V9 load(1, XDATA, add(CFA_XSP16, literal(-12)))
        CFI (cfiCond62) V10 load(1, XDATA, add(CFA_XSP16, literal(-11)))
        CFI (cfiCond62) V11 load(1, XDATA, add(CFA_XSP16, literal(-10)))
        CFI (cfiCond62) V12 load(1, XDATA, add(CFA_XSP16, literal(-9)))
        CFI (cfiCond62) V13 load(1, XDATA, add(CFA_XSP16, literal(-8)))
        CFI (cfiCond62) V14 load(1, XDATA, add(CFA_XSP16, literal(-7)))
        CFI (cfiCond62) R7 load(1, XDATA, add(CFA_XSP16, literal(-6)))
        CFI (cfiCond62) ?RET_LOW load(1, XDATA, add(CFA_XSP16, literal(-5)))
        CFI (cfiCond62) ?RET_HIGH load(1, XDATA, add(CFA_XSP16, literal(-4)))
        CFI (cfiCond62) ?BRET_EXT load(1, XDATA, add(CFA_XSP16, literal(-3)))
        CFI (cfiCond62) DPL0 load(1, XDATA, add(CFA_XSP16, literal(-2)))
        CFI (cfiCond62) DPH0 load(1, XDATA, add(CFA_XSP16, literal(-1)))
        CFI (cfiCond62) CFA_SP SP+0
        CFI (cfiCond62) CFA_XSP16 add(XSP16, 47)
        CFI Block cfiCond63 Using cfiCommon0
        CFI (cfiCond63) NoFunction
        CFI (cfiCond63) Conditional ??CrossCallReturnLabel_181
        CFI (cfiCond63) R6 load(1, XDATA, add(CFA_XSP16, literal(-23)))
        CFI (cfiCond63) VB load(1, XDATA, add(CFA_XSP16, literal(-22)))
        CFI (cfiCond63) V0 load(1, XDATA, add(CFA_XSP16, literal(-21)))
        CFI (cfiCond63) V1 load(1, XDATA, add(CFA_XSP16, literal(-20)))
        CFI (cfiCond63) V2 load(1, XDATA, add(CFA_XSP16, literal(-19)))
        CFI (cfiCond63) V3 load(1, XDATA, add(CFA_XSP16, literal(-18)))
        CFI (cfiCond63) V4 load(1, XDATA, add(CFA_XSP16, literal(-17)))
        CFI (cfiCond63) V5 load(1, XDATA, add(CFA_XSP16, literal(-16)))
        CFI (cfiCond63) V6 load(1, XDATA, add(CFA_XSP16, literal(-15)))
        CFI (cfiCond63) V7 load(1, XDATA, add(CFA_XSP16, literal(-14)))
        CFI (cfiCond63) V8 load(1, XDATA, add(CFA_XSP16, literal(-13)))
        CFI (cfiCond63) V9 load(1, XDATA, add(CFA_XSP16, literal(-12)))
        CFI (cfiCond63) V10 load(1, XDATA, add(CFA_XSP16, literal(-11)))
        CFI (cfiCond63) V11 load(1, XDATA, add(CFA_XSP16, literal(-10)))
        CFI (cfiCond63) V12 load(1, XDATA, add(CFA_XSP16, literal(-9)))
        CFI (cfiCond63) V13 load(1, XDATA, add(CFA_XSP16, literal(-8)))
        CFI (cfiCond63) V14 load(1, XDATA, add(CFA_XSP16, literal(-7)))
        CFI (cfiCond63) R7 load(1, XDATA, add(CFA_XSP16, literal(-6)))
        CFI (cfiCond63) ?RET_LOW load(1, XDATA, add(CFA_XSP16, literal(-5)))
        CFI (cfiCond63) ?RET_HIGH load(1, XDATA, add(CFA_XSP16, literal(-4)))
        CFI (cfiCond63) ?BRET_EXT load(1, XDATA, add(CFA_XSP16, literal(-3)))
        CFI (cfiCond63) DPL0 load(1, XDATA, add(CFA_XSP16, literal(-2)))
        CFI (cfiCond63) DPH0 load(1, XDATA, add(CFA_XSP16, literal(-1)))
        CFI (cfiCond63) CFA_SP SP+0
        CFI (cfiCond63) CFA_XSP16 add(XSP16, 47)
        CFI Block cfiCond64 Using cfiCommon0
        CFI (cfiCond64) NoFunction
        CFI (cfiCond64) Conditional ??CrossCallReturnLabel_182
        CFI (cfiCond64) R6 load(1, XDATA, add(CFA_XSP16, literal(-23)))
        CFI (cfiCond64) VB load(1, XDATA, add(CFA_XSP16, literal(-22)))
        CFI (cfiCond64) V0 load(1, XDATA, add(CFA_XSP16, literal(-21)))
        CFI (cfiCond64) V1 load(1, XDATA, add(CFA_XSP16, literal(-20)))
        CFI (cfiCond64) V2 load(1, XDATA, add(CFA_XSP16, literal(-19)))
        CFI (cfiCond64) V3 load(1, XDATA, add(CFA_XSP16, literal(-18)))
        CFI (cfiCond64) V4 load(1, XDATA, add(CFA_XSP16, literal(-17)))
        CFI (cfiCond64) V5 load(1, XDATA, add(CFA_XSP16, literal(-16)))
        CFI (cfiCond64) V6 load(1, XDATA, add(CFA_XSP16, literal(-15)))
        CFI (cfiCond64) V7 load(1, XDATA, add(CFA_XSP16, literal(-14)))
        CFI (cfiCond64) V8 load(1, XDATA, add(CFA_XSP16, literal(-13)))
        CFI (cfiCond64) V9 load(1, XDATA, add(CFA_XSP16, literal(-12)))
        CFI (cfiCond64) V10 load(1, XDATA, add(CFA_XSP16, literal(-11)))
        CFI (cfiCond64) V11 load(1, XDATA, add(CFA_XSP16, literal(-10)))
        CFI (cfiCond64) V12 load(1, XDATA, add(CFA_XSP16, literal(-9)))
        CFI (cfiCond64) V13 load(1, XDATA, add(CFA_XSP16, literal(-8)))
        CFI (cfiCond64) V14 load(1, XDATA, add(CFA_XSP16, literal(-7)))
        CFI (cfiCond64) R7 load(1, XDATA, add(CFA_XSP16, literal(-6)))
        CFI (cfiCond64) ?RET_LOW load(1, XDATA, add(CFA_XSP16, literal(-5)))
        CFI (cfiCond64) ?RET_HIGH load(1, XDATA, add(CFA_XSP16, literal(-4)))
        CFI (cfiCond64) ?BRET_EXT load(1, XDATA, add(CFA_XSP16, literal(-3)))
        CFI (cfiCond64) DPL0 load(1, XDATA, add(CFA_XSP16, literal(-2)))
        CFI (cfiCond64) DPH0 load(1, XDATA, add(CFA_XSP16, literal(-1)))
        CFI (cfiCond64) CFA_SP SP+0
        CFI (cfiCond64) CFA_XSP16 add(XSP16, 47)
        CFI Block cfiCond65 Using cfiCommon0
        CFI (cfiCond65) NoFunction
        CFI (cfiCond65) Conditional ??CrossCallReturnLabel_183
        CFI (cfiCond65) R6 load(1, XDATA, add(CFA_XSP16, literal(-23)))
        CFI (cfiCond65) VB load(1, XDATA, add(CFA_XSP16, literal(-22)))
        CFI (cfiCond65) V0 load(1, XDATA, add(CFA_XSP16, literal(-21)))
        CFI (cfiCond65) V1 load(1, XDATA, add(CFA_XSP16, literal(-20)))
        CFI (cfiCond65) V2 load(1, XDATA, add(CFA_XSP16, literal(-19)))
        CFI (cfiCond65) V3 load(1, XDATA, add(CFA_XSP16, literal(-18)))
        CFI (cfiCond65) V4 load(1, XDATA, add(CFA_XSP16, literal(-17)))
        CFI (cfiCond65) V5 load(1, XDATA, add(CFA_XSP16, literal(-16)))
        CFI (cfiCond65) V6 load(1, XDATA, add(CFA_XSP16, literal(-15)))
        CFI (cfiCond65) V7 load(1, XDATA, add(CFA_XSP16, literal(-14)))
        CFI (cfiCond65) V8 load(1, XDATA, add(CFA_XSP16, literal(-13)))
        CFI (cfiCond65) V9 load(1, XDATA, add(CFA_XSP16, literal(-12)))
        CFI (cfiCond65) V10 load(1, XDATA, add(CFA_XSP16, literal(-11)))
        CFI (cfiCond65) V11 load(1, XDATA, add(CFA_XSP16, literal(-10)))
        CFI (cfiCond65) V12 load(1, XDATA, add(CFA_XSP16, literal(-9)))
        CFI (cfiCond65) V13 load(1, XDATA, add(CFA_XSP16, literal(-8)))
        CFI (cfiCond65) V14 load(1, XDATA, add(CFA_XSP16, literal(-7)))
        CFI (cfiCond65) R7 load(1, XDATA, add(CFA_XSP16, literal(-6)))
        CFI (cfiCond65) ?RET_LOW load(1, XDATA, add(CFA_XSP16, literal(-5)))
        CFI (cfiCond65) ?RET_HIGH load(1, XDATA, add(CFA_XSP16, literal(-4)))
        CFI (cfiCond65) ?BRET_EXT load(1, XDATA, add(CFA_XSP16, literal(-3)))
        CFI (cfiCond65) DPL0 load(1, XDATA, add(CFA_XSP16, literal(-2)))
        CFI (cfiCond65) DPH0 load(1, XDATA, add(CFA_XSP16, literal(-1)))
        CFI (cfiCond65) CFA_SP SP+0
        CFI (cfiCond65) CFA_XSP16 add(XSP16, 47)
        CFI Block cfiCond66 Using cfiCommon0
        CFI (cfiCond66) NoFunction
        CFI (cfiCond66) Conditional ??CrossCallReturnLabel_184
        CFI (cfiCond66) R6 load(1, XDATA, add(CFA_XSP16, literal(-23)))
        CFI (cfiCond66) VB load(1, XDATA, add(CFA_XSP16, literal(-22)))
        CFI (cfiCond66) V0 load(1, XDATA, add(CFA_XSP16, literal(-21)))
        CFI (cfiCond66) V1 load(1, XDATA, add(CFA_XSP16, literal(-20)))
        CFI (cfiCond66) V2 load(1, XDATA, add(CFA_XSP16, literal(-19)))
        CFI (cfiCond66) V3 load(1, XDATA, add(CFA_XSP16, literal(-18)))
        CFI (cfiCond66) V4 load(1, XDATA, add(CFA_XSP16, literal(-17)))
        CFI (cfiCond66) V5 load(1, XDATA, add(CFA_XSP16, literal(-16)))
        CFI (cfiCond66) V6 load(1, XDATA, add(CFA_XSP16, literal(-15)))
        CFI (cfiCond66) V7 load(1, XDATA, add(CFA_XSP16, literal(-14)))
        CFI (cfiCond66) V8 load(1, XDATA, add(CFA_XSP16, literal(-13)))
        CFI (cfiCond66) V9 load(1, XDATA, add(CFA_XSP16, literal(-12)))
        CFI (cfiCond66) V10 load(1, XDATA, add(CFA_XSP16, literal(-11)))
        CFI (cfiCond66) V11 load(1, XDATA, add(CFA_XSP16, literal(-10)))
        CFI (cfiCond66) V12 load(1, XDATA, add(CFA_XSP16, literal(-9)))
        CFI (cfiCond66) V13 load(1, XDATA, add(CFA_XSP16, literal(-8)))
        CFI (cfiCond66) V14 load(1, XDATA, add(CFA_XSP16, literal(-7)))
        CFI (cfiCond66) R7 load(1, XDATA, add(CFA_XSP16, literal(-6)))
        CFI (cfiCond66) ?RET_LOW load(1, XDATA, add(CFA_XSP16, literal(-5)))
        CFI (cfiCond66) ?RET_HIGH load(1, XDATA, add(CFA_XSP16, literal(-4)))
        CFI (cfiCond66) ?BRET_EXT load(1, XDATA, add(CFA_XSP16, literal(-3)))
        CFI (cfiCond66) DPL0 load(1, XDATA, add(CFA_XSP16, literal(-2)))
        CFI (cfiCond66) DPH0 load(1, XDATA, add(CFA_XSP16, literal(-1)))
        CFI (cfiCond66) CFA_SP SP+0
        CFI (cfiCond66) CFA_XSP16 add(XSP16, 47)
        CFI Block cfiCond67 Using cfiCommon0
        CFI (cfiCond67) NoFunction
        CFI (cfiCond67) Conditional ??CrossCallReturnLabel_185
        CFI (cfiCond67) R6 load(1, XDATA, add(CFA_XSP16, literal(-10)))
        CFI (cfiCond67) VB load(1, XDATA, add(CFA_XSP16, literal(-9)))
        CFI (cfiCond67) V0 load(1, XDATA, add(CFA_XSP16, literal(-8)))
        CFI (cfiCond67) V1 load(1, XDATA, add(CFA_XSP16, literal(-7)))
        CFI (cfiCond67) R7 load(1, XDATA, add(CFA_XSP16, literal(-6)))
        CFI (cfiCond67) ?RET_LOW load(1, XDATA, add(CFA_XSP16, literal(-5)))
        CFI (cfiCond67) ?RET_HIGH load(1, XDATA, add(CFA_XSP16, literal(-4)))
        CFI (cfiCond67) ?BRET_EXT load(1, XDATA, add(CFA_XSP16, literal(-3)))
        CFI (cfiCond67) DPL0 load(1, XDATA, add(CFA_XSP16, literal(-2)))
        CFI (cfiCond67) DPH0 load(1, XDATA, add(CFA_XSP16, literal(-1)))
        CFI (cfiCond67) CFA_SP SP+0
        CFI (cfiCond67) CFA_XSP16 add(XSP16, 13)
        CFI Block cfiCond68 Using cfiCommon0
        CFI (cfiCond68) NoFunction
        CFI (cfiCond68) Conditional ??CrossCallReturnLabel_186
        CFI (cfiCond68) R6 load(1, XDATA, add(CFA_XSP16, literal(-10)))
        CFI (cfiCond68) VB load(1, XDATA, add(CFA_XSP16, literal(-9)))
        CFI (cfiCond68) V0 load(1, XDATA, add(CFA_XSP16, literal(-8)))
        CFI (cfiCond68) V1 load(1, XDATA, add(CFA_XSP16, literal(-7)))
        CFI (cfiCond68) R7 load(1, XDATA, add(CFA_XSP16, literal(-6)))
        CFI (cfiCond68) ?RET_LOW load(1, XDATA, add(CFA_XSP16, literal(-5)))
        CFI (cfiCond68) ?RET_HIGH load(1, XDATA, add(CFA_XSP16, literal(-4)))
        CFI (cfiCond68) ?BRET_EXT load(1, XDATA, add(CFA_XSP16, literal(-3)))
        CFI (cfiCond68) DPL0 load(1, XDATA, add(CFA_XSP16, literal(-2)))
        CFI (cfiCond68) DPH0 load(1, XDATA, add(CFA_XSP16, literal(-1)))
        CFI (cfiCond68) CFA_SP SP+0
        CFI (cfiCond68) CFA_XSP16 add(XSP16, 13)
        CFI Block cfiCond69 Using cfiCommon0
        CFI (cfiCond69) NoFunction
        CFI (cfiCond69) Conditional ??CrossCallReturnLabel_187
        CFI (cfiCond69) R6 load(1, XDATA, add(CFA_XSP16, literal(-10)))
        CFI (cfiCond69) VB load(1, XDATA, add(CFA_XSP16, literal(-9)))
        CFI (cfiCond69) V0 load(1, XDATA, add(CFA_XSP16, literal(-8)))
        CFI (cfiCond69) V1 load(1, XDATA, add(CFA_XSP16, literal(-7)))
        CFI (cfiCond69) R7 load(1, XDATA, add(CFA_XSP16, literal(-6)))
        CFI (cfiCond69) ?RET_LOW load(1, XDATA, add(CFA_XSP16, literal(-5)))
        CFI (cfiCond69) ?RET_HIGH load(1, XDATA, add(CFA_XSP16, literal(-4)))
        CFI (cfiCond69) ?BRET_EXT load(1, XDATA, add(CFA_XSP16, literal(-3)))
        CFI (cfiCond69) DPL0 load(1, XDATA, add(CFA_XSP16, literal(-2)))
        CFI (cfiCond69) DPH0 load(1, XDATA, add(CFA_XSP16, literal(-1)))
        CFI (cfiCond69) CFA_SP SP+0
        CFI (cfiCond69) CFA_XSP16 add(XSP16, 13)
        CFI Block cfiCond70 Using cfiCommon0
        CFI (cfiCond70) NoFunction
        CFI (cfiCond70) Conditional ??CrossCallReturnLabel_145
        CFI (cfiCond70) R6 load(1, XDATA, add(CFA_XSP16, literal(-9)))
        CFI (cfiCond70) VB load(1, XDATA, add(CFA_XSP16, literal(-8)))
        CFI (cfiCond70) V0 load(1, XDATA, add(CFA_XSP16, literal(-7)))
        CFI (cfiCond70) R7 load(1, XDATA, add(CFA_XSP16, literal(-6)))
        CFI (cfiCond70) ?RET_LOW load(1, XDATA, add(CFA_XSP16, literal(-5)))
        CFI (cfiCond70) ?RET_HIGH load(1, XDATA, add(CFA_XSP16, literal(-4)))
        CFI (cfiCond70) ?BRET_EXT load(1, XDATA, add(CFA_XSP16, literal(-3)))
        CFI (cfiCond70) DPL0 load(1, XDATA, add(CFA_XSP16, literal(-2)))
        CFI (cfiCond70) DPH0 load(1, XDATA, add(CFA_XSP16, literal(-1)))
        CFI (cfiCond70) CFA_SP SP+0
        CFI (cfiCond70) CFA_XSP16 add(XSP16, 10)
        CFI Block cfiCond71 Using cfiCommon0
        CFI (cfiCond71) NoFunction
        CFI (cfiCond71) Conditional ??CrossCallReturnLabel_146
        CFI (cfiCond71) R6 load(1, XDATA, add(CFA_XSP16, literal(-9)))
        CFI (cfiCond71) VB load(1, XDATA, add(CFA_XSP16, literal(-8)))
        CFI (cfiCond71) V0 load(1, XDATA, add(CFA_XSP16, literal(-7)))
        CFI (cfiCond71) R7 load(1, XDATA, add(CFA_XSP16, literal(-6)))
        CFI (cfiCond71) ?RET_LOW load(1, XDATA, add(CFA_XSP16, literal(-5)))
        CFI (cfiCond71) ?RET_HIGH load(1, XDATA, add(CFA_XSP16, literal(-4)))
        CFI (cfiCond71) ?BRET_EXT load(1, XDATA, add(CFA_XSP16, literal(-3)))
        CFI (cfiCond71) DPL0 load(1, XDATA, add(CFA_XSP16, literal(-2)))
        CFI (cfiCond71) DPH0 load(1, XDATA, add(CFA_XSP16, literal(-1)))
        CFI (cfiCond71) CFA_SP SP+0
        CFI (cfiCond71) CFA_XSP16 add(XSP16, 10)
        CFI Block cfiCond72 Using cfiCommon0
        CFI (cfiCond72) NoFunction
        CFI (cfiCond72) Conditional ??CrossCallReturnLabel_147
        CFI (cfiCond72) DPL0 Frame(CFA_SP, 4)
        CFI (cfiCond72) DPH0 Frame(CFA_SP, 5)
        CFI (cfiCond72) CFA_SP SP+-5
        CFI (cfiCond72) CFA_XSP16 add(XSP16, 1)
        CFI Block cfiCond73 Using cfiCommon0
        CFI (cfiCond73) NoFunction
        CFI (cfiCond73) Conditional ??CrossCallReturnLabel_148
        CFI (cfiCond73) DPL0 Frame(CFA_SP, 4)
        CFI (cfiCond73) DPH0 Frame(CFA_SP, 5)
        CFI (cfiCond73) CFA_SP SP+-5
        CFI (cfiCond73) CFA_XSP16 add(XSP16, 1)
        CFI Block cfiCond74 Using cfiCommon0
        CFI (cfiCond74) NoFunction
        CFI (cfiCond74) Conditional ??CrossCallReturnLabel_149
        CFI (cfiCond74) DPL0 Frame(CFA_SP, 4)
        CFI (cfiCond74) DPH0 Frame(CFA_SP, 5)
        CFI (cfiCond74) CFA_SP SP+-5
        CFI (cfiCond74) CFA_XSP16 add(XSP16, 1)
        CFI Block cfiCond75 Using cfiCommon0
        CFI (cfiCond75) NoFunction
        CFI (cfiCond75) Conditional ??CrossCallReturnLabel_150
        CFI (cfiCond75) R6 load(1, XDATA, add(CFA_XSP16, literal(-9)))
        CFI (cfiCond75) VB load(1, XDATA, add(CFA_XSP16, literal(-8)))
        CFI (cfiCond75) V0 load(1, XDATA, add(CFA_XSP16, literal(-7)))
        CFI (cfiCond75) R7 load(1, XDATA, add(CFA_XSP16, literal(-6)))
        CFI (cfiCond75) ?RET_LOW load(1, XDATA, add(CFA_XSP16, literal(-5)))
        CFI (cfiCond75) ?RET_HIGH load(1, XDATA, add(CFA_XSP16, literal(-4)))
        CFI (cfiCond75) ?BRET_EXT load(1, XDATA, add(CFA_XSP16, literal(-3)))
        CFI (cfiCond75) DPL0 load(1, XDATA, add(CFA_XSP16, literal(-2)))
        CFI (cfiCond75) DPH0 load(1, XDATA, add(CFA_XSP16, literal(-1)))
        CFI (cfiCond75) CFA_SP SP+0
        CFI (cfiCond75) CFA_XSP16 add(XSP16, 10)
        CFI Block cfiCond76 Using cfiCommon0
        CFI (cfiCond76) NoFunction
        CFI (cfiCond76) Conditional ??CrossCallReturnLabel_151
        CFI (cfiCond76) R6 load(1, XDATA, add(CFA_XSP16, literal(-9)))
        CFI (cfiCond76) VB load(1, XDATA, add(CFA_XSP16, literal(-8)))
        CFI (cfiCond76) V0 load(1, XDATA, add(CFA_XSP16, literal(-7)))
        CFI (cfiCond76) R7 load(1, XDATA, add(CFA_XSP16, literal(-6)))
        CFI (cfiCond76) ?RET_LOW load(1, XDATA, add(CFA_XSP16, literal(-5)))
        CFI (cfiCond76) ?RET_HIGH load(1, XDATA, add(CFA_XSP16, literal(-4)))
        CFI (cfiCond76) ?BRET_EXT load(1, XDATA, add(CFA_XSP16, literal(-3)))
        CFI (cfiCond76) DPL0 load(1, XDATA, add(CFA_XSP16, literal(-2)))
        CFI (cfiCond76) DPH0 load(1, XDATA, add(CFA_XSP16, literal(-1)))
        CFI (cfiCond76) CFA_SP SP+0
        CFI (cfiCond76) CFA_XSP16 add(XSP16, 10)
        CFI Block cfiCond77 Using cfiCommon0
        CFI (cfiCond77) NoFunction
        CFI (cfiCond77) Conditional ??CrossCallReturnLabel_152
        CFI (cfiCond77) R6 load(1, XDATA, add(CFA_XSP16, literal(-9)))
        CFI (cfiCond77) VB load(1, XDATA, add(CFA_XSP16, literal(-8)))
        CFI (cfiCond77) V0 load(1, XDATA, add(CFA_XSP16, literal(-7)))
        CFI (cfiCond77) R7 load(1, XDATA, add(CFA_XSP16, literal(-6)))
        CFI (cfiCond77) ?RET_LOW load(1, XDATA, add(CFA_XSP16, literal(-5)))
        CFI (cfiCond77) ?RET_HIGH load(1, XDATA, add(CFA_XSP16, literal(-4)))
        CFI (cfiCond77) ?BRET_EXT load(1, XDATA, add(CFA_XSP16, literal(-3)))
        CFI (cfiCond77) DPL0 load(1, XDATA, add(CFA_XSP16, literal(-2)))
        CFI (cfiCond77) DPH0 load(1, XDATA, add(CFA_XSP16, literal(-1)))
        CFI (cfiCond77) CFA_SP SP+0
        CFI (cfiCond77) CFA_XSP16 add(XSP16, 10)
        CFI Block cfiCond78 Using cfiCommon0
        CFI (cfiCond78) NoFunction
        CFI (cfiCond78) Conditional ??CrossCallReturnLabel_153
        CFI (cfiCond78) R6 load(1, XDATA, add(CFA_XSP16, literal(-9)))
        CFI (cfiCond78) VB load(1, XDATA, add(CFA_XSP16, literal(-8)))
        CFI (cfiCond78) V0 load(1, XDATA, add(CFA_XSP16, literal(-7)))
        CFI (cfiCond78) R7 load(1, XDATA, add(CFA_XSP16, literal(-6)))
        CFI (cfiCond78) ?RET_LOW load(1, XDATA, add(CFA_XSP16, literal(-5)))
        CFI (cfiCond78) ?RET_HIGH load(1, XDATA, add(CFA_XSP16, literal(-4)))
        CFI (cfiCond78) ?BRET_EXT load(1, XDATA, add(CFA_XSP16, literal(-3)))
        CFI (cfiCond78) DPL0 load(1, XDATA, add(CFA_XSP16, literal(-2)))
        CFI (cfiCond78) DPH0 load(1, XDATA, add(CFA_XSP16, literal(-1)))
        CFI (cfiCond78) CFA_SP SP+0
        CFI (cfiCond78) CFA_XSP16 add(XSP16, 10)
        CFI Block cfiCond79 Using cfiCommon0
        CFI (cfiCond79) NoFunction
        CFI (cfiCond79) Conditional ??CrossCallReturnLabel_154
        CFI (cfiCond79) R6 load(1, XDATA, add(CFA_XSP16, literal(-23)))
        CFI (cfiCond79) VB load(1, XDATA, add(CFA_XSP16, literal(-22)))
        CFI (cfiCond79) V0 load(1, XDATA, add(CFA_XSP16, literal(-21)))
        CFI (cfiCond79) V1 load(1, XDATA, add(CFA_XSP16, literal(-20)))
        CFI (cfiCond79) V2 load(1, XDATA, add(CFA_XSP16, literal(-19)))
        CFI (cfiCond79) V3 load(1, XDATA, add(CFA_XSP16, literal(-18)))
        CFI (cfiCond79) V4 load(1, XDATA, add(CFA_XSP16, literal(-17)))
        CFI (cfiCond79) V5 load(1, XDATA, add(CFA_XSP16, literal(-16)))
        CFI (cfiCond79) V6 load(1, XDATA, add(CFA_XSP16, literal(-15)))
        CFI (cfiCond79) V7 load(1, XDATA, add(CFA_XSP16, literal(-14)))
        CFI (cfiCond79) V8 load(1, XDATA, add(CFA_XSP16, literal(-13)))
        CFI (cfiCond79) V9 load(1, XDATA, add(CFA_XSP16, literal(-12)))
        CFI (cfiCond79) V10 load(1, XDATA, add(CFA_XSP16, literal(-11)))
        CFI (cfiCond79) V11 load(1, XDATA, add(CFA_XSP16, literal(-10)))
        CFI (cfiCond79) V12 load(1, XDATA, add(CFA_XSP16, literal(-9)))
        CFI (cfiCond79) V13 load(1, XDATA, add(CFA_XSP16, literal(-8)))
        CFI (cfiCond79) V14 load(1, XDATA, add(CFA_XSP16, literal(-7)))
        CFI (cfiCond79) R7 load(1, XDATA, add(CFA_XSP16, literal(-6)))
        CFI (cfiCond79) ?RET_LOW load(1, XDATA, add(CFA_XSP16, literal(-5)))
        CFI (cfiCond79) ?RET_HIGH load(1, XDATA, add(CFA_XSP16, literal(-4)))
        CFI (cfiCond79) ?BRET_EXT load(1, XDATA, add(CFA_XSP16, literal(-3)))
        CFI (cfiCond79) DPL0 load(1, XDATA, add(CFA_XSP16, literal(-2)))
        CFI (cfiCond79) DPH0 load(1, XDATA, add(CFA_XSP16, literal(-1)))
        CFI (cfiCond79) CFA_SP SP+0
        CFI (cfiCond79) CFA_XSP16 add(XSP16, 47)
        CFI Block cfiCond80 Using cfiCommon0
        CFI (cfiCond80) NoFunction
        CFI (cfiCond80) Conditional ??CrossCallReturnLabel_155
        CFI (cfiCond80) R6 load(1, XDATA, add(CFA_XSP16, literal(-23)))
        CFI (cfiCond80) VB load(1, XDATA, add(CFA_XSP16, literal(-22)))
        CFI (cfiCond80) V0 load(1, XDATA, add(CFA_XSP16, literal(-21)))
        CFI (cfiCond80) V1 load(1, XDATA, add(CFA_XSP16, literal(-20)))
        CFI (cfiCond80) V2 load(1, XDATA, add(CFA_XSP16, literal(-19)))
        CFI (cfiCond80) V3 load(1, XDATA, add(CFA_XSP16, literal(-18)))
        CFI (cfiCond80) V4 load(1, XDATA, add(CFA_XSP16, literal(-17)))
        CFI (cfiCond80) V5 load(1, XDATA, add(CFA_XSP16, literal(-16)))
        CFI (cfiCond80) V6 load(1, XDATA, add(CFA_XSP16, literal(-15)))
        CFI (cfiCond80) V7 load(1, XDATA, add(CFA_XSP16, literal(-14)))
        CFI (cfiCond80) V8 load(1, XDATA, add(CFA_XSP16, literal(-13)))
        CFI (cfiCond80) V9 load(1, XDATA, add(CFA_XSP16, literal(-12)))
        CFI (cfiCond80) V10 load(1, XDATA, add(CFA_XSP16, literal(-11)))
        CFI (cfiCond80) V11 load(1, XDATA, add(CFA_XSP16, literal(-10)))
        CFI (cfiCond80) V12 load(1, XDATA, add(CFA_XSP16, literal(-9)))
        CFI (cfiCond80) V13 load(1, XDATA, add(CFA_XSP16, literal(-8)))
        CFI (cfiCond80) V14 load(1, XDATA, add(CFA_XSP16, literal(-7)))
        CFI (cfiCond80) R7 load(1, XDATA, add(CFA_XSP16, literal(-6)))
        CFI (cfiCond80) ?RET_LOW load(1, XDATA, add(CFA_XSP16, literal(-5)))
        CFI (cfiCond80) ?RET_HIGH load(1, XDATA, add(CFA_XSP16, literal(-4)))
        CFI (cfiCond80) ?BRET_EXT load(1, XDATA, add(CFA_XSP16, literal(-3)))
        CFI (cfiCond80) DPL0 load(1, XDATA, add(CFA_XSP16, literal(-2)))
        CFI (cfiCond80) DPH0 load(1, XDATA, add(CFA_XSP16, literal(-1)))
        CFI (cfiCond80) CFA_SP SP+0
        CFI (cfiCond80) CFA_XSP16 add(XSP16, 47)
        CFI Block cfiCond81 Using cfiCommon0
        CFI (cfiCond81) NoFunction
        CFI (cfiCond81) Conditional ??CrossCallReturnLabel_156
        CFI (cfiCond81) R6 load(1, XDATA, add(CFA_XSP16, literal(-10)))
        CFI (cfiCond81) VB load(1, XDATA, add(CFA_XSP16, literal(-9)))
        CFI (cfiCond81) V0 load(1, XDATA, add(CFA_XSP16, literal(-8)))
        CFI (cfiCond81) V1 load(1, XDATA, add(CFA_XSP16, literal(-7)))
        CFI (cfiCond81) R7 load(1, XDATA, add(CFA_XSP16, literal(-6)))
        CFI (cfiCond81) ?RET_LOW load(1, XDATA, add(CFA_XSP16, literal(-5)))
        CFI (cfiCond81) ?RET_HIGH load(1, XDATA, add(CFA_XSP16, literal(-4)))
        CFI (cfiCond81) ?BRET_EXT load(1, XDATA, add(CFA_XSP16, literal(-3)))
        CFI (cfiCond81) DPL0 load(1, XDATA, add(CFA_XSP16, literal(-2)))
        CFI (cfiCond81) DPH0 load(1, XDATA, add(CFA_XSP16, literal(-1)))
        CFI (cfiCond81) CFA_SP SP+0
        CFI (cfiCond81) CFA_XSP16 add(XSP16, 12)
        CFI Block cfiCond82 Using cfiCommon0
        CFI (cfiCond82) NoFunction
        CFI (cfiCond82) Conditional ??CrossCallReturnLabel_157
        CFI (cfiCond82) R6 load(1, XDATA, add(CFA_XSP16, literal(-10)))
        CFI (cfiCond82) VB load(1, XDATA, add(CFA_XSP16, literal(-9)))
        CFI (cfiCond82) V0 load(1, XDATA, add(CFA_XSP16, literal(-8)))
        CFI (cfiCond82) V1 load(1, XDATA, add(CFA_XSP16, literal(-7)))
        CFI (cfiCond82) R7 load(1, XDATA, add(CFA_XSP16, literal(-6)))
        CFI (cfiCond82) ?RET_LOW load(1, XDATA, add(CFA_XSP16, literal(-5)))
        CFI (cfiCond82) ?RET_HIGH load(1, XDATA, add(CFA_XSP16, literal(-4)))
        CFI (cfiCond82) ?BRET_EXT load(1, XDATA, add(CFA_XSP16, literal(-3)))
        CFI (cfiCond82) DPL0 load(1, XDATA, add(CFA_XSP16, literal(-2)))
        CFI (cfiCond82) DPH0 load(1, XDATA, add(CFA_XSP16, literal(-1)))
        CFI (cfiCond82) CFA_SP SP+0
        CFI (cfiCond82) CFA_XSP16 add(XSP16, 12)
        CFI Block cfiCond83 Using cfiCommon0
        CFI (cfiCond83) NoFunction
        CFI (cfiCond83) Conditional ??CrossCallReturnLabel_158
        CFI (cfiCond83) R6 load(1, XDATA, add(CFA_XSP16, literal(-10)))
        CFI (cfiCond83) VB load(1, XDATA, add(CFA_XSP16, literal(-9)))
        CFI (cfiCond83) V0 load(1, XDATA, add(CFA_XSP16, literal(-8)))
        CFI (cfiCond83) V1 load(1, XDATA, add(CFA_XSP16, literal(-7)))
        CFI (cfiCond83) R7 load(1, XDATA, add(CFA_XSP16, literal(-6)))
        CFI (cfiCond83) ?RET_LOW load(1, XDATA, add(CFA_XSP16, literal(-5)))
        CFI (cfiCond83) ?RET_HIGH load(1, XDATA, add(CFA_XSP16, literal(-4)))
        CFI (cfiCond83) ?BRET_EXT load(1, XDATA, add(CFA_XSP16, literal(-3)))
        CFI (cfiCond83) DPL0 load(1, XDATA, add(CFA_XSP16, literal(-2)))
        CFI (cfiCond83) DPH0 load(1, XDATA, add(CFA_XSP16, literal(-1)))
        CFI (cfiCond83) CFA_SP SP+0
        CFI (cfiCond83) CFA_XSP16 add(XSP16, 12)
        CFI Block cfiCond84 Using cfiCommon0
        CFI (cfiCond84) NoFunction
        CFI (cfiCond84) Conditional ??CrossCallReturnLabel_159
        CFI (cfiCond84) R6 load(1, XDATA, add(CFA_XSP16, literal(-20)))
        CFI (cfiCond84) VB load(1, XDATA, add(CFA_XSP16, literal(-19)))
        CFI (cfiCond84) V0 load(1, XDATA, add(CFA_XSP16, literal(-18)))
        CFI (cfiCond84) V1 load(1, XDATA, add(CFA_XSP16, literal(-17)))
        CFI (cfiCond84) V2 load(1, XDATA, add(CFA_XSP16, literal(-16)))
        CFI (cfiCond84) V3 load(1, XDATA, add(CFA_XSP16, literal(-15)))
        CFI (cfiCond84) V4 load(1, XDATA, add(CFA_XSP16, literal(-14)))
        CFI (cfiCond84) V5 load(1, XDATA, add(CFA_XSP16, literal(-13)))
        CFI (cfiCond84) V6 load(1, XDATA, add(CFA_XSP16, literal(-12)))
        CFI (cfiCond84) V7 load(1, XDATA, add(CFA_XSP16, literal(-11)))
        CFI (cfiCond84) V8 load(1, XDATA, add(CFA_XSP16, literal(-10)))
        CFI (cfiCond84) V9 load(1, XDATA, add(CFA_XSP16, literal(-9)))
        CFI (cfiCond84) V10 load(1, XDATA, add(CFA_XSP16, literal(-8)))
        CFI (cfiCond84) V11 load(1, XDATA, add(CFA_XSP16, literal(-7)))
        CFI (cfiCond84) R7 load(1, XDATA, add(CFA_XSP16, literal(-6)))
        CFI (cfiCond84) ?RET_LOW load(1, XDATA, add(CFA_XSP16, literal(-5)))
        CFI (cfiCond84) ?RET_HIGH load(1, XDATA, add(CFA_XSP16, literal(-4)))
        CFI (cfiCond84) ?BRET_EXT load(1, XDATA, add(CFA_XSP16, literal(-3)))
        CFI (cfiCond84) DPL0 load(1, XDATA, add(CFA_XSP16, literal(-2)))
        CFI (cfiCond84) DPH0 load(1, XDATA, add(CFA_XSP16, literal(-1)))
        CFI (cfiCond84) CFA_SP SP+0
        CFI (cfiCond84) CFA_XSP16 add(XSP16, 38)
        CFI Block cfiCond85 Using cfiCommon0
        CFI (cfiCond85) NoFunction
        CFI (cfiCond85) Conditional ??CrossCallReturnLabel_160
        CFI (cfiCond85) R6 load(1, XDATA, add(CFA_XSP16, literal(-10)))
        CFI (cfiCond85) VB load(1, XDATA, add(CFA_XSP16, literal(-9)))
        CFI (cfiCond85) V0 load(1, XDATA, add(CFA_XSP16, literal(-8)))
        CFI (cfiCond85) V1 load(1, XDATA, add(CFA_XSP16, literal(-7)))
        CFI (cfiCond85) R7 load(1, XDATA, add(CFA_XSP16, literal(-6)))
        CFI (cfiCond85) ?RET_LOW load(1, XDATA, add(CFA_XSP16, literal(-5)))
        CFI (cfiCond85) ?RET_HIGH load(1, XDATA, add(CFA_XSP16, literal(-4)))
        CFI (cfiCond85) ?BRET_EXT load(1, XDATA, add(CFA_XSP16, literal(-3)))
        CFI (cfiCond85) DPL0 load(1, XDATA, add(CFA_XSP16, literal(-2)))
        CFI (cfiCond85) DPH0 load(1, XDATA, add(CFA_XSP16, literal(-1)))
        CFI (cfiCond85) CFA_SP SP+0
        CFI (cfiCond85) CFA_XSP16 add(XSP16, 13)
        CFI Block cfiCond86 Using cfiCommon0
        CFI (cfiCond86) NoFunction
        CFI (cfiCond86) Conditional ??CrossCallReturnLabel_141
        CFI (cfiCond86) R6 load(1, XDATA, add(CFA_XSP16, literal(-10)))
        CFI (cfiCond86) VB load(1, XDATA, add(CFA_XSP16, literal(-9)))
        CFI (cfiCond86) V0 load(1, XDATA, add(CFA_XSP16, literal(-8)))
        CFI (cfiCond86) V1 load(1, XDATA, add(CFA_XSP16, literal(-7)))
        CFI (cfiCond86) R7 load(1, XDATA, add(CFA_XSP16, literal(-6)))
        CFI (cfiCond86) ?RET_LOW load(1, XDATA, add(CFA_XSP16, literal(-5)))
        CFI (cfiCond86) ?RET_HIGH load(1, XDATA, add(CFA_XSP16, literal(-4)))
        CFI (cfiCond86) ?BRET_EXT load(1, XDATA, add(CFA_XSP16, literal(-3)))
        CFI (cfiCond86) DPL0 load(1, XDATA, add(CFA_XSP16, literal(-2)))
        CFI (cfiCond86) DPH0 load(1, XDATA, add(CFA_XSP16, literal(-1)))
        CFI (cfiCond86) CFA_SP SP+0
        CFI (cfiCond86) CFA_XSP16 add(XSP16, 16)
        CFI Block cfiCond87 Using cfiCommon0
        CFI (cfiCond87) NoFunction
        CFI (cfiCond87) Conditional ??CrossCallReturnLabel_142
        CFI (cfiCond87) R6 load(1, XDATA, add(CFA_XSP16, literal(-10)))
        CFI (cfiCond87) VB load(1, XDATA, add(CFA_XSP16, literal(-9)))
        CFI (cfiCond87) V0 load(1, XDATA, add(CFA_XSP16, literal(-8)))
        CFI (cfiCond87) V1 load(1, XDATA, add(CFA_XSP16, literal(-7)))
        CFI (cfiCond87) R7 load(1, XDATA, add(CFA_XSP16, literal(-6)))
        CFI (cfiCond87) ?RET_LOW load(1, XDATA, add(CFA_XSP16, literal(-5)))
        CFI (cfiCond87) ?RET_HIGH load(1, XDATA, add(CFA_XSP16, literal(-4)))
        CFI (cfiCond87) ?BRET_EXT load(1, XDATA, add(CFA_XSP16, literal(-3)))
        CFI (cfiCond87) DPL0 load(1, XDATA, add(CFA_XSP16, literal(-2)))
        CFI (cfiCond87) DPH0 load(1, XDATA, add(CFA_XSP16, literal(-1)))
        CFI (cfiCond87) CFA_SP SP+0
        CFI (cfiCond87) CFA_XSP16 add(XSP16, 16)
        CFI Block cfiCond88 Using cfiCommon0
        CFI (cfiCond88) NoFunction
        CFI (cfiCond88) Conditional ??CrossCallReturnLabel_143
        CFI (cfiCond88) R6 load(1, XDATA, add(CFA_XSP16, literal(-9)))
        CFI (cfiCond88) VB load(1, XDATA, add(CFA_XSP16, literal(-8)))
        CFI (cfiCond88) V0 load(1, XDATA, add(CFA_XSP16, literal(-7)))
        CFI (cfiCond88) R7 load(1, XDATA, add(CFA_XSP16, literal(-6)))
        CFI (cfiCond88) ?RET_LOW load(1, XDATA, add(CFA_XSP16, literal(-5)))
        CFI (cfiCond88) ?RET_HIGH load(1, XDATA, add(CFA_XSP16, literal(-4)))
        CFI (cfiCond88) ?BRET_EXT load(1, XDATA, add(CFA_XSP16, literal(-3)))
        CFI (cfiCond88) DPL0 load(1, XDATA, add(CFA_XSP16, literal(-2)))
        CFI (cfiCond88) DPH0 load(1, XDATA, add(CFA_XSP16, literal(-1)))
        CFI (cfiCond88) CFA_SP SP+0
        CFI (cfiCond88) CFA_XSP16 add(XSP16, 10)
        CFI Block cfiCond89 Using cfiCommon0
        CFI (cfiCond89) NoFunction
        CFI (cfiCond89) Conditional ??CrossCallReturnLabel_144
        CFI (cfiCond89) R6 load(1, XDATA, add(CFA_XSP16, literal(-23)))
        CFI (cfiCond89) VB load(1, XDATA, add(CFA_XSP16, literal(-22)))
        CFI (cfiCond89) V0 load(1, XDATA, add(CFA_XSP16, literal(-21)))
        CFI (cfiCond89) V1 load(1, XDATA, add(CFA_XSP16, literal(-20)))
        CFI (cfiCond89) V2 load(1, XDATA, add(CFA_XSP16, literal(-19)))
        CFI (cfiCond89) V3 load(1, XDATA, add(CFA_XSP16, literal(-18)))
        CFI (cfiCond89) V4 load(1, XDATA, add(CFA_XSP16, literal(-17)))
        CFI (cfiCond89) V5 load(1, XDATA, add(CFA_XSP16, literal(-16)))
        CFI (cfiCond89) V6 load(1, XDATA, add(CFA_XSP16, literal(-15)))
        CFI (cfiCond89) V7 load(1, XDATA, add(CFA_XSP16, literal(-14)))
        CFI (cfiCond89) V8 load(1, XDATA, add(CFA_XSP16, literal(-13)))
        CFI (cfiCond89) V9 load(1, XDATA, add(CFA_XSP16, literal(-12)))
        CFI (cfiCond89) V10 load(1, XDATA, add(CFA_XSP16, literal(-11)))
        CFI (cfiCond89) V11 load(1, XDATA, add(CFA_XSP16, literal(-10)))
        CFI (cfiCond89) V12 load(1, XDATA, add(CFA_XSP16, literal(-9)))
        CFI (cfiCond89) V13 load(1, XDATA, add(CFA_XSP16, literal(-8)))
        CFI (cfiCond89) V14 load(1, XDATA, add(CFA_XSP16, literal(-7)))
        CFI (cfiCond89) R7 load(1, XDATA, add(CFA_XSP16, literal(-6)))
        CFI (cfiCond89) ?RET_LOW load(1, XDATA, add(CFA_XSP16, literal(-5)))
        CFI (cfiCond89) ?RET_HIGH load(1, XDATA, add(CFA_XSP16, literal(-4)))
        CFI (cfiCond89) ?BRET_EXT load(1, XDATA, add(CFA_XSP16, literal(-3)))
        CFI (cfiCond89) DPL0 load(1, XDATA, add(CFA_XSP16, literal(-2)))
        CFI (cfiCond89) DPH0 load(1, XDATA, add(CFA_XSP16, literal(-1)))
        CFI (cfiCond89) CFA_SP SP+0
        CFI (cfiCond89) CFA_XSP16 add(XSP16, 47)
        CFI Block cfiCond90 Using cfiCommon0
        CFI (cfiCond90) NoFunction
        CFI (cfiCond90) Conditional ??CrossCallReturnLabel_139
        CFI (cfiCond90) R6 load(1, XDATA, add(CFA_XSP16, literal(-9)))
        CFI (cfiCond90) VB load(1, XDATA, add(CFA_XSP16, literal(-8)))
        CFI (cfiCond90) V0 load(1, XDATA, add(CFA_XSP16, literal(-7)))
        CFI (cfiCond90) R7 load(1, XDATA, add(CFA_XSP16, literal(-6)))
        CFI (cfiCond90) ?RET_LOW load(1, XDATA, add(CFA_XSP16, literal(-5)))
        CFI (cfiCond90) ?RET_HIGH load(1, XDATA, add(CFA_XSP16, literal(-4)))
        CFI (cfiCond90) ?BRET_EXT load(1, XDATA, add(CFA_XSP16, literal(-3)))
        CFI (cfiCond90) DPL0 load(1, XDATA, add(CFA_XSP16, literal(-2)))
        CFI (cfiCond90) DPH0 load(1, XDATA, add(CFA_XSP16, literal(-1)))
        CFI (cfiCond90) CFA_SP SP+0
        CFI (cfiCond90) CFA_XSP16 add(XSP16, 11)
        CFI Block cfiCond91 Using cfiCommon0
        CFI (cfiCond91) NoFunction
        CFI (cfiCond91) Conditional ??CrossCallReturnLabel_140
        CFI (cfiCond91) R6 load(1, XDATA, add(CFA_XSP16, literal(-23)))
        CFI (cfiCond91) VB load(1, XDATA, add(CFA_XSP16, literal(-22)))
        CFI (cfiCond91) V0 load(1, XDATA, add(CFA_XSP16, literal(-21)))
        CFI (cfiCond91) V1 load(1, XDATA, add(CFA_XSP16, literal(-20)))
        CFI (cfiCond91) V2 load(1, XDATA, add(CFA_XSP16, literal(-19)))
        CFI (cfiCond91) V3 load(1, XDATA, add(CFA_XSP16, literal(-18)))
        CFI (cfiCond91) V4 load(1, XDATA, add(CFA_XSP16, literal(-17)))
        CFI (cfiCond91) V5 load(1, XDATA, add(CFA_XSP16, literal(-16)))
        CFI (cfiCond91) V6 load(1, XDATA, add(CFA_XSP16, literal(-15)))
        CFI (cfiCond91) V7 load(1, XDATA, add(CFA_XSP16, literal(-14)))
        CFI (cfiCond91) V8 load(1, XDATA, add(CFA_XSP16, literal(-13)))
        CFI (cfiCond91) V9 load(1, XDATA, add(CFA_XSP16, literal(-12)))
        CFI (cfiCond91) V10 load(1, XDATA, add(CFA_XSP16, literal(-11)))
        CFI (cfiCond91) V11 load(1, XDATA, add(CFA_XSP16, literal(-10)))
        CFI (cfiCond91) V12 load(1, XDATA, add(CFA_XSP16, literal(-9)))
        CFI (cfiCond91) V13 load(1, XDATA, add(CFA_XSP16, literal(-8)))
        CFI (cfiCond91) V14 load(1, XDATA, add(CFA_XSP16, literal(-7)))
        CFI (cfiCond91) R7 load(1, XDATA, add(CFA_XSP16, literal(-6)))
        CFI (cfiCond91) ?RET_LOW load(1, XDATA, add(CFA_XSP16, literal(-5)))
        CFI (cfiCond91) ?RET_HIGH load(1, XDATA, add(CFA_XSP16, literal(-4)))
        CFI (cfiCond91) ?BRET_EXT load(1, XDATA, add(CFA_XSP16, literal(-3)))
        CFI (cfiCond91) DPL0 load(1, XDATA, add(CFA_XSP16, literal(-2)))
        CFI (cfiCond91) DPH0 load(1, XDATA, add(CFA_XSP16, literal(-1)))
        CFI (cfiCond91) CFA_SP SP+0
        CFI (cfiCond91) CFA_XSP16 add(XSP16, 47)
        CFI Block cfiCond92 Using cfiCommon0
        CFI (cfiCond92) NoFunction
        CFI (cfiCond92) Conditional ??CrossCallReturnLabel_137
        CFI (cfiCond92) R6 load(1, XDATA, add(CFA_XSP16, literal(-9)))
        CFI (cfiCond92) VB load(1, XDATA, add(CFA_XSP16, literal(-8)))
        CFI (cfiCond92) V0 load(1, XDATA, add(CFA_XSP16, literal(-7)))
        CFI (cfiCond92) R7 load(1, XDATA, add(CFA_XSP16, literal(-6)))
        CFI (cfiCond92) ?RET_LOW load(1, XDATA, add(CFA_XSP16, literal(-5)))
        CFI (cfiCond92) ?RET_HIGH load(1, XDATA, add(CFA_XSP16, literal(-4)))
        CFI (cfiCond92) ?BRET_EXT load(1, XDATA, add(CFA_XSP16, literal(-3)))
        CFI (cfiCond92) DPL0 load(1, XDATA, add(CFA_XSP16, literal(-2)))
        CFI (cfiCond92) DPH0 load(1, XDATA, add(CFA_XSP16, literal(-1)))
        CFI (cfiCond92) CFA_SP SP+0
        CFI (cfiCond92) CFA_XSP16 add(XSP16, 11)
        CFI Block cfiCond93 Using cfiCommon0
        CFI (cfiCond93) NoFunction
        CFI (cfiCond93) Conditional ??CrossCallReturnLabel_138
        CFI (cfiCond93) R6 load(1, XDATA, add(CFA_XSP16, literal(-10)))
        CFI (cfiCond93) VB load(1, XDATA, add(CFA_XSP16, literal(-9)))
        CFI (cfiCond93) V0 load(1, XDATA, add(CFA_XSP16, literal(-8)))
        CFI (cfiCond93) V1 load(1, XDATA, add(CFA_XSP16, literal(-7)))
        CFI (cfiCond93) R7 load(1, XDATA, add(CFA_XSP16, literal(-6)))
        CFI (cfiCond93) ?RET_LOW load(1, XDATA, add(CFA_XSP16, literal(-5)))
        CFI (cfiCond93) ?RET_HIGH load(1, XDATA, add(CFA_XSP16, literal(-4)))
        CFI (cfiCond93) ?BRET_EXT load(1, XDATA, add(CFA_XSP16, literal(-3)))
        CFI (cfiCond93) DPL0 load(1, XDATA, add(CFA_XSP16, literal(-2)))
        CFI (cfiCond93) DPH0 load(1, XDATA, add(CFA_XSP16, literal(-1)))
        CFI (cfiCond93) CFA_SP SP+0
        CFI (cfiCond93) CFA_XSP16 add(XSP16, 13)
        CFI Block cfiPicker94 Using cfiCommon1
        CFI (cfiPicker94) NoFunction
        CFI (cfiPicker94) Picker
        LCALL   ?Subroutine75 & 0xFFFF
??CrossCallReturnLabel_215:
        LCALL   ??MPU_Write_Len?relay
        MOV     A,R1
        RET
        CFI EndBlock cfiCond43
        CFI EndBlock cfiCond44
        CFI EndBlock cfiCond45
        CFI EndBlock cfiCond46
        CFI EndBlock cfiCond47
        CFI EndBlock cfiCond48
        CFI EndBlock cfiCond49
        CFI EndBlock cfiCond50
        CFI EndBlock cfiCond51
        CFI EndBlock cfiCond52
        CFI EndBlock cfiCond53
        CFI EndBlock cfiCond54
        CFI EndBlock cfiCond55
        CFI EndBlock cfiCond56
        CFI EndBlock cfiCond57
        CFI EndBlock cfiCond58
        CFI EndBlock cfiCond59
        CFI EndBlock cfiCond60
        CFI EndBlock cfiCond61
        CFI EndBlock cfiCond62
        CFI EndBlock cfiCond63
        CFI EndBlock cfiCond64
        CFI EndBlock cfiCond65
        CFI EndBlock cfiCond66
        CFI EndBlock cfiCond67
        CFI EndBlock cfiCond68
        CFI EndBlock cfiCond69
        CFI EndBlock cfiCond70
        CFI EndBlock cfiCond71
        CFI EndBlock cfiCond72
        CFI EndBlock cfiCond73
        CFI EndBlock cfiCond74
        CFI EndBlock cfiCond75
        CFI EndBlock cfiCond76
        CFI EndBlock cfiCond77
        CFI EndBlock cfiCond78
        CFI EndBlock cfiCond79
        CFI EndBlock cfiCond80
        CFI EndBlock cfiCond81
        CFI EndBlock cfiCond82
        CFI EndBlock cfiCond83
        CFI EndBlock cfiCond84
        CFI EndBlock cfiCond85
        CFI EndBlock cfiCond86
        CFI EndBlock cfiCond87
        CFI EndBlock cfiCond88
        CFI EndBlock cfiCond89
        CFI EndBlock cfiCond90
        CFI EndBlock cfiCond91
        CFI EndBlock cfiCond92
        CFI EndBlock cfiCond93
        CFI EndBlock cfiPicker94
//  716 
//  717 /**
//  718  *  @brief      Register dump for testing.
//  719  *  @return     0 if successful.
//  720  */

        RSEG BANKED_CODE:CODE:NOROOT(0)
//  721 int mpu_reg_dump(void)
mpu_reg_dump:
        CFI Block cfiBlock95 Using cfiCommon0
        CFI Function mpu_reg_dump
        CODE
//  722 {
        FUNCALL mpu_reg_dump, printf
        LOCFRAME ISTACK, 0, STACK
        LOCFRAME PSTACK, 0, STACK
        LOCFRAME XSTACK, 15, STACK
        LOCFRAME IOVERLAY, 0, STATIC
        LOCFRAME DOVERLAY, 0, STATIC
        ARGFRAME ISTACK, 0, STACK
        ARGFRAME PSTACK, 0, STACK
        ARGFRAME XSTACK, 15, STACK
        ARGFRAME IOVERLAY, 0, STATIC
        ARGFRAME DOVERLAY, 0, STATIC
        FUNCALL mpu_reg_dump, MPU_Read_Len
        LOCFRAME ISTACK, 0, STACK
        LOCFRAME PSTACK, 0, STACK
        LOCFRAME XSTACK, 11, STACK
        LOCFRAME IOVERLAY, 0, STATIC
        LOCFRAME DOVERLAY, 0, STATIC
        ARGFRAME ISTACK, 0, STACK
        ARGFRAME PSTACK, 0, STACK
        ARGFRAME XSTACK, 11, STACK
        ARGFRAME IOVERLAY, 0, STATIC
        ARGFRAME DOVERLAY, 0, STATIC
        MOV     A,#-0xa
        LCALL   ?BANKED_ENTER_XDATA
        CFI DPH0 load(1, XDATA, add(CFA_XSP16, literal(-1)))
        CFI DPL0 load(1, XDATA, add(CFA_XSP16, literal(-2)))
        CFI ?BRET_EXT load(1, XDATA, add(CFA_XSP16, literal(-3)))
        CFI ?RET_HIGH load(1, XDATA, add(CFA_XSP16, literal(-4)))
        CFI ?RET_LOW load(1, XDATA, add(CFA_XSP16, literal(-5)))
        CFI R7 load(1, XDATA, add(CFA_XSP16, literal(-6)))
        CFI V1 load(1, XDATA, add(CFA_XSP16, literal(-7)))
        CFI V0 load(1, XDATA, add(CFA_XSP16, literal(-8)))
        CFI VB load(1, XDATA, add(CFA_XSP16, literal(-9)))
        CFI R6 load(1, XDATA, add(CFA_XSP16, literal(-10)))
        CFI CFA_SP SP+0
        CFI CFA_XSP16 add(XSP16, 10)
        ; Saved register size: 10
        ; Auto size: 1
        MOV     A,#-0x1
        LCALL   ?ALLOC_XSTACK8
        CFI CFA_XSP16 add(XSP16, 11)
//  723     unsigned char ii;
//  724     unsigned char data;
//  725 
//  726     for (ii = 0; ii < st.hw->num_reg; ii++) {
        MOV     R6,#0x0
        SJMP    ??mpu_reg_dump_0
//  727         if (ii == st.reg->fifo_r_w || ii == st.reg->mem_r_w)
//  728             continue;
//  729         if (i2c_read(st.hw->addr, ii, 1, &data))
//  730             return -1;
//  731         log_i("%#5x: %#5x\r\n", ii, data);
??mpu_reg_dump_1:
        ; Setup parameters for call to function printf
        MOV     DPL,?XSP + 0
        MOV     DPH,?XSP + 1
        MOVX    A,@DPTR
        MOV     ?V0 + 0,A
        MOV     ?V0 + 1,#0x0
        MOV     R0,#?V0 + 0
        LCALL   ?PUSH_XSTACK_I_TWO
        CFI CFA_XSP16 add(XSP16, 13)
        MOV     ?V0 + 0,R6
        MOV     R0,#?V0 + 0
        LCALL   ?PUSH_XSTACK_I_TWO
        CFI CFA_XSP16 add(XSP16, 15)
        MOV     R2,#`?<Constant "%#5x: %#5x\\r\\n">` & 0xff
        MOV     R3,#(`?<Constant "%#5x: %#5x\\r\\n">` >> 8) & 0xff
        LCALL   ??printf?relay
        MOV     A,#0x4
        LCALL   ?DEALLOC_XSTACK8
        CFI CFA_XSP16 add(XSP16, 11)
??mpu_reg_dump_2:
        INC     R6
??mpu_reg_dump_0:
        LCALL   ?Subroutine25 & 0xFFFF
??CrossCallReturnLabel_16:
        JNC     ??mpu_reg_dump_3
        LCALL   ?Subroutine16 & 0xFFFF
??CrossCallReturnLabel_190:
        JZ      ??mpu_reg_dump_2
        MOV     DPTR,#st
        MOVX    A,@DPTR
        ADD     A,#0x15
        LCALL   ??Subroutine110_0 & 0xFFFF
??CrossCallReturnLabel_188:
        JZ      ??mpu_reg_dump_2
        ; Setup parameters for call to function MPU_Read_Len
        MOV     DPL,?XSP + 0
        MOV     DPH,?XSP + 1
        MOV     R4,DPL
        MOV     R5,DPH
        MOV     R3,#0x1
        MOV     A,R6
        MOV     R2,A
        LCALL   ??Subroutine125_0 & 0xFFFF
??CrossCallReturnLabel_258:
        JZ      ??mpu_reg_dump_1
        MOV     R2,#-0x1
        MOV     R3,#-0x1
        SJMP    ??mpu_reg_dump_4
//  732     }
//  733     return 0;
??mpu_reg_dump_3:
        MOV     R2,#0x0
        MOV     R3,#0x0
??mpu_reg_dump_4:
        LJMP    ?Subroutine1 & 0xFFFF
        CFI EndBlock cfiBlock95
//  734 }
//  735 
//  736 /**
//  737  *  @brief      Read from a single register.
//  738  *  NOTE: The memory and FIFO read/write registers cannot be accessed.
//  739  *  @param[in]  reg     Register address.
//  740  *  @param[out] data    Register data.
//  741  *  @return     0 if successful.
//  742  */

        RSEG BANKED_CODE:CODE:NOROOT(0)
//  743 int mpu_read_reg(unsigned char reg, unsigned char *data)
mpu_read_reg:
        CFI Block cfiBlock96 Using cfiCommon0
        CFI Function mpu_read_reg
        CODE
//  744 {
        FUNCALL mpu_read_reg, MPU_Read_Len
        LOCFRAME ISTACK, 0, STACK
        LOCFRAME PSTACK, 0, STACK
        LOCFRAME XSTACK, 9, STACK
        LOCFRAME IOVERLAY, 0, STATIC
        LOCFRAME DOVERLAY, 0, STATIC
        ARGFRAME ISTACK, 0, STACK
        ARGFRAME PSTACK, 0, STACK
        ARGFRAME XSTACK, 9, STACK
        ARGFRAME IOVERLAY, 0, STATIC
        ARGFRAME DOVERLAY, 0, STATIC
        MOV     A,#-0x9
        LCALL   ?BANKED_ENTER_XDATA
        CFI DPH0 load(1, XDATA, add(CFA_XSP16, literal(-1)))
        CFI DPL0 load(1, XDATA, add(CFA_XSP16, literal(-2)))
        CFI ?BRET_EXT load(1, XDATA, add(CFA_XSP16, literal(-3)))
        CFI ?RET_HIGH load(1, XDATA, add(CFA_XSP16, literal(-4)))
        CFI ?RET_LOW load(1, XDATA, add(CFA_XSP16, literal(-5)))
        CFI R7 load(1, XDATA, add(CFA_XSP16, literal(-6)))
        CFI V0 load(1, XDATA, add(CFA_XSP16, literal(-7)))
        CFI VB load(1, XDATA, add(CFA_XSP16, literal(-8)))
        CFI R6 load(1, XDATA, add(CFA_XSP16, literal(-9)))
        CFI CFA_SP SP+0
        CFI CFA_XSP16 add(XSP16, 9)
        ; Saved register size: 9
        ; Auto size: 0
        MOV     A,R1
        MOV     R6,A
//  745     if (reg == st.reg->fifo_r_w || reg == st.reg->mem_r_w)
        LCALL   ?Subroutine16 & 0xFFFF
??CrossCallReturnLabel_191:
        JZ      ??mpu_read_reg_0
        MOV     DPTR,#st
        MOVX    A,@DPTR
        ADD     A,#0x15
        LCALL   ??Subroutine110_0 & 0xFFFF
??CrossCallReturnLabel_189:
        JNZ     ??mpu_read_reg_1
//  746         return -1;
??mpu_read_reg_0:
        MOV     R2,#-0x1
        MOV     R3,#-0x1
        SJMP    ??mpu_read_reg_2
//  747     if (reg >= st.hw->num_reg)
??mpu_read_reg_1:
        LCALL   ?Subroutine25 & 0xFFFF
??CrossCallReturnLabel_17:
        JNC     ??mpu_read_reg_0
//  748         return -1;
//  749     return i2c_read(st.hw->addr, reg, 1, data);
        ; Setup parameters for call to function MPU_Read_Len
        MOV     A,R2
        MOV     R4,A
        MOV     A,R3
        MOV     R5,A
        MOV     R3,#0x1
        MOV     A,R6
        MOV     R2,A
        LCALL   ?Subroutine34 & 0xFFFF
??CrossCallReturnLabel_330:
        MOVX    A,@DPTR
        MOV     R1,A
        LCALL   ??MPU_Read_Len?relay
        MOV     ?V0 + 0,R1
        MOV     R2,?V0 + 0
        MOV     R3,#0x0
??mpu_read_reg_2:
        LJMP    ??Subroutine112_0 & 0xFFFF
        CFI EndBlock cfiBlock96
//  750 }

        RSEG BANKED_CODE:CODE:NOROOT(0)
?Subroutine25:
        CFI Block cfiCond97 Using cfiCommon0
        CFI NoFunction
        CFI Conditional ??CrossCallReturnLabel_16
        CFI R6 load(1, XDATA, add(CFA_XSP16, literal(-10)))
        CFI VB load(1, XDATA, add(CFA_XSP16, literal(-9)))
        CFI V0 load(1, XDATA, add(CFA_XSP16, literal(-8)))
        CFI V1 load(1, XDATA, add(CFA_XSP16, literal(-7)))
        CFI R7 load(1, XDATA, add(CFA_XSP16, literal(-6)))
        CFI ?RET_LOW load(1, XDATA, add(CFA_XSP16, literal(-5)))
        CFI ?RET_HIGH load(1, XDATA, add(CFA_XSP16, literal(-4)))
        CFI ?BRET_EXT load(1, XDATA, add(CFA_XSP16, literal(-3)))
        CFI DPL0 load(1, XDATA, add(CFA_XSP16, literal(-2)))
        CFI DPH0 load(1, XDATA, add(CFA_XSP16, literal(-1)))
        CFI CFA_SP SP+0
        CFI CFA_XSP16 add(XSP16, 11)
        CFI Block cfiCond98 Using cfiCommon0
        CFI (cfiCond98) NoFunction
        CFI (cfiCond98) Conditional ??CrossCallReturnLabel_17
        CFI (cfiCond98) R6 load(1, XDATA, add(CFA_XSP16, literal(-9)))
        CFI (cfiCond98) VB load(1, XDATA, add(CFA_XSP16, literal(-8)))
        CFI (cfiCond98) V0 load(1, XDATA, add(CFA_XSP16, literal(-7)))
        CFI (cfiCond98) R7 load(1, XDATA, add(CFA_XSP16, literal(-6)))
        CFI (cfiCond98) ?RET_LOW load(1, XDATA, add(CFA_XSP16, literal(-5)))
        CFI (cfiCond98) ?RET_HIGH load(1, XDATA, add(CFA_XSP16, literal(-4)))
        CFI (cfiCond98) ?BRET_EXT load(1, XDATA, add(CFA_XSP16, literal(-3)))
        CFI (cfiCond98) DPL0 load(1, XDATA, add(CFA_XSP16, literal(-2)))
        CFI (cfiCond98) DPH0 load(1, XDATA, add(CFA_XSP16, literal(-1)))
        CFI (cfiCond98) CFA_SP SP+0
        CFI (cfiCond98) CFA_XSP16 add(XSP16, 9)
        CFI Block cfiPicker99 Using cfiCommon1
        CFI (cfiPicker99) NoFunction
        CFI (cfiPicker99) Picker
        MOV     DPTR,#st + 2
        LCALL   ?Subroutine78 & 0xFFFF
??CrossCallReturnLabel_232:
        MOVX    A,@DPTR
        MOV     R0,A
        MOV     A,R6
        CLR     C
        SUBB    A,R0
        RET
        CFI EndBlock cfiCond97
        CFI EndBlock cfiCond98
        CFI EndBlock cfiPicker99

        RSEG BANKED_CODE:CODE:NOROOT(0)
?Subroutine16:
        CFI Block cfiCond100 Using cfiCommon0
        CFI NoFunction
        CFI Conditional ??CrossCallReturnLabel_190
        CFI R6 load(1, XDATA, add(CFA_XSP16, literal(-10)))
        CFI VB load(1, XDATA, add(CFA_XSP16, literal(-9)))
        CFI V0 load(1, XDATA, add(CFA_XSP16, literal(-8)))
        CFI V1 load(1, XDATA, add(CFA_XSP16, literal(-7)))
        CFI R7 load(1, XDATA, add(CFA_XSP16, literal(-6)))
        CFI ?RET_LOW load(1, XDATA, add(CFA_XSP16, literal(-5)))
        CFI ?RET_HIGH load(1, XDATA, add(CFA_XSP16, literal(-4)))
        CFI ?BRET_EXT load(1, XDATA, add(CFA_XSP16, literal(-3)))
        CFI DPL0 load(1, XDATA, add(CFA_XSP16, literal(-2)))
        CFI DPH0 load(1, XDATA, add(CFA_XSP16, literal(-1)))
        CFI CFA_SP SP+0
        CFI CFA_XSP16 add(XSP16, 11)
        CFI Block cfiCond101 Using cfiCommon0
        CFI (cfiCond101) NoFunction
        CFI (cfiCond101) Conditional ??CrossCallReturnLabel_191
        CFI (cfiCond101) R6 load(1, XDATA, add(CFA_XSP16, literal(-9)))
        CFI (cfiCond101) VB load(1, XDATA, add(CFA_XSP16, literal(-8)))
        CFI (cfiCond101) V0 load(1, XDATA, add(CFA_XSP16, literal(-7)))
        CFI (cfiCond101) R7 load(1, XDATA, add(CFA_XSP16, literal(-6)))
        CFI (cfiCond101) ?RET_LOW load(1, XDATA, add(CFA_XSP16, literal(-5)))
        CFI (cfiCond101) ?RET_HIGH load(1, XDATA, add(CFA_XSP16, literal(-4)))
        CFI (cfiCond101) ?BRET_EXT load(1, XDATA, add(CFA_XSP16, literal(-3)))
        CFI (cfiCond101) DPL0 load(1, XDATA, add(CFA_XSP16, literal(-2)))
        CFI (cfiCond101) DPH0 load(1, XDATA, add(CFA_XSP16, literal(-1)))
        CFI (cfiCond101) CFA_SP SP+0
        CFI (cfiCond101) CFA_XSP16 add(XSP16, 9)
        CFI Block cfiPicker102 Using cfiCommon1
        CFI (cfiPicker102) NoFunction
        CFI (cfiPicker102) Picker
        MOV     DPTR,#st
        MOVX    A,@DPTR
        ADD     A,#0xb
        CFI EndBlock cfiCond100
        CFI EndBlock cfiCond101
        CFI EndBlock cfiPicker102
        REQUIRE ??Subroutine110_0
        ; // Fall through to label ??Subroutine110_0

        RSEG BANKED_CODE:CODE:NOROOT(0)
??Subroutine110_0:
        CFI Block cfiCond103 Using cfiCommon0
        CFI NoFunction
        CFI Conditional ??CrossCallReturnLabel_188
        CFI R6 load(1, XDATA, add(CFA_XSP16, literal(-10)))
        CFI VB load(1, XDATA, add(CFA_XSP16, literal(-9)))
        CFI V0 load(1, XDATA, add(CFA_XSP16, literal(-8)))
        CFI V1 load(1, XDATA, add(CFA_XSP16, literal(-7)))
        CFI R7 load(1, XDATA, add(CFA_XSP16, literal(-6)))
        CFI ?RET_LOW load(1, XDATA, add(CFA_XSP16, literal(-5)))
        CFI ?RET_HIGH load(1, XDATA, add(CFA_XSP16, literal(-4)))
        CFI ?BRET_EXT load(1, XDATA, add(CFA_XSP16, literal(-3)))
        CFI DPL0 load(1, XDATA, add(CFA_XSP16, literal(-2)))
        CFI DPH0 load(1, XDATA, add(CFA_XSP16, literal(-1)))
        CFI CFA_SP SP+0
        CFI CFA_XSP16 add(XSP16, 11)
        CFI Block cfiCond104 Using cfiCommon0
        CFI (cfiCond104) NoFunction
        CFI (cfiCond104) Conditional ??CrossCallReturnLabel_189
        CFI (cfiCond104) R6 load(1, XDATA, add(CFA_XSP16, literal(-9)))
        CFI (cfiCond104) VB load(1, XDATA, add(CFA_XSP16, literal(-8)))
        CFI (cfiCond104) V0 load(1, XDATA, add(CFA_XSP16, literal(-7)))
        CFI (cfiCond104) R7 load(1, XDATA, add(CFA_XSP16, literal(-6)))
        CFI (cfiCond104) ?RET_LOW load(1, XDATA, add(CFA_XSP16, literal(-5)))
        CFI (cfiCond104) ?RET_HIGH load(1, XDATA, add(CFA_XSP16, literal(-4)))
        CFI (cfiCond104) ?BRET_EXT load(1, XDATA, add(CFA_XSP16, literal(-3)))
        CFI (cfiCond104) DPL0 load(1, XDATA, add(CFA_XSP16, literal(-2)))
        CFI (cfiCond104) DPH0 load(1, XDATA, add(CFA_XSP16, literal(-1)))
        CFI (cfiCond104) CFA_SP SP+0
        CFI (cfiCond104) CFA_XSP16 add(XSP16, 9)
        CFI Block cfiCond105 Using cfiCommon0
        CFI (cfiCond105) NoFunction
        CFI (cfiCond105) Conditional ??CrossCallReturnLabel_190
        CFI (cfiCond105) R6 load(1, XDATA, add(CFA_XSP16, literal(-10)))
        CFI (cfiCond105) VB load(1, XDATA, add(CFA_XSP16, literal(-9)))
        CFI (cfiCond105) V0 load(1, XDATA, add(CFA_XSP16, literal(-8)))
        CFI (cfiCond105) V1 load(1, XDATA, add(CFA_XSP16, literal(-7)))
        CFI (cfiCond105) R7 load(1, XDATA, add(CFA_XSP16, literal(-6)))
        CFI (cfiCond105) ?RET_LOW load(1, XDATA, add(CFA_XSP16, literal(-5)))
        CFI (cfiCond105) ?RET_HIGH load(1, XDATA, add(CFA_XSP16, literal(-4)))
        CFI (cfiCond105) ?BRET_EXT load(1, XDATA, add(CFA_XSP16, literal(-3)))
        CFI (cfiCond105) DPL0 load(1, XDATA, add(CFA_XSP16, literal(-2)))
        CFI (cfiCond105) DPH0 load(1, XDATA, add(CFA_XSP16, literal(-1)))
        CFI (cfiCond105) CFA_SP SP+0
        CFI (cfiCond105) CFA_XSP16 add(XSP16, 11)
        CFI Block cfiCond106 Using cfiCommon0
        CFI (cfiCond106) NoFunction
        CFI (cfiCond106) Conditional ??CrossCallReturnLabel_191
        CFI (cfiCond106) R6 load(1, XDATA, add(CFA_XSP16, literal(-9)))
        CFI (cfiCond106) VB load(1, XDATA, add(CFA_XSP16, literal(-8)))
        CFI (cfiCond106) V0 load(1, XDATA, add(CFA_XSP16, literal(-7)))
        CFI (cfiCond106) R7 load(1, XDATA, add(CFA_XSP16, literal(-6)))
        CFI (cfiCond106) ?RET_LOW load(1, XDATA, add(CFA_XSP16, literal(-5)))
        CFI (cfiCond106) ?RET_HIGH load(1, XDATA, add(CFA_XSP16, literal(-4)))
        CFI (cfiCond106) ?BRET_EXT load(1, XDATA, add(CFA_XSP16, literal(-3)))
        CFI (cfiCond106) DPL0 load(1, XDATA, add(CFA_XSP16, literal(-2)))
        CFI (cfiCond106) DPH0 load(1, XDATA, add(CFA_XSP16, literal(-1)))
        CFI (cfiCond106) CFA_SP SP+0
        CFI (cfiCond106) CFA_XSP16 add(XSP16, 9)
        CFI Block cfiPicker107 Using cfiCommon1
        CFI (cfiPicker107) NoFunction
        CFI (cfiPicker107) Picker
        LCALL   ?Subroutine83 & 0xFFFF
??CrossCallReturnLabel_193:
        XRL     A,R6
        RET
        CFI EndBlock cfiCond103
        CFI EndBlock cfiCond104
        CFI EndBlock cfiCond105
        CFI EndBlock cfiCond106
        CFI EndBlock cfiPicker107
//  751 
//  752 /**
//  753  *  @brief      Initialize hardware.
//  754  *  Initial configuration:\n
//  755  *  Gyro FSR: +/- 2000DPS\n
//  756  *  Accel FSR +/- 2G\n
//  757  *  DLPF: 42Hz\n
//  758  *  FIFO rate: 50Hz\n
//  759  *  Clock source: Gyro PLL\n
//  760  *  FIFO: Disabled.\n
//  761  *  Data ready interrupt: Disabled, active low, unlatched.
//  762  *  @param[in]  int_param   Platform-specific parameters to interrupt API.
//  763  *  @return     0 if successful.
//  764  */

        RSEG BANKED_CODE:CODE:NOROOT(0)
//  765 int mpu_init(void)
mpu_init:
        CFI Block cfiBlock108 Using cfiCommon0
        CFI Function mpu_init
        CODE
//  766 {
        FUNCALL mpu_init, MPU_Write_Len
        LOCFRAME ISTACK, 0, STACK
        LOCFRAME PSTACK, 0, STACK
        LOCFRAME XSTACK, 16, STACK
        LOCFRAME IOVERLAY, 0, STATIC
        LOCFRAME DOVERLAY, 0, STATIC
        ARGFRAME ISTACK, 0, STACK
        ARGFRAME PSTACK, 0, STACK
        ARGFRAME XSTACK, 16, STACK
        ARGFRAME IOVERLAY, 0, STATIC
        ARGFRAME DOVERLAY, 0, STATIC
        FUNCALL mpu_init, delay_ms
        LOCFRAME ISTACK, 0, STACK
        LOCFRAME PSTACK, 0, STACK
        LOCFRAME XSTACK, 16, STACK
        LOCFRAME IOVERLAY, 0, STATIC
        LOCFRAME DOVERLAY, 0, STATIC
        ARGFRAME ISTACK, 0, STACK
        ARGFRAME PSTACK, 0, STACK
        ARGFRAME XSTACK, 16, STACK
        ARGFRAME IOVERLAY, 0, STATIC
        ARGFRAME DOVERLAY, 0, STATIC
        FUNCALL mpu_init, MPU_Write_Len
        LOCFRAME ISTACK, 0, STACK
        LOCFRAME PSTACK, 0, STACK
        LOCFRAME XSTACK, 16, STACK
        LOCFRAME IOVERLAY, 0, STATIC
        LOCFRAME DOVERLAY, 0, STATIC
        ARGFRAME ISTACK, 0, STACK
        ARGFRAME PSTACK, 0, STACK
        ARGFRAME XSTACK, 16, STACK
        ARGFRAME IOVERLAY, 0, STATIC
        ARGFRAME DOVERLAY, 0, STATIC
        FUNCALL mpu_init, MPU_Read_Len
        LOCFRAME ISTACK, 0, STACK
        LOCFRAME PSTACK, 0, STACK
        LOCFRAME XSTACK, 16, STACK
        LOCFRAME IOVERLAY, 0, STATIC
        LOCFRAME DOVERLAY, 0, STATIC
        ARGFRAME ISTACK, 0, STACK
        ARGFRAME PSTACK, 0, STACK
        ARGFRAME XSTACK, 16, STACK
        ARGFRAME IOVERLAY, 0, STATIC
        ARGFRAME DOVERLAY, 0, STATIC
        FUNCALL mpu_init, printf
        LOCFRAME ISTACK, 0, STACK
        LOCFRAME PSTACK, 0, STACK
        LOCFRAME XSTACK, 18, STACK
        LOCFRAME IOVERLAY, 0, STATIC
        LOCFRAME DOVERLAY, 0, STATIC
        ARGFRAME ISTACK, 0, STACK
        ARGFRAME PSTACK, 0, STACK
        ARGFRAME XSTACK, 18, STACK
        ARGFRAME IOVERLAY, 0, STATIC
        ARGFRAME DOVERLAY, 0, STATIC
        FUNCALL mpu_init, MPU_Read_Len
        LOCFRAME ISTACK, 0, STACK
        LOCFRAME PSTACK, 0, STACK
        LOCFRAME XSTACK, 16, STACK
        LOCFRAME IOVERLAY, 0, STATIC
        LOCFRAME DOVERLAY, 0, STATIC
        ARGFRAME ISTACK, 0, STACK
        ARGFRAME PSTACK, 0, STACK
        ARGFRAME XSTACK, 16, STACK
        ARGFRAME IOVERLAY, 0, STATIC
        ARGFRAME DOVERLAY, 0, STATIC
        FUNCALL mpu_init, printf
        LOCFRAME ISTACK, 0, STACK
        LOCFRAME PSTACK, 0, STACK
        LOCFRAME XSTACK, 16, STACK
        LOCFRAME IOVERLAY, 0, STATIC
        LOCFRAME DOVERLAY, 0, STATIC
        ARGFRAME ISTACK, 0, STACK
        ARGFRAME PSTACK, 0, STACK
        ARGFRAME XSTACK, 16, STACK
        ARGFRAME IOVERLAY, 0, STATIC
        ARGFRAME DOVERLAY, 0, STATIC
        FUNCALL mpu_init, printf
        LOCFRAME ISTACK, 0, STACK
        LOCFRAME PSTACK, 0, STACK
        LOCFRAME XSTACK, 16, STACK
        LOCFRAME IOVERLAY, 0, STATIC
        LOCFRAME DOVERLAY, 0, STATIC
        ARGFRAME ISTACK, 0, STACK
        ARGFRAME PSTACK, 0, STACK
        ARGFRAME XSTACK, 16, STACK
        ARGFRAME IOVERLAY, 0, STATIC
        ARGFRAME DOVERLAY, 0, STATIC
        FUNCALL mpu_init, memset
        LOCFRAME ISTACK, 0, STACK
        LOCFRAME PSTACK, 0, STACK
        LOCFRAME XSTACK, 18, STACK
        LOCFRAME IOVERLAY, 0, STATIC
        LOCFRAME DOVERLAY, 0, STATIC
        ARGFRAME ISTACK, 0, STACK
        ARGFRAME PSTACK, 0, STACK
        ARGFRAME XSTACK, 18, STACK
        ARGFRAME IOVERLAY, 0, STATIC
        ARGFRAME DOVERLAY, 0, STATIC
        FUNCALL mpu_init, mpu_set_gyro_fsr
        LOCFRAME ISTACK, 0, STACK
        LOCFRAME PSTACK, 0, STACK
        LOCFRAME XSTACK, 16, STACK
        LOCFRAME IOVERLAY, 0, STATIC
        LOCFRAME DOVERLAY, 0, STATIC
        ARGFRAME ISTACK, 0, STACK
        ARGFRAME PSTACK, 0, STACK
        ARGFRAME XSTACK, 16, STACK
        ARGFRAME IOVERLAY, 0, STATIC
        ARGFRAME DOVERLAY, 0, STATIC
        FUNCALL mpu_init, mpu_set_accel_fsr
        LOCFRAME ISTACK, 0, STACK
        LOCFRAME PSTACK, 0, STACK
        LOCFRAME XSTACK, 16, STACK
        LOCFRAME IOVERLAY, 0, STATIC
        LOCFRAME DOVERLAY, 0, STATIC
        ARGFRAME ISTACK, 0, STACK
        ARGFRAME PSTACK, 0, STACK
        ARGFRAME XSTACK, 16, STACK
        ARGFRAME IOVERLAY, 0, STATIC
        ARGFRAME DOVERLAY, 0, STATIC
        FUNCALL mpu_init, mpu_set_lpf
        LOCFRAME ISTACK, 0, STACK
        LOCFRAME PSTACK, 0, STACK
        LOCFRAME XSTACK, 16, STACK
        LOCFRAME IOVERLAY, 0, STATIC
        LOCFRAME DOVERLAY, 0, STATIC
        ARGFRAME ISTACK, 0, STACK
        ARGFRAME PSTACK, 0, STACK
        ARGFRAME XSTACK, 16, STACK
        ARGFRAME IOVERLAY, 0, STATIC
        ARGFRAME DOVERLAY, 0, STATIC
        FUNCALL mpu_init, mpu_set_sample_rate
        LOCFRAME ISTACK, 0, STACK
        LOCFRAME PSTACK, 0, STACK
        LOCFRAME XSTACK, 16, STACK
        LOCFRAME IOVERLAY, 0, STATIC
        LOCFRAME DOVERLAY, 0, STATIC
        ARGFRAME ISTACK, 0, STACK
        ARGFRAME PSTACK, 0, STACK
        ARGFRAME XSTACK, 16, STACK
        ARGFRAME IOVERLAY, 0, STATIC
        ARGFRAME DOVERLAY, 0, STATIC
        FUNCALL mpu_init, mpu_configure_fifo
        LOCFRAME ISTACK, 0, STACK
        LOCFRAME PSTACK, 0, STACK
        LOCFRAME XSTACK, 16, STACK
        LOCFRAME IOVERLAY, 0, STATIC
        LOCFRAME DOVERLAY, 0, STATIC
        ARGFRAME ISTACK, 0, STACK
        ARGFRAME PSTACK, 0, STACK
        ARGFRAME XSTACK, 16, STACK
        ARGFRAME IOVERLAY, 0, STATIC
        ARGFRAME DOVERLAY, 0, STATIC
        FUNCALL mpu_init, mpu_set_bypass
        LOCFRAME ISTACK, 0, STACK
        LOCFRAME PSTACK, 0, STACK
        LOCFRAME XSTACK, 16, STACK
        LOCFRAME IOVERLAY, 0, STATIC
        LOCFRAME DOVERLAY, 0, STATIC
        ARGFRAME ISTACK, 0, STACK
        ARGFRAME PSTACK, 0, STACK
        ARGFRAME XSTACK, 16, STACK
        ARGFRAME IOVERLAY, 0, STATIC
        ARGFRAME DOVERLAY, 0, STATIC
        FUNCALL mpu_init, mpu_set_sensors
        LOCFRAME ISTACK, 0, STACK
        LOCFRAME PSTACK, 0, STACK
        LOCFRAME XSTACK, 16, STACK
        LOCFRAME IOVERLAY, 0, STATIC
        LOCFRAME DOVERLAY, 0, STATIC
        ARGFRAME ISTACK, 0, STACK
        ARGFRAME PSTACK, 0, STACK
        ARGFRAME XSTACK, 16, STACK
        ARGFRAME IOVERLAY, 0, STATIC
        ARGFRAME DOVERLAY, 0, STATIC
        MOV     A,#-0xa
        LCALL   ?BANKED_ENTER_XDATA
        CFI DPH0 load(1, XDATA, add(CFA_XSP16, literal(-1)))
        CFI DPL0 load(1, XDATA, add(CFA_XSP16, literal(-2)))
        CFI ?BRET_EXT load(1, XDATA, add(CFA_XSP16, literal(-3)))
        CFI ?RET_HIGH load(1, XDATA, add(CFA_XSP16, literal(-4)))
        CFI ?RET_LOW load(1, XDATA, add(CFA_XSP16, literal(-5)))
        CFI R7 load(1, XDATA, add(CFA_XSP16, literal(-6)))
        CFI V1 load(1, XDATA, add(CFA_XSP16, literal(-7)))
        CFI V0 load(1, XDATA, add(CFA_XSP16, literal(-8)))
        CFI VB load(1, XDATA, add(CFA_XSP16, literal(-9)))
        CFI R6 load(1, XDATA, add(CFA_XSP16, literal(-10)))
        CFI CFA_SP SP+0
        CFI CFA_XSP16 add(XSP16, 10)
        ; Saved register size: 10
        ; Auto size: 6
        MOV     A,#-0x6
        LCALL   ?ALLOC_XSTACK8
        CFI CFA_XSP16 add(XSP16, 16)
//  767     unsigned char data[6], rev;
//  768 
//  769     /* Reset device. */
//  770     data[0] = BIT_RESET;
        MOV     DPL,?XSP + 0
        MOV     DPH,?XSP + 1
        MOV     A,#-0x80
        LCALL   ?Subroutine50 & 0xFFFF
//  771     if (i2c_write(st.hw->addr, st.reg->pwr_mgmt_1, 1, data))
??CrossCallReturnLabel_64:
        LCALL   ??Subroutine107_0 & 0xFFFF
??CrossCallReturnLabel_141:
        JZ      ??mpu_init_0
//  772         return -1;
??mpu_init_1:
        MOV     R2,#-0x1
        MOV     R3,#-0x1
        LJMP    ??mpu_init_2 & 0xFFFF
//  773     delay_ms(100);
??mpu_init_0:
        ; Setup parameters for call to function delay_ms
        MOV     R2,#0x64
        LCALL   ?Subroutine60 & 0xFFFF
//  774 
//  775     /* Wake up chip. */
//  776     data[0] = 0x00;
??CrossCallReturnLabel_80:
        CLR     A
        LCALL   ?Subroutine50 & 0xFFFF
//  777     if (i2c_write(st.hw->addr, st.reg->pwr_mgmt_1, 1, data))
??CrossCallReturnLabel_65:
        LCALL   ??Subroutine107_0 & 0xFFFF
??CrossCallReturnLabel_142:
        JNZ     ??mpu_init_1
//  778         return -1;
//  779 
//  780 #if defined MPU6050
//  781     /* Check product revision. */
//  782     if (i2c_read(st.hw->addr, st.reg->accel_offs, 6, data))
        ; Setup parameters for call to function MPU_Read_Len
        MOV     DPL,?XSP + 0
        MOV     DPH,?XSP + 1
        MOV     R4,DPL
        MOV     R5,DPH
        MOV     R3,#0x6
        MOV     DPTR,#st
        MOVX    A,@DPTR
        ADD     A,#0x16
        LCALL   ??Subroutine113_0 & 0xFFFF
??CrossCallReturnLabel_200:
        JNZ     ??mpu_init_1
//  783         return -1;
//  784     rev = ((data[5] & 0x01) << 2) | ((data[3] & 0x01) << 1) |
//  785         (data[1] & 0x01);
        MOV     A,#0x1
        LCALL   ?XSTACK_DISP0_8
        MOVX    A,@DPTR
        MOV     C,0xE0 /* A   */.0
        CLR     A
        RLC     A
        MOV     R1,A
        MOV     A,#0x3
        LCALL   ?XSTACK_DISP0_8
        MOVX    A,@DPTR
        MOV     C,0xE0 /* A   */.0
        CLR     A
        RLC     A
        RLC     A
        MOV     R0,A
        MOV     A,#0x5
        LCALL   ?XSTACK_DISP0_8
        MOVX    A,@DPTR
        MOV     C,0xE0 /* A   */.0
        CLR     A
        RLC     A
        RLC     A
        RLC     A
        ORL     A,R0
        ORL     A,R1
        MOV     ?V0 + 0,A
//  786 
//  787     if (rev) {
        JZ      ??mpu_init_3
//  788         /* Congrats, these parts are better. */
//  789         if (rev == 1)
        MOV     A,#0x1
        XRL     A,?V0 + 0
        JZ      ??mpu_init_4
//  790             st.chip_cfg.accel_half = 1;
//  791         else if (rev == 2)
        MOV     A,#0x2
        XRL     A,?V0 + 0
        JNZ     ??mpu_init_5
//  792             st.chip_cfg.accel_half = 0;
??mpu_init_6:
        MOV     DPTR,#st + 14
        CLR     A
        SJMP    ??mpu_init_7
//  793         else {
//  794             log_e("Unsupported software product rev %d.\n", rev);
??mpu_init_5:
        ; Setup parameters for call to function printf
        MOV     ?V0 + 1,#0x0
        MOV     R0,#?V0 + 0
        LCALL   ?PUSH_XSTACK_I_TWO
        CFI CFA_XSP16 add(XSP16, 18)
        MOV     R2,#`?<Constant "Unsupported software ...">` & 0xff
        MOV     R3,#(`?<Constant "Unsupported software ...">` >> 8) & 0xff
        LCALL   ??printf?relay
        MOV     A,#0x2
        LCALL   ?DEALLOC_XSTACK8
        CFI CFA_XSP16 add(XSP16, 16)
        SJMP    ??mpu_init_1
//  795             return -1;
//  796         }
//  797     } else {
//  798         if (i2c_read(st.hw->addr, st.reg->prod_id, 1, data))
??mpu_init_3:
        ; Setup parameters for call to function MPU_Read_Len
        MOV     DPL,?XSP + 0
        MOV     DPH,?XSP + 1
        LCALL   ?Subroutine33 & 0xFFFF
??CrossCallReturnLabel_25:
        INC     DPTR
        LCALL   ??Subroutine114_0 & 0xFFFF
??CrossCallReturnLabel_209:
        JZ      $+5
        LJMP    ??mpu_init_1 & 0xFFFF
//  799             return -1;
//  800         rev = data[0] & 0x0F;
        MOV     DPL,?XSP + 0
        MOV     DPH,?XSP + 1
        MOVX    A,@DPTR
        ANL     A,#0xf
        MOV     ?V0 + 0,A
//  801         if (!rev) {
        JNZ     ??mpu_init_8
//  802             log_e("Product ID read as 0 indicates device is either "
//  803                 "incompatible or an MPU3050.\n");
        ; Setup parameters for call to function printf
        MOV     R2,#`?<Constant "Product ID read as 0 ...">` & 0xff
        MOV     R3,#(`?<Constant "Product ID read as 0 ...">` >> 8) & 0xff
        LCALL   ??printf?relay
        LJMP    ??mpu_init_1 & 0xFFFF
//  804             return -1;
//  805         } else if (rev == 4) {
??mpu_init_8:
        MOV     A,#0x4
        XRL     A,?V0 + 0
        JNZ     ??mpu_init_6
//  806             log_i("Half sensitivity part found.\n");
        ; Setup parameters for call to function printf
        MOV     R2,#`?<Constant "Half sensitivity part...">` & 0xff
        MOV     R3,#(`?<Constant "Half sensitivity part...">` >> 8) & 0xff
        LCALL   ??printf?relay
//  807             st.chip_cfg.accel_half = 1;
??mpu_init_4:
        MOV     DPTR,#st + 14
        MOV     A,#0x1
??mpu_init_7:
        MOVX    @DPTR,A
//  808         } else
//  809             st.chip_cfg.accel_half = 0;
//  810     }
//  811 #elif defined MPU6500
//  812 #define MPU6500_MEM_REV_ADDR    (0x17)
//  813     if (mpu_read_mem(MPU6500_MEM_REV_ADDR, 1, &rev))
//  814         return -1;
//  815     if (rev == 0x1)
//  816         st.chip_cfg.accel_half = 0;
//  817     else {
//  818         log_e("Unsupported software product rev %d.\n", rev);
//  819         return -1;
//  820     }
//  821 
//  822     /* MPU6500 shares 4kB of memory between the DMP and the FIFO. Since the
//  823      * first 3kB are needed by the DMP, we'll use the last 1kB for the FIFO.
//  824      */
//  825     data[0] = BIT_FIFO_SIZE_1024 | 0x8;
//  826     if (i2c_write(st.hw->addr, st.reg->accel_cfg2, 1, data))
//  827         return -1;
//  828 #endif
//  829 
//  830     /* Set to invalid values to ensure no I2C writes are skipped. */
//  831     st.chip_cfg.sensors = 0xFF;
        MOV     DPTR,#st + 6
        MOV     A,#-0x1
        MOVX    @DPTR,A
//  832     st.chip_cfg.gyro_fsr = 0xFF;
        MOV     DPTR,#st + 4
        LCALL   ?Subroutine91 & 0xFFFF
//  833     st.chip_cfg.accel_fsr = 0xFF;
//  834     st.chip_cfg.lpf = 0xFF;
//  835     st.chip_cfg.sample_rate = 0xFFFF;
//  836     st.chip_cfg.fifo_enable = 0xFF;
??CrossCallReturnLabel_129:
        INC     DPTR
        MOVX    @DPTR,A
//  837     st.chip_cfg.bypass_mode = 0xFF;
        MOV     DPTR,#st + 13
        MOVX    @DPTR,A
//  838 #ifdef AK89xx_SECONDARY
//  839     st.chip_cfg.compass_sample_rate = 0xFFFF;
//  840 #endif
//  841     /* mpu_set_sensors always preserves this setting. */
//  842     st.chip_cfg.clk_src = INV_CLK_PLL;
        MOV     DPTR,#st + 8
        MOV     A,#0x1
        MOVX    @DPTR,A
//  843     /* Handled in next call to mpu_set_bypass. */
//  844     st.chip_cfg.active_low_int = 1;
        MOV     DPTR,#st + 27
        MOVX    @DPTR,A
//  845     st.chip_cfg.latched_int = 0;
        INC     DPTR
        CLR     A
        MOVX    @DPTR,A
//  846     st.chip_cfg.int_motion_only = 0;
        MOV     DPTR,#st + 16
        MOVX    @DPTR,A
//  847     st.chip_cfg.lp_accel_mode = 0;
        MOV     DPTR,#st + 15
        MOVX    @DPTR,A
//  848     memset(&st.chip_cfg.cache, 0, sizeof(st.chip_cfg.cache));
        ; Setup parameters for call to function memset
        MOV     ?V0 + 0,#0xa
        MOV     ?V0 + 1,A
        MOV     R0,#?V0 + 0
        LCALL   ?PUSH_XSTACK_I_TWO
        CFI CFA_XSP16 add(XSP16, 18)
        MOV     R4,#0x0
        MOV     R5,#0x0
        MOV     R2,#(st + 17) & 0xff
        MOV     R3,#((st + 17) >> 8) & 0xff
        LCALL   ??memset?relay
        MOV     A,#0x2
        LCALL   ?DEALLOC_XSTACK8
        CFI CFA_XSP16 add(XSP16, 16)
//  849     st.chip_cfg.dmp_on = 0;
        MOV     DPTR,#st + 29
        CLR     A
        MOVX    @DPTR,A
//  850     st.chip_cfg.dmp_loaded = 0;
        INC     DPTR
        MOVX    @DPTR,A
//  851     st.chip_cfg.dmp_sample_rate = 0;
        INC     DPTR
        MOVX    @DPTR,A
        INC     DPTR
        MOVX    @DPTR,A
//  852 
//  853     if (mpu_set_gyro_fsr(2000))
        ; Setup parameters for call to function mpu_set_gyro_fsr
        MOV     R2,#-0x30
        MOV     R3,#0x7
        LCALL   ??mpu_set_gyro_fsr?relay
        MOV     ?V0 + 1,R3
        MOV     A,R2
        ORL     A,?V0 + 1
        JZ      $+5
        LJMP    ??mpu_init_1 & 0xFFFF
//  854         return -1;
//  855     if (mpu_set_accel_fsr(2))
        ; Setup parameters for call to function mpu_set_accel_fsr
        MOV     R1,#0x2
        LCALL   ??mpu_set_accel_fsr?relay
        MOV     ?V0 + 1,R3
        MOV     A,R2
        ORL     A,?V0 + 1
        JZ      $+5
        LJMP    ??mpu_init_1 & 0xFFFF
//  856         return -1;
//  857     if (mpu_set_lpf(42))
        ; Setup parameters for call to function mpu_set_lpf
        MOV     R2,#0x2a
        MOV     R3,#0x0
        LCALL   ??mpu_set_lpf?relay
        MOV     ?V0 + 1,R3
        MOV     A,R2
        ORL     A,?V0 + 1
        JZ      $+5
        LJMP    ??mpu_init_1 & 0xFFFF
//  858         return -1;
//  859     if (mpu_set_sample_rate(50))
        ; Setup parameters for call to function mpu_set_sample_rate
        MOV     R2,#0x32
        MOV     R3,#0x0
        LCALL   ??mpu_set_sample_rate?relay
        MOV     ?V0 + 1,R3
        MOV     A,R2
        ORL     A,?V0 + 1
        JZ      $+5
        LJMP    ??mpu_init_1 & 0xFFFF
//  860         return -1;
//  861     if (mpu_configure_fifo(0))
        ; Setup parameters for call to function mpu_configure_fifo
        MOV     R1,#0x0
        LCALL   ??mpu_configure_fifo?relay
        MOV     ?V0 + 1,R3
        MOV     A,R2
        ORL     A,?V0 + 1
        JZ      $+5
        LJMP    ??mpu_init_1 & 0xFFFF
//  862         return -1;
//  863 
//  864 //    if (int_param)
//  865 //        reg_int_cb(int_param);
//  866 
//  867 #ifdef AK89xx_SECONDARY
//  868     setup_compass();
//  869     if (mpu_set_compass_sample_rate(10))
//  870         return -1;
//  871 #else
//  872     /* Already disabled by setup_compass. */
//  873     if (mpu_set_bypass(0))
        ; Setup parameters for call to function mpu_set_bypass
        MOV     R1,#0x0
        LCALL   ??mpu_set_bypass?relay
        MOV     ?V0 + 1,R3
        MOV     A,R2
        ORL     A,?V0 + 1
        JZ      $+5
        LJMP    ??mpu_init_1 & 0xFFFF
//  874         return -1;
//  875 #endif
//  876 
//  877     mpu_set_sensors(0);
        ; Setup parameters for call to function mpu_set_sensors
        MOV     R1,#0x0
        LCALL   ??mpu_set_sensors?relay
//  878     return 0;
        MOV     R2,#0x0
        MOV     R3,#0x0
??mpu_init_2:
        MOV     A,#0x6
        LJMP    ??Subroutine135_0 & 0xFFFF
        CFI EndBlock cfiBlock108
//  879 }
//  880 
//  881 /**
//  882  *  @brief      Enter low-power accel-only mode.
//  883  *  In low-power accel mode, the chip goes to sleep and only wakes up to sample
//  884  *  the accelerometer at one of the following frequencies:
//  885  *  \n MPU6050: 1.25Hz, 5Hz, 20Hz, 40Hz
//  886  *  \n MPU6500: 1.25Hz, 2.5Hz, 5Hz, 10Hz, 20Hz, 40Hz, 80Hz, 160Hz, 320Hz, 640Hz
//  887  *  \n If the requested rate is not one listed above, the device will be set to
//  888  *  the next highest rate. Requesting a rate above the maximum supported
//  889  *  frequency will result in an error.
//  890  *  \n To select a fractional wake-up frequency, round down the value passed to
//  891  *  @e rate.
//  892  *  @param[in]  rate        Minimum sampling rate, or zero to disable LP
//  893  *                          accel mode.
//  894  *  @return     0 if successful.
//  895  */

        RSEG BANKED_CODE:CODE:NOROOT(0)
//  896 int mpu_lp_accel_mode(unsigned char rate)
mpu_lp_accel_mode:
        CFI Block cfiBlock109 Using cfiCommon0
        CFI Function mpu_lp_accel_mode
        CODE
//  897 {
        FUNCALL mpu_lp_accel_mode, mpu_set_int_latched
        LOCFRAME ISTACK, 0, STACK
        LOCFRAME PSTACK, 0, STACK
        LOCFRAME XSTACK, 11, STACK
        LOCFRAME IOVERLAY, 0, STATIC
        LOCFRAME DOVERLAY, 0, STATIC
        ARGFRAME ISTACK, 0, STACK
        ARGFRAME PSTACK, 0, STACK
        ARGFRAME XSTACK, 11, STACK
        ARGFRAME IOVERLAY, 0, STATIC
        ARGFRAME DOVERLAY, 0, STATIC
        FUNCALL mpu_lp_accel_mode, MPU_Write_Len
        LOCFRAME ISTACK, 0, STACK
        LOCFRAME PSTACK, 0, STACK
        LOCFRAME XSTACK, 11, STACK
        LOCFRAME IOVERLAY, 0, STATIC
        LOCFRAME DOVERLAY, 0, STATIC
        ARGFRAME ISTACK, 0, STACK
        ARGFRAME PSTACK, 0, STACK
        ARGFRAME XSTACK, 11, STACK
        ARGFRAME IOVERLAY, 0, STATIC
        ARGFRAME DOVERLAY, 0, STATIC
        FUNCALL mpu_lp_accel_mode, mpu_set_int_latched
        LOCFRAME ISTACK, 0, STACK
        LOCFRAME PSTACK, 0, STACK
        LOCFRAME XSTACK, 11, STACK
        LOCFRAME IOVERLAY, 0, STATIC
        LOCFRAME DOVERLAY, 0, STATIC
        ARGFRAME ISTACK, 0, STACK
        ARGFRAME PSTACK, 0, STACK
        ARGFRAME XSTACK, 11, STACK
        ARGFRAME IOVERLAY, 0, STATIC
        ARGFRAME DOVERLAY, 0, STATIC
        FUNCALL mpu_lp_accel_mode, mpu_set_lpf
        LOCFRAME ISTACK, 0, STACK
        LOCFRAME PSTACK, 0, STACK
        LOCFRAME XSTACK, 11, STACK
        LOCFRAME IOVERLAY, 0, STATIC
        LOCFRAME DOVERLAY, 0, STATIC
        ARGFRAME ISTACK, 0, STACK
        ARGFRAME PSTACK, 0, STACK
        ARGFRAME XSTACK, 11, STACK
        ARGFRAME IOVERLAY, 0, STATIC
        ARGFRAME DOVERLAY, 0, STATIC
        FUNCALL mpu_lp_accel_mode, mpu_set_lpf
        LOCFRAME ISTACK, 0, STACK
        LOCFRAME PSTACK, 0, STACK
        LOCFRAME XSTACK, 11, STACK
        LOCFRAME IOVERLAY, 0, STATIC
        LOCFRAME DOVERLAY, 0, STATIC
        ARGFRAME ISTACK, 0, STACK
        ARGFRAME PSTACK, 0, STACK
        ARGFRAME XSTACK, 11, STACK
        ARGFRAME IOVERLAY, 0, STATIC
        ARGFRAME DOVERLAY, 0, STATIC
        FUNCALL mpu_lp_accel_mode, mpu_set_lpf
        LOCFRAME ISTACK, 0, STACK
        LOCFRAME PSTACK, 0, STACK
        LOCFRAME XSTACK, 11, STACK
        LOCFRAME IOVERLAY, 0, STATIC
        LOCFRAME DOVERLAY, 0, STATIC
        ARGFRAME ISTACK, 0, STACK
        ARGFRAME PSTACK, 0, STACK
        ARGFRAME XSTACK, 11, STACK
        ARGFRAME IOVERLAY, 0, STATIC
        ARGFRAME DOVERLAY, 0, STATIC
        FUNCALL mpu_lp_accel_mode, mpu_set_lpf
        LOCFRAME ISTACK, 0, STACK
        LOCFRAME PSTACK, 0, STACK
        LOCFRAME XSTACK, 11, STACK
        LOCFRAME IOVERLAY, 0, STATIC
        LOCFRAME DOVERLAY, 0, STATIC
        ARGFRAME ISTACK, 0, STACK
        ARGFRAME PSTACK, 0, STACK
        ARGFRAME XSTACK, 11, STACK
        ARGFRAME IOVERLAY, 0, STATIC
        ARGFRAME DOVERLAY, 0, STATIC
        FUNCALL mpu_lp_accel_mode, MPU_Write_Len
        LOCFRAME ISTACK, 0, STACK
        LOCFRAME PSTACK, 0, STACK
        LOCFRAME XSTACK, 11, STACK
        LOCFRAME IOVERLAY, 0, STATIC
        LOCFRAME DOVERLAY, 0, STATIC
        ARGFRAME ISTACK, 0, STACK
        ARGFRAME PSTACK, 0, STACK
        ARGFRAME XSTACK, 11, STACK
        ARGFRAME IOVERLAY, 0, STATIC
        ARGFRAME DOVERLAY, 0, STATIC
        FUNCALL mpu_lp_accel_mode, mpu_configure_fifo
        LOCFRAME ISTACK, 0, STACK
        LOCFRAME PSTACK, 0, STACK
        LOCFRAME XSTACK, 11, STACK
        LOCFRAME IOVERLAY, 0, STATIC
        LOCFRAME DOVERLAY, 0, STATIC
        ARGFRAME ISTACK, 0, STACK
        ARGFRAME PSTACK, 0, STACK
        ARGFRAME XSTACK, 11, STACK
        ARGFRAME IOVERLAY, 0, STATIC
        ARGFRAME DOVERLAY, 0, STATIC
        MOV     A,#-0x9
        LCALL   ?BANKED_ENTER_XDATA
        CFI DPH0 load(1, XDATA, add(CFA_XSP16, literal(-1)))
        CFI DPL0 load(1, XDATA, add(CFA_XSP16, literal(-2)))
        CFI ?BRET_EXT load(1, XDATA, add(CFA_XSP16, literal(-3)))
        CFI ?RET_HIGH load(1, XDATA, add(CFA_XSP16, literal(-4)))
        CFI ?RET_LOW load(1, XDATA, add(CFA_XSP16, literal(-5)))
        CFI R7 load(1, XDATA, add(CFA_XSP16, literal(-6)))
        CFI V0 load(1, XDATA, add(CFA_XSP16, literal(-7)))
        CFI VB load(1, XDATA, add(CFA_XSP16, literal(-8)))
        CFI R6 load(1, XDATA, add(CFA_XSP16, literal(-9)))
        CFI CFA_SP SP+0
        CFI CFA_XSP16 add(XSP16, 9)
        ; Saved register size: 9
        ; Auto size: 2
        MOV     A,#-0x2
        LCALL   ?ALLOC_XSTACK8
        CFI CFA_XSP16 add(XSP16, 11)
        MOV     A,R1
        MOV     R6,A
//  898     unsigned char tmp[2];
//  899 
//  900     if (rate > 40)
        CLR     C
        SUBB    A,#0x29
        JC      ??mpu_lp_accel_mode_0
//  901         return -1;
??mpu_lp_accel_mode_1:
        MOV     R2,#-0x1
        MOV     R3,#-0x1
        LJMP    ??mpu_lp_accel_mode_2 & 0xFFFF
//  902 
//  903     if (!rate) {
??mpu_lp_accel_mode_0:
        MOV     A,R6
        JNZ     ??mpu_lp_accel_mode_3
//  904         mpu_set_int_latched(0);
        ; Setup parameters for call to function mpu_set_int_latched
        MOV     R1,#0x0
        LCALL   ?Subroutine65 & 0xFFFF
//  905         tmp[0] = 0;
??CrossCallReturnLabel_92:
        CLR     A
        MOVX    @DPTR,A
//  906         tmp[1] = BIT_STBY_XYZG;
        INC     A
        LCALL   ?XSTACK_DISP0_8
        MOV     A,#0x7
        LCALL   ??Subroutine106_0 & 0xFFFF
//  907         if (i2c_write(st.hw->addr, st.reg->pwr_mgmt_1, 2, tmp))
??CrossCallReturnLabel_139:
        JNZ     ??mpu_lp_accel_mode_1
//  908             return -1;
//  909         st.chip_cfg.lp_accel_mode = 0;
        MOV     DPTR,#st + 15
        CLR     A
        MOVX    @DPTR,A
//  910         return 0;
        MOV     R2,A
        MOV     R3,A
        SJMP    ??mpu_lp_accel_mode_2
//  911     }
//  912     /* For LP accel, we automatically configure the hardware to produce latched
//  913      * interrupts. In LP accel mode, the hardware cycles into sleep mode before
//  914      * it gets a chance to deassert the interrupt pin; therefore, we shift this
//  915      * responsibility over to the MCU.
//  916      *
//  917      * Any register read will clear the interrupt.
//  918      */
//  919     mpu_set_int_latched(1);
??mpu_lp_accel_mode_3:
        ; Setup parameters for call to function mpu_set_int_latched
        MOV     R1,#0x1
        LCALL   ?Subroutine65 & 0xFFFF
//  920 #if defined MPU6050
//  921     tmp[0] = BIT_LPA_CYCLE;
??CrossCallReturnLabel_93:
        MOV     A,#0x20
        MOVX    @DPTR,A
//  922     if (rate == 1) {
        MOV     A,#0x1
        XRL     A,R6
        JNZ     ??mpu_lp_accel_mode_4
//  923         tmp[1] = INV_LPA_1_25HZ;
        MOV     A,#0x1
        LCALL   ?XSTACK_DISP0_8
        CLR     A
        MOVX    @DPTR,A
//  924         mpu_set_lpf(5);
        ; Setup parameters for call to function mpu_set_lpf
        MOV     R2,#0x5
        MOV     R3,A
        SJMP    ??mpu_lp_accel_mode_5
//  925     } else if (rate <= 5) {
??mpu_lp_accel_mode_4:
        MOV     A,R6
        CLR     C
        SUBB    A,#0x6
        JNC     ??mpu_lp_accel_mode_6
//  926         tmp[1] = INV_LPA_5HZ;
        MOV     A,#0x1
        LCALL   ?XSTACK_DISP0_8
        MOV     A,#0x1
        MOVX    @DPTR,A
//  927         mpu_set_lpf(5);
        ; Setup parameters for call to function mpu_set_lpf
        MOV     R2,#0x5
        SJMP    ??mpu_lp_accel_mode_7
//  928     } else if (rate <= 20) {
??mpu_lp_accel_mode_6:
        MOV     A,R6
        CLR     C
        SUBB    A,#0x15
        MOV     A,#0x1
        JNC     ??mpu_lp_accel_mode_8
//  929         tmp[1] = INV_LPA_20HZ;
        LCALL   ?XSTACK_DISP0_8
        MOV     A,#0x2
        MOVX    @DPTR,A
//  930         mpu_set_lpf(10);
        ; Setup parameters for call to function mpu_set_lpf
        MOV     R2,#0xa
        SJMP    ??mpu_lp_accel_mode_7
//  931     } else {
//  932         tmp[1] = INV_LPA_40HZ;
??mpu_lp_accel_mode_8:
        LCALL   ?XSTACK_DISP0_8
        MOV     A,#0x3
        MOVX    @DPTR,A
//  933         mpu_set_lpf(20);
        ; Setup parameters for call to function mpu_set_lpf
        MOV     R2,#0x14
??mpu_lp_accel_mode_7:
        MOV     R3,#0x0
??mpu_lp_accel_mode_5:
        LCALL   ??mpu_set_lpf?relay
//  934     }
//  935     tmp[1] = (tmp[1] << 6) | BIT_STBY_XYZG;
        MOV     A,#0x1
        LCALL   ?XSTACK_DISP0_8
        LCALL   ?Subroutine11 & 0xFFFF
//  936     if (i2c_write(st.hw->addr, st.reg->pwr_mgmt_1, 2, tmp))
??CrossCallReturnLabel_137:
        JNZ     ??mpu_lp_accel_mode_1
//  937         return -1;
//  938 #elif defined MPU6500
//  939     /* Set wake frequency. */
//  940     if (rate == 1)
//  941         tmp[0] = INV_LPA_1_25HZ;
//  942     else if (rate == 2)
//  943         tmp[0] = INV_LPA_2_5HZ;
//  944     else if (rate <= 5)
//  945         tmp[0] = INV_LPA_5HZ;
//  946     else if (rate <= 10)
//  947         tmp[0] = INV_LPA_10HZ;
//  948     else if (rate <= 20)
//  949         tmp[0] = INV_LPA_20HZ;
//  950     else if (rate <= 40)
//  951         tmp[0] = INV_LPA_40HZ;
//  952     else if (rate <= 80)
//  953         tmp[0] = INV_LPA_80HZ;
//  954     else if (rate <= 160)
//  955         tmp[0] = INV_LPA_160HZ;
//  956     else if (rate <= 320)
//  957         tmp[0] = INV_LPA_320HZ;
//  958     else
//  959         tmp[0] = INV_LPA_640HZ;
//  960     if (i2c_write(st.hw->addr, st.reg->lp_accel_odr, 1, tmp))
//  961         return -1;
//  962     tmp[0] = BIT_LPA_CYCLE;
//  963     if (i2c_write(st.hw->addr, st.reg->pwr_mgmt_1, 1, tmp))
//  964         return -1;
//  965 #endif
//  966     st.chip_cfg.sensors = INV_XYZ_ACCEL;
        MOV     DPTR,#st + 6
        MOV     A,#0x8
        MOVX    @DPTR,A
//  967     st.chip_cfg.clk_src = 0;
        MOV     DPTR,#st + 8
        CLR     A
        MOVX    @DPTR,A
//  968     st.chip_cfg.lp_accel_mode = 1;
        MOV     DPTR,#st + 15
        INC     A
        MOVX    @DPTR,A
//  969     mpu_configure_fifo(0);
        ; Setup parameters for call to function mpu_configure_fifo
        MOV     R1,#0x0
        LCALL   ??mpu_configure_fifo?relay
//  970 
//  971     return 0;
        MOV     R2,#0x0
        MOV     R3,#0x0
        CFI EndBlock cfiBlock109
??mpu_lp_accel_mode_2:
        REQUIRE ?Subroutine8
        ; // Fall through to label ?Subroutine8
//  972 }

        RSEG BANKED_CODE:CODE:NOROOT(0)
?Subroutine8:
        CFI Block cfiBlock110 Using cfiCommon0
        CFI NoFunction
        CFI CFA_SP SP+0
        CFI CFA_XSP16 add(XSP16, 11)
        CFI VB load(1, XDATA, add(CFA_XSP16, literal(-8)))
        CFI DPL0 load(1, XDATA, add(CFA_XSP16, literal(-2)))
        CFI DPH0 load(1, XDATA, add(CFA_XSP16, literal(-1)))
        CFI R6 load(1, XDATA, add(CFA_XSP16, literal(-9)))
        CFI R7 load(1, XDATA, add(CFA_XSP16, literal(-6)))
        CFI V0 load(1, XDATA, add(CFA_XSP16, literal(-7)))
        CFI ?BRET_EXT load(1, XDATA, add(CFA_XSP16, literal(-3)))
        CFI ?RET_HIGH load(1, XDATA, add(CFA_XSP16, literal(-4)))
        CFI ?RET_LOW load(1, XDATA, add(CFA_XSP16, literal(-5)))
        MOV     A,#0x2
        SJMP    ??Subroutine111_0
        CFI EndBlock cfiBlock110

        RSEG BANKED_CODE:CODE:NOROOT(0)
?Subroutine65:
        CFI Block cfiCond111 Using cfiCommon0
        CFI NoFunction
        CFI Conditional ??CrossCallReturnLabel_92
        CFI R6 load(1, XDATA, add(CFA_XSP16, literal(-9)))
        CFI VB load(1, XDATA, add(CFA_XSP16, literal(-8)))
        CFI V0 load(1, XDATA, add(CFA_XSP16, literal(-7)))
        CFI R7 load(1, XDATA, add(CFA_XSP16, literal(-6)))
        CFI ?RET_LOW load(1, XDATA, add(CFA_XSP16, literal(-5)))
        CFI ?RET_HIGH load(1, XDATA, add(CFA_XSP16, literal(-4)))
        CFI ?BRET_EXT load(1, XDATA, add(CFA_XSP16, literal(-3)))
        CFI DPL0 load(1, XDATA, add(CFA_XSP16, literal(-2)))
        CFI DPH0 load(1, XDATA, add(CFA_XSP16, literal(-1)))
        CFI CFA_SP SP+0
        CFI CFA_XSP16 add(XSP16, 11)
        CFI Block cfiCond112 Using cfiCommon0
        CFI (cfiCond112) NoFunction
        CFI (cfiCond112) Conditional ??CrossCallReturnLabel_93
        CFI (cfiCond112) R6 load(1, XDATA, add(CFA_XSP16, literal(-9)))
        CFI (cfiCond112) VB load(1, XDATA, add(CFA_XSP16, literal(-8)))
        CFI (cfiCond112) V0 load(1, XDATA, add(CFA_XSP16, literal(-7)))
        CFI (cfiCond112) R7 load(1, XDATA, add(CFA_XSP16, literal(-6)))
        CFI (cfiCond112) ?RET_LOW load(1, XDATA, add(CFA_XSP16, literal(-5)))
        CFI (cfiCond112) ?RET_HIGH load(1, XDATA, add(CFA_XSP16, literal(-4)))
        CFI (cfiCond112) ?BRET_EXT load(1, XDATA, add(CFA_XSP16, literal(-3)))
        CFI (cfiCond112) DPL0 load(1, XDATA, add(CFA_XSP16, literal(-2)))
        CFI (cfiCond112) DPH0 load(1, XDATA, add(CFA_XSP16, literal(-1)))
        CFI (cfiCond112) CFA_SP SP+0
        CFI (cfiCond112) CFA_XSP16 add(XSP16, 11)
        CFI Block cfiPicker113 Using cfiCommon1
        CFI (cfiPicker113) NoFunction
        CFI (cfiPicker113) Picker
        LCALL   ??mpu_set_int_latched?relay
        MOV     DPL,?XSP + 0
        MOV     DPH,?XSP + 1
        RET
        CFI EndBlock cfiCond111
        CFI EndBlock cfiCond112
        CFI EndBlock cfiPicker113

        RSEG BANKED_CODE:CODE:NOROOT(0)
?Subroutine0:
        CFI Block cfiBlock114 Using cfiCommon0
        CFI NoFunction
        CFI CFA_SP SP+0
        CFI CFA_XSP16 add(XSP16, 10)
        CFI VB load(1, XDATA, add(CFA_XSP16, literal(-8)))
        CFI DPL0 load(1, XDATA, add(CFA_XSP16, literal(-2)))
        CFI DPH0 load(1, XDATA, add(CFA_XSP16, literal(-1)))
        CFI R6 load(1, XDATA, add(CFA_XSP16, literal(-9)))
        CFI R7 load(1, XDATA, add(CFA_XSP16, literal(-6)))
        CFI V0 load(1, XDATA, add(CFA_XSP16, literal(-7)))
        CFI ?BRET_EXT load(1, XDATA, add(CFA_XSP16, literal(-3)))
        CFI ?RET_HIGH load(1, XDATA, add(CFA_XSP16, literal(-4)))
        CFI ?RET_LOW load(1, XDATA, add(CFA_XSP16, literal(-5)))
        MOV     A,#0x1
        CFI EndBlock cfiBlock114
        REQUIRE ??Subroutine111_0
        ; // Fall through to label ??Subroutine111_0

        RSEG BANKED_CODE:CODE:NOROOT(0)
??Subroutine111_0:
        CFI Block cfiBlock115 Using cfiCommon0
        CFI NoFunction
        CFI CFA_SP SP+0
        CFI CFA_XSP16 add(XSP16, 11)
        CFI VB load(1, XDATA, add(CFA_XSP16, literal(-8)))
        CFI DPL0 load(1, XDATA, add(CFA_XSP16, literal(-2)))
        CFI DPH0 load(1, XDATA, add(CFA_XSP16, literal(-1)))
        CFI R6 load(1, XDATA, add(CFA_XSP16, literal(-9)))
        CFI R7 load(1, XDATA, add(CFA_XSP16, literal(-6)))
        CFI V0 load(1, XDATA, add(CFA_XSP16, literal(-7)))
        CFI ?BRET_EXT load(1, XDATA, add(CFA_XSP16, literal(-3)))
        CFI ?RET_HIGH load(1, XDATA, add(CFA_XSP16, literal(-4)))
        CFI ?RET_LOW load(1, XDATA, add(CFA_XSP16, literal(-5)))
        CFI Invalid
        LCALL   ?DEALLOC_XSTACK8
        CFI EndBlock cfiBlock115
        REQUIRE ??Subroutine112_0
        ; // Fall through to label ??Subroutine112_0

        RSEG BANKED_CODE:CODE:NOROOT(0)
??Subroutine112_0:
        CFI Block cfiBlock116 Using cfiCommon0
        CFI NoFunction
        CFI CFA_SP SP+0
        CFI CFA_XSP16 add(XSP16, 9)
        CFI VB load(1, XDATA, add(CFA_XSP16, literal(-8)))
        CFI DPL0 load(1, XDATA, add(CFA_XSP16, literal(-2)))
        CFI DPH0 load(1, XDATA, add(CFA_XSP16, literal(-1)))
        CFI R6 load(1, XDATA, add(CFA_XSP16, literal(-9)))
        CFI R7 load(1, XDATA, add(CFA_XSP16, literal(-6)))
        CFI V0 load(1, XDATA, add(CFA_XSP16, literal(-7)))
        CFI ?BRET_EXT load(1, XDATA, add(CFA_XSP16, literal(-3)))
        CFI ?RET_HIGH load(1, XDATA, add(CFA_XSP16, literal(-4)))
        CFI ?RET_LOW load(1, XDATA, add(CFA_XSP16, literal(-5)))
        MOV     R7,#0x1
        LJMP    ?BANKED_LEAVE_XDATA
        CFI EndBlock cfiBlock116
//  973 
//  974 /**
//  975  *  @brief      Read raw gyro data directly from the registers.
//  976  *  @param[out] data        Raw data in hardware units.
//  977  *  @param[out] timestamp   Timestamp in milliseconds. Null if not needed.
//  978  *  @return     0 if successful.
//  979  */

        RSEG BANKED_CODE:CODE:NOROOT(0)
//  980 int mpu_get_gyro_reg(short *data, unsigned long *timestamp)
mpu_get_gyro_reg:
        CFI Block cfiBlock117 Using cfiCommon0
        CFI Function mpu_get_gyro_reg
        CODE
//  981 {
        FUNCALL mpu_get_gyro_reg, MPU_Read_Len
        LOCFRAME ISTACK, 0, STACK
        LOCFRAME PSTACK, 0, STACK
        LOCFRAME XSTACK, 15, STACK
        LOCFRAME IOVERLAY, 0, STATIC
        LOCFRAME DOVERLAY, 0, STATIC
        ARGFRAME ISTACK, 0, STACK
        ARGFRAME PSTACK, 0, STACK
        ARGFRAME XSTACK, 15, STACK
        ARGFRAME IOVERLAY, 0, STATIC
        ARGFRAME DOVERLAY, 0, STATIC
        MOV     A,#-0x9
        LCALL   ?BANKED_ENTER_XDATA
        CFI DPH0 load(1, XDATA, add(CFA_XSP16, literal(-1)))
        CFI DPL0 load(1, XDATA, add(CFA_XSP16, literal(-2)))
        CFI ?BRET_EXT load(1, XDATA, add(CFA_XSP16, literal(-3)))
        CFI ?RET_HIGH load(1, XDATA, add(CFA_XSP16, literal(-4)))
        CFI ?RET_LOW load(1, XDATA, add(CFA_XSP16, literal(-5)))
        CFI R7 load(1, XDATA, add(CFA_XSP16, literal(-6)))
        CFI V0 load(1, XDATA, add(CFA_XSP16, literal(-7)))
        CFI VB load(1, XDATA, add(CFA_XSP16, literal(-8)))
        CFI R6 load(1, XDATA, add(CFA_XSP16, literal(-9)))
        CFI CFA_SP SP+0
        CFI CFA_XSP16 add(XSP16, 9)
        ; Saved register size: 9
        ; Auto size: 6
        MOV     A,#-0x6
        LCALL   ?ALLOC_XSTACK8
        CFI CFA_XSP16 add(XSP16, 15)
        MOV     A,R2
        MOV     R6,A
        MOV     A,R3
        MOV     R7,A
//  982     unsigned char tmp[6];
//  983 
//  984     if (!(st.chip_cfg.sensors & INV_XYZ_GYRO))
        MOV     DPTR,#st + 6
        MOVX    A,@DPTR
        ANL     A,#0x70
        JNZ     ??mpu_get_gyro_reg_0
//  985         return -1;
??mpu_get_gyro_reg_1:
        MOV     R2,#-0x1
        MOV     R3,#-0x1
        SJMP    ??CrossCallReturnLabel_14
//  986 
//  987     if (i2c_read(st.hw->addr, st.reg->raw_gyro, 6, tmp))
??mpu_get_gyro_reg_0:
        ; Setup parameters for call to function MPU_Read_Len
        MOV     DPL,?XSP + 0
        MOV     DPH,?XSP + 1
        MOV     R4,DPL
        MOV     R5,DPH
        MOV     R3,#0x6
        MOV     DPTR,#st
        MOVX    A,@DPTR
        ADD     A,#0xc
        LCALL   ??Subroutine113_0 & 0xFFFF
??CrossCallReturnLabel_201:
        JNZ     ??mpu_get_gyro_reg_1
//  988         return -1;
//  989     data[0] = (tmp[0] << 8) | tmp[1];
        LCALL   ?Subroutine39 & 0xFFFF
??CrossCallReturnLabel_38:
        LCALL   ?XSTACK_DISP0_8
        LCALL   ?Subroutine41 & 0xFFFF
//  990     data[1] = (tmp[2] << 8) | tmp[3];
??CrossCallReturnLabel_50:
        LCALL   ?XSTACK_DISP0_8
        MOVX    A,@DPTR
        MOV     R1,A
        MOV     A,#0x3
        LCALL   ?XSTACK_DISP0_8
        LCALL   ?Subroutine36 & 0xFFFF
//  991     data[2] = (tmp[4] << 8) | tmp[5];
??CrossCallReturnLabel_31:
        LCALL   ?XSTACK_DISP0_8
        MOVX    A,@DPTR
        MOV     R1,A
        MOV     A,#0x5
        LCALL   ?XSTACK_DISP0_8
        LCALL   ?Subroutine24 & 0xFFFF
        CFI EndBlock cfiBlock117
//  992     if (timestamp)
//  993         get_ms(timestamp);
//  994     return 0;
??CrossCallReturnLabel_14:
        REQUIRE ?Subroutine9
        ; // Fall through to label ?Subroutine9
//  995 }

        RSEG BANKED_CODE:CODE:NOROOT(0)
?Subroutine9:
        CFI Block cfiBlock118 Using cfiCommon0
        CFI NoFunction
        CFI CFA_SP SP+0
        CFI CFA_XSP16 add(XSP16, 15)
        CFI VB load(1, XDATA, add(CFA_XSP16, literal(-8)))
        CFI DPL0 load(1, XDATA, add(CFA_XSP16, literal(-2)))
        CFI DPH0 load(1, XDATA, add(CFA_XSP16, literal(-1)))
        CFI R6 load(1, XDATA, add(CFA_XSP16, literal(-9)))
        CFI R7 load(1, XDATA, add(CFA_XSP16, literal(-6)))
        CFI V0 load(1, XDATA, add(CFA_XSP16, literal(-7)))
        CFI ?BRET_EXT load(1, XDATA, add(CFA_XSP16, literal(-3)))
        CFI ?RET_HIGH load(1, XDATA, add(CFA_XSP16, literal(-4)))
        CFI ?RET_LOW load(1, XDATA, add(CFA_XSP16, literal(-5)))
        MOV     A,#0x6
        SJMP    ??Subroutine111_0
        CFI EndBlock cfiBlock118

        RSEG BANKED_CODE:CODE:NOROOT(0)
?Subroutine12:
        CFI Block cfiCond119 Using cfiCommon0
        CFI NoFunction
        CFI Conditional ??CrossCallReturnLabel_198
        CFI R6 load(1, XDATA, add(CFA_XSP16, literal(-22)))
        CFI VB load(1, XDATA, add(CFA_XSP16, literal(-21)))
        CFI V0 load(1, XDATA, add(CFA_XSP16, literal(-20)))
        CFI V1 load(1, XDATA, add(CFA_XSP16, literal(-19)))
        CFI V2 load(1, XDATA, add(CFA_XSP16, literal(-18)))
        CFI V3 load(1, XDATA, add(CFA_XSP16, literal(-17)))
        CFI V4 load(1, XDATA, add(CFA_XSP16, literal(-16)))
        CFI V5 load(1, XDATA, add(CFA_XSP16, literal(-15)))
        CFI V6 load(1, XDATA, add(CFA_XSP16, literal(-14)))
        CFI V7 load(1, XDATA, add(CFA_XSP16, literal(-13)))
        CFI V8 load(1, XDATA, add(CFA_XSP16, literal(-12)))
        CFI V9 load(1, XDATA, add(CFA_XSP16, literal(-11)))
        CFI V10 load(1, XDATA, add(CFA_XSP16, literal(-10)))
        CFI V11 load(1, XDATA, add(CFA_XSP16, literal(-9)))
        CFI V12 load(1, XDATA, add(CFA_XSP16, literal(-8)))
        CFI V13 load(1, XDATA, add(CFA_XSP16, literal(-7)))
        CFI R7 load(1, XDATA, add(CFA_XSP16, literal(-6)))
        CFI ?RET_LOW load(1, XDATA, add(CFA_XSP16, literal(-5)))
        CFI ?RET_HIGH load(1, XDATA, add(CFA_XSP16, literal(-4)))
        CFI ?BRET_EXT load(1, XDATA, add(CFA_XSP16, literal(-3)))
        CFI DPL0 load(1, XDATA, add(CFA_XSP16, literal(-2)))
        CFI DPH0 load(1, XDATA, add(CFA_XSP16, literal(-1)))
        CFI CFA_SP SP+0
        CFI CFA_XSP16 add(XSP16, 34)
        CFI Block cfiCond120 Using cfiCommon0
        CFI (cfiCond120) NoFunction
        CFI (cfiCond120) Conditional ??CrossCallReturnLabel_199
        CFI (cfiCond120) R6 load(1, XDATA, add(CFA_XSP16, literal(-14)))
        CFI (cfiCond120) VB load(1, XDATA, add(CFA_XSP16, literal(-13)))
        CFI (cfiCond120) V0 load(1, XDATA, add(CFA_XSP16, literal(-12)))
        CFI (cfiCond120) V1 load(1, XDATA, add(CFA_XSP16, literal(-11)))
        CFI (cfiCond120) V2 load(1, XDATA, add(CFA_XSP16, literal(-10)))
        CFI (cfiCond120) V3 load(1, XDATA, add(CFA_XSP16, literal(-9)))
        CFI (cfiCond120) V4 load(1, XDATA, add(CFA_XSP16, literal(-8)))
        CFI (cfiCond120) V5 load(1, XDATA, add(CFA_XSP16, literal(-7)))
        CFI (cfiCond120) R7 load(1, XDATA, add(CFA_XSP16, literal(-6)))
        CFI (cfiCond120) ?RET_LOW load(1, XDATA, add(CFA_XSP16, literal(-5)))
        CFI (cfiCond120) ?RET_HIGH load(1, XDATA, add(CFA_XSP16, literal(-4)))
        CFI (cfiCond120) ?BRET_EXT load(1, XDATA, add(CFA_XSP16, literal(-3)))
        CFI (cfiCond120) DPL0 load(1, XDATA, add(CFA_XSP16, literal(-2)))
        CFI (cfiCond120) DPH0 load(1, XDATA, add(CFA_XSP16, literal(-1)))
        CFI (cfiCond120) CFA_SP SP+0
        CFI (cfiCond120) CFA_XSP16 add(XSP16, 16)
        CFI Block cfiPicker121 Using cfiCommon1
        CFI (cfiPicker121) NoFunction
        CFI (cfiPicker121) Picker
        MOV     DPL,?XSP + 0
        MOV     DPH,?XSP + 1
        MOV     R4,DPL
        MOV     R5,DPH
        MOV     R3,#0x1
        MOV     DPTR,#st
        MOVX    A,@DPTR
        ADD     A,#0x11
        CFI EndBlock cfiCond119
        CFI EndBlock cfiCond120
        CFI EndBlock cfiPicker121
        REQUIRE ??Subroutine113_0
        ; // Fall through to label ??Subroutine113_0

        RSEG BANKED_CODE:CODE:NOROOT(0)
??Subroutine113_0:
        CFI Block cfiCond122 Using cfiCommon0
        CFI NoFunction
        CFI Conditional ??CrossCallReturnLabel_200
        CFI R6 load(1, XDATA, add(CFA_XSP16, literal(-10)))
        CFI VB load(1, XDATA, add(CFA_XSP16, literal(-9)))
        CFI V0 load(1, XDATA, add(CFA_XSP16, literal(-8)))
        CFI V1 load(1, XDATA, add(CFA_XSP16, literal(-7)))
        CFI R7 load(1, XDATA, add(CFA_XSP16, literal(-6)))
        CFI ?RET_LOW load(1, XDATA, add(CFA_XSP16, literal(-5)))
        CFI ?RET_HIGH load(1, XDATA, add(CFA_XSP16, literal(-4)))
        CFI ?BRET_EXT load(1, XDATA, add(CFA_XSP16, literal(-3)))
        CFI DPL0 load(1, XDATA, add(CFA_XSP16, literal(-2)))
        CFI DPH0 load(1, XDATA, add(CFA_XSP16, literal(-1)))
        CFI CFA_SP SP+0
        CFI CFA_XSP16 add(XSP16, 16)
        CFI Block cfiCond123 Using cfiCommon0
        CFI (cfiCond123) NoFunction
        CFI (cfiCond123) Conditional ??CrossCallReturnLabel_201
        CFI (cfiCond123) R6 load(1, XDATA, add(CFA_XSP16, literal(-9)))
        CFI (cfiCond123) VB load(1, XDATA, add(CFA_XSP16, literal(-8)))
        CFI (cfiCond123) V0 load(1, XDATA, add(CFA_XSP16, literal(-7)))
        CFI (cfiCond123) R7 load(1, XDATA, add(CFA_XSP16, literal(-6)))
        CFI (cfiCond123) ?RET_LOW load(1, XDATA, add(CFA_XSP16, literal(-5)))
        CFI (cfiCond123) ?RET_HIGH load(1, XDATA, add(CFA_XSP16, literal(-4)))
        CFI (cfiCond123) ?BRET_EXT load(1, XDATA, add(CFA_XSP16, literal(-3)))
        CFI (cfiCond123) DPL0 load(1, XDATA, add(CFA_XSP16, literal(-2)))
        CFI (cfiCond123) DPH0 load(1, XDATA, add(CFA_XSP16, literal(-1)))
        CFI (cfiCond123) CFA_SP SP+0
        CFI (cfiCond123) CFA_XSP16 add(XSP16, 15)
        CFI Block cfiCond124 Using cfiCommon0
        CFI (cfiCond124) NoFunction
        CFI (cfiCond124) Conditional ??CrossCallReturnLabel_202
        CFI (cfiCond124) R6 load(1, XDATA, add(CFA_XSP16, literal(-9)))
        CFI (cfiCond124) VB load(1, XDATA, add(CFA_XSP16, literal(-8)))
        CFI (cfiCond124) V0 load(1, XDATA, add(CFA_XSP16, literal(-7)))
        CFI (cfiCond124) R7 load(1, XDATA, add(CFA_XSP16, literal(-6)))
        CFI (cfiCond124) ?RET_LOW load(1, XDATA, add(CFA_XSP16, literal(-5)))
        CFI (cfiCond124) ?RET_HIGH load(1, XDATA, add(CFA_XSP16, literal(-4)))
        CFI (cfiCond124) ?BRET_EXT load(1, XDATA, add(CFA_XSP16, literal(-3)))
        CFI (cfiCond124) DPL0 load(1, XDATA, add(CFA_XSP16, literal(-2)))
        CFI (cfiCond124) DPH0 load(1, XDATA, add(CFA_XSP16, literal(-1)))
        CFI (cfiCond124) CFA_SP SP+0
        CFI (cfiCond124) CFA_XSP16 add(XSP16, 15)
        CFI Block cfiCond125 Using cfiCommon0
        CFI (cfiCond125) NoFunction
        CFI (cfiCond125) Conditional ??CrossCallReturnLabel_203
        CFI (cfiCond125) R6 load(1, XDATA, add(CFA_XSP16, literal(-16)))
        CFI (cfiCond125) VB load(1, XDATA, add(CFA_XSP16, literal(-15)))
        CFI (cfiCond125) V0 load(1, XDATA, add(CFA_XSP16, literal(-14)))
        CFI (cfiCond125) V1 load(1, XDATA, add(CFA_XSP16, literal(-13)))
        CFI (cfiCond125) V2 load(1, XDATA, add(CFA_XSP16, literal(-12)))
        CFI (cfiCond125) V3 load(1, XDATA, add(CFA_XSP16, literal(-11)))
        CFI (cfiCond125) V4 load(1, XDATA, add(CFA_XSP16, literal(-10)))
        CFI (cfiCond125) V5 load(1, XDATA, add(CFA_XSP16, literal(-9)))
        CFI (cfiCond125) V6 load(1, XDATA, add(CFA_XSP16, literal(-8)))
        CFI (cfiCond125) V7 load(1, XDATA, add(CFA_XSP16, literal(-7)))
        CFI (cfiCond125) R7 load(1, XDATA, add(CFA_XSP16, literal(-6)))
        CFI (cfiCond125) ?RET_LOW load(1, XDATA, add(CFA_XSP16, literal(-5)))
        CFI (cfiCond125) ?RET_HIGH load(1, XDATA, add(CFA_XSP16, literal(-4)))
        CFI (cfiCond125) ?BRET_EXT load(1, XDATA, add(CFA_XSP16, literal(-3)))
        CFI (cfiCond125) DPL0 load(1, XDATA, add(CFA_XSP16, literal(-2)))
        CFI (cfiCond125) DPH0 load(1, XDATA, add(CFA_XSP16, literal(-1)))
        CFI (cfiCond125) CFA_SP SP+0
        CFI (cfiCond125) CFA_XSP16 add(XSP16, 18)
        CFI Block cfiCond126 Using cfiCommon0
        CFI (cfiCond126) NoFunction
        CFI (cfiCond126) Conditional ??CrossCallReturnLabel_204
        CFI (cfiCond126) R6 load(1, XDATA, add(CFA_XSP16, literal(-9)))
        CFI (cfiCond126) VB load(1, XDATA, add(CFA_XSP16, literal(-8)))
        CFI (cfiCond126) V0 load(1, XDATA, add(CFA_XSP16, literal(-7)))
        CFI (cfiCond126) R7 load(1, XDATA, add(CFA_XSP16, literal(-6)))
        CFI (cfiCond126) ?RET_LOW load(1, XDATA, add(CFA_XSP16, literal(-5)))
        CFI (cfiCond126) ?RET_HIGH load(1, XDATA, add(CFA_XSP16, literal(-4)))
        CFI (cfiCond126) ?BRET_EXT load(1, XDATA, add(CFA_XSP16, literal(-3)))
        CFI (cfiCond126) DPL0 load(1, XDATA, add(CFA_XSP16, literal(-2)))
        CFI (cfiCond126) DPH0 load(1, XDATA, add(CFA_XSP16, literal(-1)))
        CFI (cfiCond126) CFA_SP SP+0
        CFI (cfiCond126) CFA_XSP16 add(XSP16, 11)
        CFI Block cfiCond127 Using cfiCommon0
        CFI (cfiCond127) NoFunction
        CFI (cfiCond127) Conditional ??CrossCallReturnLabel_205
        CFI (cfiCond127) R6 load(1, XDATA, add(CFA_XSP16, literal(-22)))
        CFI (cfiCond127) VB load(1, XDATA, add(CFA_XSP16, literal(-21)))
        CFI (cfiCond127) V0 load(1, XDATA, add(CFA_XSP16, literal(-20)))
        CFI (cfiCond127) V1 load(1, XDATA, add(CFA_XSP16, literal(-19)))
        CFI (cfiCond127) V2 load(1, XDATA, add(CFA_XSP16, literal(-18)))
        CFI (cfiCond127) V3 load(1, XDATA, add(CFA_XSP16, literal(-17)))
        CFI (cfiCond127) V4 load(1, XDATA, add(CFA_XSP16, literal(-16)))
        CFI (cfiCond127) V5 load(1, XDATA, add(CFA_XSP16, literal(-15)))
        CFI (cfiCond127) V6 load(1, XDATA, add(CFA_XSP16, literal(-14)))
        CFI (cfiCond127) V7 load(1, XDATA, add(CFA_XSP16, literal(-13)))
        CFI (cfiCond127) V8 load(1, XDATA, add(CFA_XSP16, literal(-12)))
        CFI (cfiCond127) V9 load(1, XDATA, add(CFA_XSP16, literal(-11)))
        CFI (cfiCond127) V10 load(1, XDATA, add(CFA_XSP16, literal(-10)))
        CFI (cfiCond127) V11 load(1, XDATA, add(CFA_XSP16, literal(-9)))
        CFI (cfiCond127) V12 load(1, XDATA, add(CFA_XSP16, literal(-8)))
        CFI (cfiCond127) V13 load(1, XDATA, add(CFA_XSP16, literal(-7)))
        CFI (cfiCond127) R7 load(1, XDATA, add(CFA_XSP16, literal(-6)))
        CFI (cfiCond127) ?RET_LOW load(1, XDATA, add(CFA_XSP16, literal(-5)))
        CFI (cfiCond127) ?RET_HIGH load(1, XDATA, add(CFA_XSP16, literal(-4)))
        CFI (cfiCond127) ?BRET_EXT load(1, XDATA, add(CFA_XSP16, literal(-3)))
        CFI (cfiCond127) DPL0 load(1, XDATA, add(CFA_XSP16, literal(-2)))
        CFI (cfiCond127) DPH0 load(1, XDATA, add(CFA_XSP16, literal(-1)))
        CFI (cfiCond127) CFA_SP SP+0
        CFI (cfiCond127) CFA_XSP16 add(XSP16, 34)
        CFI Block cfiCond128 Using cfiCommon0
        CFI (cfiCond128) NoFunction
        CFI (cfiCond128) Conditional ??CrossCallReturnLabel_206
        CFI (cfiCond128) R6 load(1, XDATA, add(CFA_XSP16, literal(-14)))
        CFI (cfiCond128) VB load(1, XDATA, add(CFA_XSP16, literal(-13)))
        CFI (cfiCond128) V0 load(1, XDATA, add(CFA_XSP16, literal(-12)))
        CFI (cfiCond128) V1 load(1, XDATA, add(CFA_XSP16, literal(-11)))
        CFI (cfiCond128) V2 load(1, XDATA, add(CFA_XSP16, literal(-10)))
        CFI (cfiCond128) V3 load(1, XDATA, add(CFA_XSP16, literal(-9)))
        CFI (cfiCond128) V4 load(1, XDATA, add(CFA_XSP16, literal(-8)))
        CFI (cfiCond128) V5 load(1, XDATA, add(CFA_XSP16, literal(-7)))
        CFI (cfiCond128) R7 load(1, XDATA, add(CFA_XSP16, literal(-6)))
        CFI (cfiCond128) ?RET_LOW load(1, XDATA, add(CFA_XSP16, literal(-5)))
        CFI (cfiCond128) ?RET_HIGH load(1, XDATA, add(CFA_XSP16, literal(-4)))
        CFI (cfiCond128) ?BRET_EXT load(1, XDATA, add(CFA_XSP16, literal(-3)))
        CFI (cfiCond128) DPL0 load(1, XDATA, add(CFA_XSP16, literal(-2)))
        CFI (cfiCond128) DPH0 load(1, XDATA, add(CFA_XSP16, literal(-1)))
        CFI (cfiCond128) CFA_SP SP+0
        CFI (cfiCond128) CFA_XSP16 add(XSP16, 16)
        CFI Block cfiCond129 Using cfiCommon0
        CFI (cfiCond129) NoFunction
        CFI (cfiCond129) Conditional ??CrossCallReturnLabel_207
        CFI (cfiCond129) R6 load(1, XDATA, add(CFA_XSP16, literal(-23)))
        CFI (cfiCond129) VB load(1, XDATA, add(CFA_XSP16, literal(-22)))
        CFI (cfiCond129) V0 load(1, XDATA, add(CFA_XSP16, literal(-21)))
        CFI (cfiCond129) V1 load(1, XDATA, add(CFA_XSP16, literal(-20)))
        CFI (cfiCond129) V2 load(1, XDATA, add(CFA_XSP16, literal(-19)))
        CFI (cfiCond129) V3 load(1, XDATA, add(CFA_XSP16, literal(-18)))
        CFI (cfiCond129) V4 load(1, XDATA, add(CFA_XSP16, literal(-17)))
        CFI (cfiCond129) V5 load(1, XDATA, add(CFA_XSP16, literal(-16)))
        CFI (cfiCond129) V6 load(1, XDATA, add(CFA_XSP16, literal(-15)))
        CFI (cfiCond129) V7 load(1, XDATA, add(CFA_XSP16, literal(-14)))
        CFI (cfiCond129) V8 load(1, XDATA, add(CFA_XSP16, literal(-13)))
        CFI (cfiCond129) V9 load(1, XDATA, add(CFA_XSP16, literal(-12)))
        CFI (cfiCond129) V10 load(1, XDATA, add(CFA_XSP16, literal(-11)))
        CFI (cfiCond129) V11 load(1, XDATA, add(CFA_XSP16, literal(-10)))
        CFI (cfiCond129) V12 load(1, XDATA, add(CFA_XSP16, literal(-9)))
        CFI (cfiCond129) V13 load(1, XDATA, add(CFA_XSP16, literal(-8)))
        CFI (cfiCond129) V14 load(1, XDATA, add(CFA_XSP16, literal(-7)))
        CFI (cfiCond129) R7 load(1, XDATA, add(CFA_XSP16, literal(-6)))
        CFI (cfiCond129) ?RET_LOW load(1, XDATA, add(CFA_XSP16, literal(-5)))
        CFI (cfiCond129) ?RET_HIGH load(1, XDATA, add(CFA_XSP16, literal(-4)))
        CFI (cfiCond129) ?BRET_EXT load(1, XDATA, add(CFA_XSP16, literal(-3)))
        CFI (cfiCond129) DPL0 load(1, XDATA, add(CFA_XSP16, literal(-2)))
        CFI (cfiCond129) DPH0 load(1, XDATA, add(CFA_XSP16, literal(-1)))
        CFI (cfiCond129) CFA_SP SP+0
        CFI (cfiCond129) CFA_XSP16 add(XSP16, 47)
        CFI Block cfiCond130 Using cfiCommon0
        CFI (cfiCond130) NoFunction
        CFI (cfiCond130) Conditional ??CrossCallReturnLabel_208
        CFI (cfiCond130) R6 load(1, XDATA, add(CFA_XSP16, literal(-10)))
        CFI (cfiCond130) VB load(1, XDATA, add(CFA_XSP16, literal(-9)))
        CFI (cfiCond130) V0 load(1, XDATA, add(CFA_XSP16, literal(-8)))
        CFI (cfiCond130) V1 load(1, XDATA, add(CFA_XSP16, literal(-7)))
        CFI (cfiCond130) R7 load(1, XDATA, add(CFA_XSP16, literal(-6)))
        CFI (cfiCond130) ?RET_LOW load(1, XDATA, add(CFA_XSP16, literal(-5)))
        CFI (cfiCond130) ?RET_HIGH load(1, XDATA, add(CFA_XSP16, literal(-4)))
        CFI (cfiCond130) ?BRET_EXT load(1, XDATA, add(CFA_XSP16, literal(-3)))
        CFI (cfiCond130) DPL0 load(1, XDATA, add(CFA_XSP16, literal(-2)))
        CFI (cfiCond130) DPH0 load(1, XDATA, add(CFA_XSP16, literal(-1)))
        CFI (cfiCond130) CFA_SP SP+0
        CFI (cfiCond130) CFA_XSP16 add(XSP16, 12)
        CFI Block cfiCond131 Using cfiCommon0
        CFI (cfiCond131) NoFunction
        CFI (cfiCond131) Conditional ??CrossCallReturnLabel_198
        CFI (cfiCond131) R6 load(1, XDATA, add(CFA_XSP16, literal(-22)))
        CFI (cfiCond131) VB load(1, XDATA, add(CFA_XSP16, literal(-21)))
        CFI (cfiCond131) V0 load(1, XDATA, add(CFA_XSP16, literal(-20)))
        CFI (cfiCond131) V1 load(1, XDATA, add(CFA_XSP16, literal(-19)))
        CFI (cfiCond131) V2 load(1, XDATA, add(CFA_XSP16, literal(-18)))
        CFI (cfiCond131) V3 load(1, XDATA, add(CFA_XSP16, literal(-17)))
        CFI (cfiCond131) V4 load(1, XDATA, add(CFA_XSP16, literal(-16)))
        CFI (cfiCond131) V5 load(1, XDATA, add(CFA_XSP16, literal(-15)))
        CFI (cfiCond131) V6 load(1, XDATA, add(CFA_XSP16, literal(-14)))
        CFI (cfiCond131) V7 load(1, XDATA, add(CFA_XSP16, literal(-13)))
        CFI (cfiCond131) V8 load(1, XDATA, add(CFA_XSP16, literal(-12)))
        CFI (cfiCond131) V9 load(1, XDATA, add(CFA_XSP16, literal(-11)))
        CFI (cfiCond131) V10 load(1, XDATA, add(CFA_XSP16, literal(-10)))
        CFI (cfiCond131) V11 load(1, XDATA, add(CFA_XSP16, literal(-9)))
        CFI (cfiCond131) V12 load(1, XDATA, add(CFA_XSP16, literal(-8)))
        CFI (cfiCond131) V13 load(1, XDATA, add(CFA_XSP16, literal(-7)))
        CFI (cfiCond131) R7 load(1, XDATA, add(CFA_XSP16, literal(-6)))
        CFI (cfiCond131) ?RET_LOW load(1, XDATA, add(CFA_XSP16, literal(-5)))
        CFI (cfiCond131) ?RET_HIGH load(1, XDATA, add(CFA_XSP16, literal(-4)))
        CFI (cfiCond131) ?BRET_EXT load(1, XDATA, add(CFA_XSP16, literal(-3)))
        CFI (cfiCond131) DPL0 load(1, XDATA, add(CFA_XSP16, literal(-2)))
        CFI (cfiCond131) DPH0 load(1, XDATA, add(CFA_XSP16, literal(-1)))
        CFI (cfiCond131) CFA_SP SP+0
        CFI (cfiCond131) CFA_XSP16 add(XSP16, 34)
        CFI Block cfiCond132 Using cfiCommon0
        CFI (cfiCond132) NoFunction
        CFI (cfiCond132) Conditional ??CrossCallReturnLabel_199
        CFI (cfiCond132) R6 load(1, XDATA, add(CFA_XSP16, literal(-14)))
        CFI (cfiCond132) VB load(1, XDATA, add(CFA_XSP16, literal(-13)))
        CFI (cfiCond132) V0 load(1, XDATA, add(CFA_XSP16, literal(-12)))
        CFI (cfiCond132) V1 load(1, XDATA, add(CFA_XSP16, literal(-11)))
        CFI (cfiCond132) V2 load(1, XDATA, add(CFA_XSP16, literal(-10)))
        CFI (cfiCond132) V3 load(1, XDATA, add(CFA_XSP16, literal(-9)))
        CFI (cfiCond132) V4 load(1, XDATA, add(CFA_XSP16, literal(-8)))
        CFI (cfiCond132) V5 load(1, XDATA, add(CFA_XSP16, literal(-7)))
        CFI (cfiCond132) R7 load(1, XDATA, add(CFA_XSP16, literal(-6)))
        CFI (cfiCond132) ?RET_LOW load(1, XDATA, add(CFA_XSP16, literal(-5)))
        CFI (cfiCond132) ?RET_HIGH load(1, XDATA, add(CFA_XSP16, literal(-4)))
        CFI (cfiCond132) ?BRET_EXT load(1, XDATA, add(CFA_XSP16, literal(-3)))
        CFI (cfiCond132) DPL0 load(1, XDATA, add(CFA_XSP16, literal(-2)))
        CFI (cfiCond132) DPH0 load(1, XDATA, add(CFA_XSP16, literal(-1)))
        CFI (cfiCond132) CFA_SP SP+0
        CFI (cfiCond132) CFA_XSP16 add(XSP16, 16)
        CFI Block cfiPicker133 Using cfiCommon1
        CFI (cfiPicker133) NoFunction
        CFI (cfiPicker133) Picker
        LCALL   ?Subroutine89 & 0xFFFF
        CFI EndBlock cfiCond122
        CFI EndBlock cfiCond123
        CFI EndBlock cfiCond124
        CFI EndBlock cfiCond125
        CFI EndBlock cfiCond126
        CFI EndBlock cfiCond127
        CFI EndBlock cfiCond128
        CFI EndBlock cfiCond129
        CFI EndBlock cfiCond130
        CFI EndBlock cfiCond131
        CFI EndBlock cfiCond132
        CFI EndBlock cfiPicker133
??CrossCallReturnLabel_195:
        REQUIRE ??Subroutine114_0
        ; // Fall through to label ??Subroutine114_0

        RSEG BANKED_CODE:CODE:NOROOT(0)
??Subroutine114_0:
        CFI Block cfiCond134 Using cfiCommon0
        CFI NoFunction
        CFI Conditional ??CrossCallReturnLabel_209
        CFI R6 load(1, XDATA, add(CFA_XSP16, literal(-10)))
        CFI VB load(1, XDATA, add(CFA_XSP16, literal(-9)))
        CFI V0 load(1, XDATA, add(CFA_XSP16, literal(-8)))
        CFI V1 load(1, XDATA, add(CFA_XSP16, literal(-7)))
        CFI R7 load(1, XDATA, add(CFA_XSP16, literal(-6)))
        CFI ?RET_LOW load(1, XDATA, add(CFA_XSP16, literal(-5)))
        CFI ?RET_HIGH load(1, XDATA, add(CFA_XSP16, literal(-4)))
        CFI ?BRET_EXT load(1, XDATA, add(CFA_XSP16, literal(-3)))
        CFI DPL0 load(1, XDATA, add(CFA_XSP16, literal(-2)))
        CFI DPH0 load(1, XDATA, add(CFA_XSP16, literal(-1)))
        CFI CFA_SP SP+0
        CFI CFA_XSP16 add(XSP16, 16)
        CFI Block cfiCond135 Using cfiCommon0
