///////////////////////////////////////////////////////////////////////////////
//                                                                            /
// IAR C/C++ Compiler V8.10.3.10338/W32 for 8051        22/Feb/2019  10:21:45 /
// Copyright 2004-2011 IAR Systems AB.                                        /
//                                                                            /
//    Core               =  plain                                             /
//    Code model         =  banked                                            /
//    Data model         =  large                                             /
//    Calling convention =  xdata reentrant                                   /
//    Constant location  =  data_rom                                          /
//    Dptr setup         =  1,16                                              /
//    Source file        =  C:\Users\Administrator\Desktop\ZStack-2.5.1a\Proj /
//                          ects\zstack\Samples\SampleApp\Source\MPU6050\mpui /
//                          ic.c                                              /
//    Command line       =  -f C:\Users\Administrator\Desktop\ZStack-2.5.1a\P /
//                          rojects\zstack\Samples\SampleApp\CC2530DB\..\..\. /
//                          .\Tools\CC2530DB\f8wRouter.cfg (-DCPU32MHZ        /
//                          -DROOT=__near_func -DMAC_CFG_APP_PENDING_QUEUE=TR /
//                          UE -DMAC_CFG_TX_DATA_MAX=5 -DMAC_CFG_TX_MAX=8     /
//                          -DMAC_CFG_RX_MAX=5 -DRTR_NWK) -f                  /
//                          C:\Users\Administrator\Desktop\ZStack-2.5.1a\Proj /
//                          ects\zstack\Samples\SampleApp\CC2530DB\..\..\..\T /
//                          ools\CC2530DB\f8wConfig.cfg (-DZIGBEEPRO          /
//                          -DSECURE=0 -DZG_SECURE_DYNAMIC=0 -DREFLECTOR      /
//                          -DDEFAULT_CHANLIST=0x00000800                     /
//                          -DZDAPP_CONFIG_PAN_ID=0xFFF1                      /
//                          -DNWK_START_DELAY=100 -DEXTENDED_JOINING_RANDOM_M /
//                          ASK=0x007F -DBEACON_REQUEST_DELAY=100             /
//                          -DBEACON_REQ_DELAY_MASK=0x00FF                    /
//                          -DLINK_STATUS_JITTER_MASK=0x007F                  /
//                          -DROUTE_EXPIRY_TIME=30 -DAPSC_ACK_WAIT_DURATION_P /
//                          OLLED=3000 -DNWK_INDIRECT_MSG_TIMEOUT=7           /
//                          -DMAX_RREQ_ENTRIES=8 -DAPSC_MAX_FRAME_RETRIES=3   /
//                          -DNWK_MAX_DATA_RETRIES=2                          /
//                          -DMAX_POLL_FAILURE_RETRIES=2 -DMAX_BCAST=9        /
//                          -DAPS_MAX_GROUPS=16 -DMAX_RTG_ENTRIES=40          /
//                          -DNWK_MAX_BINDING_ENTRIES=4                       /
//                          -DMAX_BINDING_CLUSTER_IDS=4                       /
//                          "-DDEFAULT_KEY={0x01, 0x03, 0x05, 0x07, 0x09,     /
//                          0x0B, 0x0D, 0x0F, 0x00, 0x02, 0x04, 0x06, 0x08,   /
//                          0x0A, 0x0C, 0x0D}" -DMAC_MAX_FRAME_SIZE=116       /
//                          -DZDNWKMGR_MIN_TRANSMISSIONS=20 "-DCONST=const    /
//                          __code" -DGENERIC=__generic                       /
//                          -DRFD_RCVC_ALWAYS_ON=FALSE -DPOLL_RATE=1000       /
//                          -DQUEUED_POLL_RATE=100 -DRESPONSE_POLL_RATE=100)  /
//                          -DREJOIN_POLL_RATE=440 C:\Users\Administrator\Des /
//                          ktop\ZStack-2.5.1a\Projects\zstack\Samples\Sample /
//                          App\Source\MPU6050\mpuiic.c -D ZTOOL_P1 -D        /
//                          xMT_TASK -D xMT_SYS_FUNC -D xMT_ZDO_FUNC -D       /
//                          LCD_SUPPORTED=DEBUG -lC                           /
//                          C:\Users\Administrator\Desktop\ZStack-2.5.1a\Proj /
//                          ects\zstack\Samples\SampleApp\CC2530DB\RouterEB\L /
//                          ist\ -lA C:\Users\Administrator\Desktop\ZStack-2. /
//                          5.1a\Projects\zstack\Samples\SampleApp\CC2530DB\R /
//                          outerEB\List\ --diag_suppress Pe001,Pa010 -o      /
//                          C:\Users\Administrator\Desktop\ZStack-2.5.1a\Proj /
//                          ects\zstack\Samples\SampleApp\CC2530DB\RouterEB\O /
//                          bj\ -e --no_code_motion --debug --core=plain      /
//                          --dptr=16,1 --data_model=large                    /
//                          --code_model=banked --calling_convention=xdata_re /
//                          entrant --place_constants=data_rom                /
//                          --nr_virtual_regs 16 -I                           /
//                          C:\Users\Administrator\Desktop\ZStack-2.5.1a\Proj /
//                          ects\zstack\Samples\SampleApp\CC2530DB\ -I        /
//                          C:\Users\Administrator\Desktop\ZStack-2.5.1a\Proj /
//                          ects\zstack\Samples\SampleApp\CC2530DB\..\Source\ /
//                           -I C:\Users\Administrator\Desktop\ZStack-2.5.1a\ /
//                          Projects\zstack\Samples\SampleApp\CC2530DB\..\Sou /
//                          rce\MPU6050\ -I C:\Users\Administrator\Desktop\ZS /
//                          tack-2.5.1a\Projects\zstack\Samples\SampleApp\CC2 /
//                          530DB\..\Source\MPU6050\eMPL\ -I                  /
//                          C:\Users\Administrator\Desktop\ZStack-2.5.1a\Proj /
//                          ects\zstack\Samples\SampleApp\CC2530DB\..\..\..\Z /
//                          Main\TI2530DB\ -I C:\Users\Administrator\Desktop\ /
//                          ZStack-2.5.1a\Projects\zstack\Samples\SampleApp\C /
//                          C2530DB\..\..\..\..\..\Components\hal\include\    /
//                          -I C:\Users\Administrator\Desktop\ZStack-2.5.1a\P /
//                          rojects\zstack\Samples\SampleApp\CC2530DB\..\..\. /
//                          .\..\..\Components\hal\target\CC2530EB\ -I        /
//                          C:\Users\Administrator\Desktop\ZStack-2.5.1a\Proj /
//                          ects\zstack\Samples\SampleApp\CC2530DB\..\..\..\. /
//                          .\..\Components\mac\include\ -I                   /
//                          C:\Users\Administrator\Desktop\ZStack-2.5.1a\Proj /
//                          ects\zstack\Samples\SampleApp\CC2530DB\..\..\..\. /
//                          .\..\Components\mac\high_level\ -I                /
//                          C:\Users\Administrator\Desktop\ZStack-2.5.1a\Proj /
//                          ects\zstack\Samples\SampleApp\CC2530DB\..\..\..\. /
//                          .\..\Components\mac\low_level\srf04\ -I           /
//                          C:\Users\Administrator\Desktop\ZStack-2.5.1a\Proj /
//                          ects\zstack\Samples\SampleApp\CC2530DB\..\..\..\. /
//                          .\..\Components\mac\low_level\srf04\single_chip\  /
//                          -I C:\Users\Administrator\Desktop\ZStack-2.5.1a\P /
//                          rojects\zstack\Samples\SampleApp\CC2530DB\..\..\. /
//                          .\..\..\Components\mt\ -I                         /
//                          C:\Users\Administrator\Desktop\ZStack-2.5.1a\Proj /
//                          ects\zstack\Samples\SampleApp\CC2530DB\..\..\..\. /
//                          .\..\Components\osal\include\ -I                  /
//                          C:\Users\Administrator\Desktop\ZStack-2.5.1a\Proj /
//                          ects\zstack\Samples\SampleApp\CC2530DB\..\..\..\. /
//                          .\..\Components\services\saddr\ -I                /
//                          C:\Users\Administrator\Desktop\ZStack-2.5.1a\Proj /
//                          ects\zstack\Samples\SampleApp\CC2530DB\..\..\..\. /
//                          .\..\Components\services\sdata\ -I                /
//                          C:\Users\Administrator\Desktop\ZStack-2.5.1a\Proj /
//                          ects\zstack\Samples\SampleApp\CC2530DB\..\..\..\. /
//                          .\..\Components\stack\af\ -I                      /
//                          C:\Users\Administrator\Desktop\ZStack-2.5.1a\Proj /
//                          ects\zstack\Samples\SampleApp\CC2530DB\..\..\..\. /
//                          .\..\Components\stack\nwk\ -I                     /
//                          C:\Users\Administrator\Desktop\ZStack-2.5.1a\Proj /
//                          ects\zstack\Samples\SampleApp\CC2530DB\..\..\..\. /
//                          .\..\Components\stack\sapi\ -I                    /
//                          C:\Users\Administrator\Desktop\ZStack-2.5.1a\Proj /
//                          ects\zstack\Samples\SampleApp\CC2530DB\..\..\..\. /
//                          .\..\Components\stack\sec\ -I                     /
//                          C:\Users\Administrator\Desktop\ZStack-2.5.1a\Proj /
//                          ects\zstack\Samples\SampleApp\CC2530DB\..\..\..\. /
//                          .\..\Components\stack\sys\ -I                     /
//                          C:\Users\Administrator\Desktop\ZStack-2.5.1a\Proj /
//                          ects\zstack\Samples\SampleApp\CC2530DB\..\..\..\. /
//                          .\..\Components\stack\zdo\ -I                     /
//                          C:\Users\Administrator\Desktop\ZStack-2.5.1a\Proj /
//                          ects\zstack\Samples\SampleApp\CC2530DB\..\..\..\. /
//                          .\..\Components\zmac\ -I                          /
//                          C:\Users\Administrator\Desktop\ZStack-2.5.1a\Proj /
//                          ects\zstack\Samples\SampleApp\CC2530DB\..\..\..\. /
//                          .\..\Components\zmac\f8w\ -Ohz                    /
//    List file          =  C:\Users\Administrator\Desktop\ZStack-2.5.1a\Proj /
//                          ects\zstack\Samples\SampleApp\CC2530DB\RouterEB\L /
//                          ist\mpuiic.s51                                    /
//                                                                            /
//                                                                            /
///////////////////////////////////////////////////////////////////////////////

        NAME mpuiic

        RTMODEL "__SystemLibrary", "CLib"
        RTMODEL "__calling_convention", "xdata_reentrant"
        RTMODEL "__code_model", "banked"
        RTMODEL "__core", "plain"
        RTMODEL "__data_model", "large"
        RTMODEL "__dptr_size", "16"
        RTMODEL "__extended_stack", "disabled"
        RTMODEL "__location_for_constants", "data"
        RTMODEL "__number_of_dptrs", "1"
        RTMODEL "__rt_version", "1"

        RSEG DOVERLAY:DATA:NOROOT(0)
        RSEG IOVERLAY:IDATA:NOROOT(0)
        RSEG ISTACK:IDATA:NOROOT(0)
        RSEG PSTACK:XDATA:NOROOT(0)
        RSEG XSTACK:XDATA:NOROOT(0)

        EXTERN ?BANKED_ENTER_XDATA
        EXTERN ?BANKED_LEAVE_XDATA
        EXTERN ?BDISPATCH
        EXTERN ?BRET
        EXTERN ?V0

        PUBLIC ??MPU_IIC_Ack?relay
        FUNCTION ??MPU_IIC_Ack?relay,0203H
        PUBLIC ??MPU_IIC_Delay?relay
        FUNCTION ??MPU_IIC_Delay?relay,0203H
        PUBLIC ??MPU_IIC_Init?relay
        FUNCTION ??MPU_IIC_Init?relay,0203H
        PUBLIC ??MPU_IIC_NAck?relay
        FUNCTION ??MPU_IIC_NAck?relay,0203H
        PUBLIC ??MPU_IIC_Read_Byte?relay
        FUNCTION ??MPU_IIC_Read_Byte?relay,0203H
        PUBLIC ??MPU_IIC_Send_Byte?relay
        FUNCTION ??MPU_IIC_Send_Byte?relay,0203H
        PUBLIC ??MPU_IIC_Start?relay
        FUNCTION ??MPU_IIC_Start?relay,0203H
        PUBLIC ??MPU_IIC_Stop?relay
        FUNCTION ??MPU_IIC_Stop?relay,0203H
        PUBLIC ??MPU_IIC_Wait_Ack?relay
        FUNCTION ??MPU_IIC_Wait_Ack?relay,0203H
        PUBLIC MPU_IIC_Ack
        FUNCTION MPU_IIC_Ack,021203H
        ARGFRAME XSTACK, 9, STACK
        ARGFRAME IOVERLAY, 0, STATIC
        ARGFRAME DOVERLAY, 0, STATIC
        LOCFRAME ISTACK, 2, STACK
        PUBLIC MPU_IIC_Delay
        FUNCTION MPU_IIC_Delay,021203H
        ARGFRAME XSTACK, 0, STACK
        LOCFRAME ISTACK, 2, STACK
        PUBLIC MPU_IIC_Init
        FUNCTION MPU_IIC_Init,021203H
        ARGFRAME XSTACK, 0, STACK
        LOCFRAME ISTACK, 2, STACK
        PUBLIC MPU_IIC_NAck
        FUNCTION MPU_IIC_NAck,021203H
        ARGFRAME XSTACK, 9, STACK
        ARGFRAME IOVERLAY, 0, STATIC
        ARGFRAME DOVERLAY, 0, STATIC
        LOCFRAME ISTACK, 2, STACK
        PUBLIC MPU_IIC_Read_Byte
        FUNCTION MPU_IIC_Read_Byte,021203H
        ARGFRAME XSTACK, 0, STACK
        LOCFRAME XSTACK, 9, STACK
        PUBLIC MPU_IIC_Send_Byte
        FUNCTION MPU_IIC_Send_Byte,021203H
        ARGFRAME XSTACK, 0, STACK
        LOCFRAME XSTACK, 9, STACK
        PUBLIC MPU_IIC_Start
        FUNCTION MPU_IIC_Start,021203H
        ARGFRAME XSTACK, 0, STACK
        LOCFRAME ISTACK, 2, STACK
        PUBLIC MPU_IIC_Stop
        FUNCTION MPU_IIC_Stop,021203H
        ARGFRAME XSTACK, 0, STACK
        ARGFRAME IOVERLAY, 0, STATIC
        ARGFRAME DOVERLAY, 0, STATIC
        LOCFRAME ISTACK, 2, STACK
        PUBLIC MPU_IIC_Wait_Ack
        FUNCTION MPU_IIC_Wait_Ack,021203H
        ARGFRAME XSTACK, 0, STACK
        LOCFRAME ISTACK, 2, STACK
        PUBWEAK P0DIR
        PUBWEAK _A_P0
        
        CFI Names cfiNames0
        CFI StackFrame CFA_SP SP IDATA
        CFI StackFrame CFA_PSP16 PSP16 XDATA
        CFI StackFrame CFA_XSP16 XSP16 XDATA
        CFI StaticOverlayFrame CFA_IOVERLAY IOVERLAY
        CFI StaticOverlayFrame CFA_DOVERLAY DOVERLAY
        CFI Resource `PSW.CY`:1, `B.BR0`:1, `B.BR1`:1, `B.BR2`:1, `B.BR3`:1
        CFI Resource `B.BR4`:1, `B.BR5`:1, `B.BR6`:1, `B.BR7`:1, `VB.BR8`:1
        CFI Resource `VB.BR9`:1, `VB.BR10`:1, `VB.BR11`:1, `VB.BR12`:1
        CFI Resource `VB.BR13`:1, `VB.BR14`:1, `VB.BR15`:1, VB:8, B:8, A:8
        CFI Resource PSW:8, DPL0:8, DPH0:8, R0:8, R1:8, R2:8, R3:8, R4:8, R5:8
        CFI Resource R6:8, R7:8, V0:8, V1:8, V2:8, V3:8, V4:8, V5:8, V6:8, V7:8
        CFI Resource V8:8, V9:8, V10:8, V11:8, V12:8, V13:8, V14:8, V15:8, SP:8
        CFI Resource PSPH:8, PSPL:8, PSP16:16, XSPH:8, XSPL:8, XSP16:16
        CFI VirtualResource ?RET:24
        CFI Resource ?BRET_EXT:8
        CFI VirtualResource ?RET_HIGH:8, ?RET_LOW:8
        CFI ResourceParts PSP16 PSPH, PSPL
        CFI ResourceParts XSP16 XSPH, XSPL
        CFI ResourceParts ?RET ?BRET_EXT, ?RET_HIGH, ?RET_LOW
        CFI EndNames cfiNames0
        
        CFI Common cfiCommon0 Using cfiNames0
        CFI CodeAlign 1
        CFI DataAlign -1
        CFI ReturnAddress ?RET CODE
        CFI CFA_DOVERLAY Used
        CFI CFA_IOVERLAY Used
        CFI CFA_SP SP+-3
        CFI CFA_PSP16 PSP16+0
        CFI CFA_XSP16 XSP16+0
        CFI `PSW.CY` SameValue
        CFI `B.BR0` SameValue
        CFI `B.BR1` SameValue
        CFI `B.BR2` SameValue
        CFI `B.BR3` SameValue
        CFI `B.BR4` SameValue
        CFI `B.BR5` SameValue
        CFI `B.BR6` SameValue
        CFI `B.BR7` SameValue
        CFI `VB.BR8` SameValue
        CFI `VB.BR9` SameValue
        CFI `VB.BR10` SameValue
        CFI `VB.BR11` SameValue
        CFI `VB.BR12` SameValue
        CFI `VB.BR13` SameValue
        CFI `VB.BR14` SameValue
        CFI `VB.BR15` SameValue
        CFI VB SameValue
        CFI B Undefined
        CFI A Undefined
        CFI PSW SameValue
        CFI DPL0 SameValue
        CFI DPH0 SameValue
        CFI R0 Undefined
        CFI R1 Undefined
        CFI R2 Undefined
        CFI R3 Undefined
        CFI R4 Undefined
        CFI R5 Undefined
        CFI R6 SameValue
        CFI R7 SameValue
        CFI V0 SameValue
        CFI V1 SameValue
        CFI V2 SameValue
        CFI V3 SameValue
        CFI V4 SameValue
        CFI V5 SameValue
        CFI V6 SameValue
        CFI V7 SameValue
        CFI V8 SameValue
        CFI V9 SameValue
        CFI V10 SameValue
        CFI V11 SameValue
        CFI V12 SameValue
        CFI V13 SameValue
        CFI V14 SameValue
        CFI V15 SameValue
        CFI PSPH Undefined
        CFI PSPL Undefined
        CFI XSPH Undefined
        CFI XSPL Undefined
        CFI ?RET Concat
        CFI ?BRET_EXT Frame(CFA_SP, 3)
        CFI ?RET_HIGH Frame(CFA_SP, 2)
        CFI ?RET_LOW Frame(CFA_SP, 1)
        CFI EndCommon cfiCommon0
        
        
        CFI Common cfiCommon1 Using cfiNames0
        CFI CodeAlign 1
        CFI DataAlign -1
        CFI ReturnAddress ?RET CODE
        CFI CFA_DOVERLAY Used
        CFI CFA_IOVERLAY Used
        CFI CFA_SP SP+-2
        CFI CFA_PSP16 PSP16+0
        CFI CFA_XSP16 XSP16+0
        CFI `PSW.CY` SameValue
        CFI `B.BR0` SameValue
        CFI `B.BR1` SameValue
        CFI `B.BR2` SameValue
        CFI `B.BR3` SameValue
        CFI `B.BR4` SameValue
        CFI `B.BR5` SameValue
        CFI `B.BR6` SameValue
        CFI `B.BR7` SameValue
        CFI `VB.BR8` SameValue
        CFI `VB.BR9` SameValue
        CFI `VB.BR10` SameValue
        CFI `VB.BR11` SameValue
        CFI `VB.BR12` SameValue
        CFI `VB.BR13` SameValue
        CFI `VB.BR14` SameValue
        CFI `VB.BR15` SameValue
        CFI VB SameValue
        CFI B SameValue
        CFI A SameValue
        CFI PSW SameValue
        CFI DPL0 SameValue
        CFI DPH0 SameValue
        CFI R0 SameValue
        CFI R1 SameValue
        CFI R2 SameValue
        CFI R3 SameValue
        CFI R4 SameValue
        CFI R5 SameValue
        CFI R6 SameValue
        CFI R7 SameValue
        CFI V0 SameValue
        CFI V1 SameValue
        CFI V2 SameValue
        CFI V3 SameValue
        CFI V4 SameValue
        CFI V5 SameValue
        CFI V6 SameValue
        CFI V7 SameValue
        CFI V8 SameValue
        CFI V9 SameValue
        CFI V10 SameValue
        CFI V11 SameValue
        CFI V12 SameValue
        CFI V13 SameValue
        CFI V14 SameValue
        CFI V15 SameValue
        CFI PSPH Undefined
        CFI PSPL Undefined
        CFI XSPH Undefined
        CFI XSPL Undefined
        CFI ?RET Concat
        CFI ?BRET_EXT SameValue
        CFI ?RET_HIGH Frame(CFA_SP, 2)
        CFI ?RET_LOW Frame(CFA_SP, 1)
        CFI EndCommon cfiCommon1
        
delay_us            SYMBOL "delay_us"
delay_1ms           SYMBOL "delay_1ms"
??delay_1ms?relay   SYMBOL "?relay", delay_1ms
??delay_us?relay    SYMBOL "?relay", delay_us
MPU_IIC_Ack         SYMBOL "MPU_IIC_Ack"
??MPU_IIC_Ack?relay SYMBOL "?relay", MPU_IIC_Ack
MPU_IIC_Delay       SYMBOL "MPU_IIC_Delay"
??MPU_IIC_Delay?relay SYMBOL "?relay", MPU_IIC_Delay
MPU_IIC_Init        SYMBOL "MPU_IIC_Init"
??MPU_IIC_Init?relay SYMBOL "?relay", MPU_IIC_Init
MPU_IIC_NAck        SYMBOL "MPU_IIC_NAck"
??MPU_IIC_NAck?relay SYMBOL "?relay", MPU_IIC_NAck
MPU_IIC_Read_Byte   SYMBOL "MPU_IIC_Read_Byte"
??MPU_IIC_Read_Byte?relay SYMBOL "?relay", MPU_IIC_Read_Byte
MPU_IIC_Send_Byte   SYMBOL "MPU_IIC_Send_Byte"
??MPU_IIC_Send_Byte?relay SYMBOL "?relay", MPU_IIC_Send_Byte
MPU_IIC_Start       SYMBOL "MPU_IIC_Start"
??MPU_IIC_Start?relay SYMBOL "?relay", MPU_IIC_Start
MPU_IIC_Stop        SYMBOL "MPU_IIC_Stop"
??MPU_IIC_Stop?relay SYMBOL "?relay", MPU_IIC_Stop
MPU_IIC_Wait_Ack    SYMBOL "MPU_IIC_Wait_Ack"
??MPU_IIC_Wait_Ack?relay SYMBOL "?relay", MPU_IIC_Wait_Ack

        EXTERN delay_us
        FUNCTION delay_us,0202H
        ARGFRAME ISTACK, 2, STACK
        ARGFRAME PSTACK, 0, STACK
        ARGFRAME XSTACK, 9, STACK
        ARGFRAME IOVERLAY, 0, STATIC
        ARGFRAME DOVERLAY, 0, STATIC
        EXTERN delay_1ms
        FUNCTION delay_1ms,0200H
        ARGFRAME ISTACK, 2, STACK
        ARGFRAME PSTACK, 0, STACK
        ARGFRAME XSTACK, 0, STACK
        ARGFRAME IOVERLAY, 0, STATIC
        ARGFRAME DOVERLAY, 0, STATIC
        EXTERN ??delay_1ms?relay
        FUNCTION ??delay_1ms?relay,00H
        EXTERN ??delay_us?relay
        FUNCTION ??delay_us?relay,00H

// C:\Users\Administrator\Desktop\ZStack-2.5.1a\Projects\zstack\Samples\SampleApp\Source\MPU6050\mpuiic.c
//    1 #include "mpuiic.h"

        ASEGN SFR_AN:DATA:NOROOT,080H
// union <unnamed> volatile __sfr _A_P0
_A_P0:
        DATA8
        DS 1

        ASEGN SFR_AN:DATA:NOROOT,0fdH
// unsigned char volatile __sfr P0DIR
P0DIR:
        DATA8
        DS 1
//    2 #include "delay.h"
//    3  
//    4  //MPU IIC 延时函数

        RSEG BANKED_CODE:CODE:NOROOT(0)
//    5 void MPU_IIC_Delay(void)
MPU_IIC_Delay:
        CFI Block cfiBlock0 Using cfiCommon0
        CFI Function MPU_IIC_Delay
        CODE
//    6 {
        FUNCALL MPU_IIC_Delay, delay_us
        LOCFRAME ISTACK, 2, STACK
        LOCFRAME PSTACK, 0, STACK
        LOCFRAME XSTACK, 0, STACK
        LOCFRAME IOVERLAY, 0, STATIC
        LOCFRAME DOVERLAY, 0, STATIC
        ARGFRAME ISTACK, 2, STACK
        ARGFRAME PSTACK, 0, STACK
        ARGFRAME XSTACK, 0, STACK
        ARGFRAME IOVERLAY, 0, STATIC
        ARGFRAME DOVERLAY, 0, STATIC
        PUSH    DPL
        CFI DPL0 Frame(CFA_SP, 4)
        CFI CFA_SP SP+-4
        PUSH    DPH
        CFI EndBlock cfiBlock0
        ; Saved register size: 2
        ; Auto size: 0
//    7 	delay_us(2);
        ; Setup parameters for call to function delay_us
        REQUIRE ?Subroutine2
        ; // Fall through to label ?Subroutine2

        RSEG BANKED_CODE:CODE:NOROOT(0)
?Subroutine2:
        CFI Block cfiBlock1 Using cfiCommon0
        CFI NoFunction
        CFI CFA_SP SP+-5
        CFI DPL0 Frame(CFA_SP, 4)
        CFI DPH0 Frame(CFA_SP, 5)
        MOV     R2,#0x2
        MOV     R3,#0x0
        LCALL   ??delay_us?relay
//    8 }
        SJMP    ??Subroutine5_0
        CFI EndBlock cfiBlock1

        RSEG BANKED_CODE:CODE:NOROOT(0)
?Subroutine0:
        CFI Block cfiBlock2 Using cfiCommon0
        CFI NoFunction
        CFI CFA_SP SP+-5
        CFI DPL0 Frame(CFA_SP, 4)
        CFI DPH0 Frame(CFA_SP, 5)
        LCALL   ?Subroutine3 & 0xFFFF
        CFI EndBlock cfiBlock2
??CrossCallReturnLabel_0:
        ; Setup parameters for call to function delay_us
        ; Setup parameters for call to function delay_us
        REQUIRE ??Subroutine4_0
        ; // Fall through to label ??Subroutine4_0

        RSEG BANKED_CODE:CODE:NOROOT(0)
??Subroutine4_0:
        CFI Block cfiBlock3 Using cfiCommon0
        CFI NoFunction
        CFI CFA_SP SP+-5
        CFI DPL0 Frame(CFA_SP, 4)
        CFI DPH0 Frame(CFA_SP, 5)
        MOV     R2,#0x2
        MOV     R3,#0x0
        LCALL   ??delay_us?relay
        CLR     0x80.6
        CFI EndBlock cfiBlock3
        REQUIRE ??Subroutine5_0
        ; // Fall through to label ??Subroutine5_0

        RSEG BANKED_CODE:CODE:NOROOT(0)
??Subroutine5_0:
        CFI Block cfiBlock4 Using cfiCommon0
        CFI NoFunction
        CFI CFA_SP SP+-5
        CFI DPL0 Frame(CFA_SP, 4)
        CFI DPH0 Frame(CFA_SP, 5)
        POP     DPH
        CFI CFA_SP SP+-4
        CFI DPH0 SameValue
        POP     DPL
        CFI CFA_SP SP+-3
        CFI DPL0 SameValue
        LJMP    ?BRET
        CFI EndBlock cfiBlock4
//    9 
//   10 //初始化IIC

        RSEG BANKED_CODE:CODE:NOROOT(0)
//   11 void MPU_IIC_Init(void)
MPU_IIC_Init:
        CFI Block cfiBlock5 Using cfiCommon0
        CFI Function MPU_IIC_Init
        CODE
//   12 {
        FUNCALL MPU_IIC_Init, delay_1ms
        LOCFRAME ISTACK, 2, STACK
        LOCFRAME PSTACK, 0, STACK
        LOCFRAME XSTACK, 0, STACK
        LOCFRAME IOVERLAY, 0, STATIC
        LOCFRAME DOVERLAY, 0, STATIC
        ARGFRAME ISTACK, 2, STACK
        ARGFRAME PSTACK, 0, STACK
        ARGFRAME XSTACK, 0, STACK
        ARGFRAME IOVERLAY, 0, STATIC
        ARGFRAME DOVERLAY, 0, STATIC
        FUNCALL MPU_IIC_Init, delay_1ms
        LOCFRAME ISTACK, 2, STACK
        LOCFRAME PSTACK, 0, STACK
        LOCFRAME XSTACK, 0, STACK
        LOCFRAME IOVERLAY, 0, STATIC
        LOCFRAME DOVERLAY, 0, STATIC
        ARGFRAME ISTACK, 2, STACK
        ARGFRAME PSTACK, 0, STACK
        ARGFRAME XSTACK, 0, STACK
        ARGFRAME IOVERLAY, 0, STATIC
        ARGFRAME DOVERLAY, 0, STATIC
        PUSH    DPL
        CFI DPL0 Frame(CFA_SP, 4)
        CFI CFA_SP SP+-4
        PUSH    DPH
        CFI DPH0 Frame(CFA_SP, 5)
        CFI CFA_SP SP+-5
        ; Saved register size: 2
        ; Auto size: 0
//   13   MPU_SCL_OUT();
        ORL     0xfd,#0x40
//   14   MPU_SDA_OUT();
        ORL     0xfd,#0x80
//   15 
//   16   MPU_IIC_SDA = 1;
        SETB    0x80.7
//   17   delay_1ms();
        ; Setup parameters for call to function delay_1ms
        LCALL   ??delay_1ms?relay
//   18   MPU_IIC_SCL = 1;
        SETB    0x80.6
//   19   delay_1ms();
        ; Setup parameters for call to function delay_1ms
        LCALL   ??delay_1ms?relay
//   20 }
        SJMP    ??Subroutine5_0
        CFI EndBlock cfiBlock5
        REQUIRE P0DIR
        REQUIRE _A_P0
//   21 //产生IIC起始信号

        RSEG BANKED_CODE:CODE:NOROOT(0)
//   22 void MPU_IIC_Start(void)
MPU_IIC_Start:
        CFI Block cfiBlock6 Using cfiCommon0
        CFI Function MPU_IIC_Start
        CODE
//   23 {
        FUNCALL MPU_IIC_Start, delay_us
        LOCFRAME ISTACK, 2, STACK
        LOCFRAME PSTACK, 0, STACK
        LOCFRAME XSTACK, 0, STACK
        LOCFRAME IOVERLAY, 0, STATIC
        LOCFRAME DOVERLAY, 0, STATIC
        ARGFRAME ISTACK, 2, STACK
        ARGFRAME PSTACK, 0, STACK
        ARGFRAME XSTACK, 0, STACK
        ARGFRAME IOVERLAY, 0, STATIC
        ARGFRAME DOVERLAY, 0, STATIC
        FUNCALL MPU_IIC_Start, delay_us
        LOCFRAME ISTACK, 2, STACK
        LOCFRAME PSTACK, 0, STACK
        LOCFRAME XSTACK, 0, STACK
        LOCFRAME IOVERLAY, 0, STATIC
        LOCFRAME DOVERLAY, 0, STATIC
        ARGFRAME ISTACK, 2, STACK
        ARGFRAME PSTACK, 0, STACK
        ARGFRAME XSTACK, 0, STACK
        ARGFRAME IOVERLAY, 0, STATIC
        ARGFRAME DOVERLAY, 0, STATIC
        PUSH    DPL
        CFI DPL0 Frame(CFA_SP, 4)
        CFI CFA_SP SP+-4
        PUSH    DPH
        CFI DPH0 Frame(CFA_SP, 5)
        CFI CFA_SP SP+-5
        ; Saved register size: 2
        ; Auto size: 0
//   24 	MPU_SDA_OUT();     //sda线输出
        ORL     0xfd,#0x80
//   25 	MPU_IIC_SDA=1;	  	  
        SETB    0x80.7
//   26 	MPU_IIC_SCL=1;
        SETB    0x80.6
//   27 	MPU_IIC_Delay();
        ; Setup parameters for call to function delay_us
        MOV     R2,#0x2
        MOV     R3,#0x0
        LCALL   ??delay_us?relay
//   28  	MPU_IIC_SDA=0;//START:when CLK is high,DATA change form high to low 
        CLR     0x80.7
//   29 	MPU_IIC_Delay();
        ; Setup parameters for call to function delay_us
        SJMP    ??Subroutine4_0
        CFI EndBlock cfiBlock6
        REQUIRE P0DIR
        REQUIRE _A_P0
//   30 	MPU_IIC_SCL=0;//钳住I2C总线，准备发送或接收数据 
//   31 }	  
//   32 //产生IIC停止信号

        RSEG BANKED_CODE:CODE:NOROOT(0)
//   33 void MPU_IIC_Stop(void)
MPU_IIC_Stop:
        CFI Block cfiBlock7 Using cfiCommon0
        CFI Function MPU_IIC_Stop
        CODE
//   34 {
        FUNCALL MPU_IIC_Stop, delay_us
        LOCFRAME ISTACK, 2, STACK
        LOCFRAME PSTACK, 0, STACK
        LOCFRAME XSTACK, 0, STACK
        LOCFRAME IOVERLAY, 0, STATIC
        LOCFRAME DOVERLAY, 0, STATIC
        ARGFRAME ISTACK, 2, STACK
        ARGFRAME PSTACK, 0, STACK
        ARGFRAME XSTACK, 0, STACK
        ARGFRAME IOVERLAY, 0, STATIC
        ARGFRAME DOVERLAY, 0, STATIC
        FUNCALL MPU_IIC_Stop, delay_us
        LOCFRAME ISTACK, 2, STACK
        LOCFRAME PSTACK, 0, STACK
        LOCFRAME XSTACK, 0, STACK
        LOCFRAME IOVERLAY, 0, STATIC
        LOCFRAME DOVERLAY, 0, STATIC
        ARGFRAME ISTACK, 2, STACK
        ARGFRAME PSTACK, 0, STACK
        ARGFRAME XSTACK, 0, STACK
        ARGFRAME IOVERLAY, 0, STATIC
        ARGFRAME DOVERLAY, 0, STATIC
        PUSH    DPL
        CFI DPL0 Frame(CFA_SP, 4)
        CFI CFA_SP SP+-4
        PUSH    DPH
        CFI DPH0 Frame(CFA_SP, 5)
        CFI CFA_SP SP+-5
        ; Saved register size: 2
        ; Auto size: 0
//   35 	MPU_SDA_OUT();//sda线输出
        ORL     0xfd,#0x80
//   36 	MPU_IIC_SCL=0;
        CLR     0x80.6
//   37 	MPU_IIC_SDA=0;//STOP:when CLK is high DATA change form low to high
        CLR     0x80.7
//   38  	MPU_IIC_Delay();
        ; Setup parameters for call to function delay_us
        LCALL   ?Subroutine3 & 0xFFFF
//   39 	MPU_IIC_SCL=1; 
//   40 	MPU_IIC_SDA=1;//发送I2C总线结束信号
??CrossCallReturnLabel_1:
        SETB    0x80.7
//   41 	MPU_IIC_Delay();							   	
        ; Setup parameters for call to function delay_us
        SJMP    ?Subroutine2
        CFI EndBlock cfiBlock7
        REQUIRE P0DIR
        REQUIRE _A_P0
//   42 }
//   43 //等待应答信号到来
//   44 //返回值：1，接收应答失败
//   45 //        0，接收应答成功

        RSEG BANKED_CODE:CODE:NOROOT(0)
//   46 u8 MPU_IIC_Wait_Ack(void)
MPU_IIC_Wait_Ack:
        CFI Block cfiBlock8 Using cfiCommon0
        CFI Function MPU_IIC_Wait_Ack
        CODE
//   47 {
        FUNCALL MPU_IIC_Wait_Ack, delay_us
        LOCFRAME ISTACK, 2, STACK
        LOCFRAME PSTACK, 0, STACK
        LOCFRAME XSTACK, 0, STACK
        LOCFRAME IOVERLAY, 0, STATIC
        LOCFRAME DOVERLAY, 0, STATIC
        ARGFRAME ISTACK, 2, STACK
        ARGFRAME PSTACK, 0, STACK
        ARGFRAME XSTACK, 0, STACK
        ARGFRAME IOVERLAY, 0, STATIC
        ARGFRAME DOVERLAY, 0, STATIC
        FUNCALL MPU_IIC_Wait_Ack, delay_us
        LOCFRAME ISTACK, 2, STACK
        LOCFRAME PSTACK, 0, STACK
        LOCFRAME XSTACK, 0, STACK
        LOCFRAME IOVERLAY, 0, STATIC
        LOCFRAME DOVERLAY, 0, STATIC
        ARGFRAME ISTACK, 2, STACK
        ARGFRAME PSTACK, 0, STACK
        ARGFRAME XSTACK, 0, STACK
        ARGFRAME IOVERLAY, 0, STATIC
        ARGFRAME DOVERLAY, 0, STATIC
        FUNCALL MPU_IIC_Wait_Ack, MPU_IIC_Stop
        LOCFRAME ISTACK, 2, STACK
        LOCFRAME PSTACK, 0, STACK
        LOCFRAME XSTACK, 0, STACK
        LOCFRAME IOVERLAY, 0, STATIC
        LOCFRAME DOVERLAY, 0, STATIC
        ARGFRAME ISTACK, 2, STACK
        ARGFRAME PSTACK, 0, STACK
        ARGFRAME XSTACK, 0, STACK
        ARGFRAME IOVERLAY, 0, STATIC
        ARGFRAME DOVERLAY, 0, STATIC
        PUSH    DPL
        CFI DPL0 Frame(CFA_SP, 4)
        CFI CFA_SP SP+-4
        PUSH    DPH
        CFI DPH0 Frame(CFA_SP, 5)
        CFI CFA_SP SP+-5
        ; Saved register size: 2
        ; Auto size: 0
//   48 	u8 ucErrTime=0;
//   49 	MPU_SDA_IN();      //SDA设置为输入  
        ANL     0xfd,#0x7f
//   50 	MPU_IIC_SDA=1;MPU_IIC_Delay();	   
        SETB    0x80.7
        ; Setup parameters for call to function delay_us
        LCALL   ?Subroutine3 & 0xFFFF
//   51 	MPU_IIC_SCL=1;MPU_IIC_Delay();	 
??CrossCallReturnLabel_2:
        ; Setup parameters for call to function delay_us
        MOV     R2,#0x2
        MOV     R3,#0x0
        LCALL   ??delay_us?relay
        MOV     A,#-0x5
//   52 	while(MPU_READ_SDA)
??MPU_IIC_Wait_Ack_0:
        MOV     C,0x80.7
        JNC     ??MPU_IIC_Wait_Ack_1
//   53 	{
//   54 		ucErrTime++;
//   55 		if(ucErrTime>250)
        DEC     A
        JNZ     ??MPU_IIC_Wait_Ack_0
//   56 		{
//   57 			MPU_IIC_Stop();
        ; Setup parameters for call to function MPU_IIC_Stop
        LCALL   ??MPU_IIC_Stop?relay
//   58 			return 1;
        MOV     R1,#0x1
        SJMP    ??MPU_IIC_Wait_Ack_2
//   59 		}
//   60 	}
//   61 	MPU_IIC_SCL=0;//时钟输出0 	   
??MPU_IIC_Wait_Ack_1:
        CLR     0x80.6
//   62 	return 0;  
        MOV     R1,#0x0
??MPU_IIC_Wait_Ack_2:
        SJMP    ??Subroutine5_0
        CFI EndBlock cfiBlock8
        REQUIRE P0DIR
        REQUIRE _A_P0
//   63 } 

        RSEG BANKED_CODE:CODE:NOROOT(0)
?Subroutine3:
        CFI Block cfiCond9 Using cfiCommon0
        CFI NoFunction
        CFI Conditional ??CrossCallReturnLabel_0
        CFI DPL0 Frame(CFA_SP, 4)
        CFI DPH0 Frame(CFA_SP, 5)
        CFI CFA_SP SP+-5
        CFI Block cfiCond10 Using cfiCommon0
        CFI (cfiCond10) NoFunction
        CFI (cfiCond10) Conditional ??CrossCallReturnLabel_0
        CFI (cfiCond10) DPL0 Frame(CFA_SP, 4)
        CFI (cfiCond10) DPH0 Frame(CFA_SP, 5)
        CFI (cfiCond10) CFA_SP SP+-5
        CFI Block cfiCond11 Using cfiCommon0
        CFI (cfiCond11) NoFunction
        CFI (cfiCond11) Conditional ??CrossCallReturnLabel_1
        CFI (cfiCond11) DPL0 Frame(CFA_SP, 4)
        CFI (cfiCond11) DPH0 Frame(CFA_SP, 5)
        CFI (cfiCond11) CFA_SP SP+-5
        CFI Block cfiCond12 Using cfiCommon0
        CFI (cfiCond12) NoFunction
        CFI (cfiCond12) Conditional ??CrossCallReturnLabel_2
        CFI (cfiCond12) DPL0 Frame(CFA_SP, 4)
        CFI (cfiCond12) DPH0 Frame(CFA_SP, 5)
        CFI (cfiCond12) CFA_SP SP+-5
        CFI Block cfiCond13 Using cfiCommon0
        CFI (cfiCond13) NoFunction
        CFI (cfiCond13) Conditional ??CrossCallReturnLabel_3
        CFI (cfiCond13) R6 load(1, XDATA, add(CFA_XSP16, literal(-9)))
        CFI (cfiCond13) VB load(1, XDATA, add(CFA_XSP16, literal(-8)))
        CFI (cfiCond13) V0 load(1, XDATA, add(CFA_XSP16, literal(-7)))
        CFI (cfiCond13) R7 load(1, XDATA, add(CFA_XSP16, literal(-6)))
        CFI (cfiCond13) ?RET_LOW load(1, XDATA, add(CFA_XSP16, literal(-5)))
        CFI (cfiCond13) ?RET_HIGH load(1, XDATA, add(CFA_XSP16, literal(-4)))
        CFI (cfiCond13) ?BRET_EXT load(1, XDATA, add(CFA_XSP16, literal(-3)))
        CFI (cfiCond13) DPL0 load(1, XDATA, add(CFA_XSP16, literal(-2)))
        CFI (cfiCond13) DPH0 load(1, XDATA, add(CFA_XSP16, literal(-1)))
        CFI (cfiCond13) CFA_SP SP+0
        CFI (cfiCond13) CFA_XSP16 add(XSP16, 9)
        CFI Block cfiPicker14 Using cfiCommon1
        CFI (cfiPicker14) NoFunction
        CFI (cfiPicker14) Picker
        MOV     R2,#0x2
        MOV     R3,#0x0
        LCALL   ??delay_us?relay
        SETB    0x80.6
        RET
        CFI EndBlock cfiCond9
        CFI EndBlock cfiCond10
        CFI EndBlock cfiCond11
        CFI EndBlock cfiCond12
        CFI EndBlock cfiCond13
        CFI EndBlock cfiPicker14
//   64 //产生ACK应答

        RSEG BANKED_CODE:CODE:NOROOT(0)
//   65 void MPU_IIC_Ack(void)
MPU_IIC_Ack:
        CFI Block cfiBlock15 Using cfiCommon0
        CFI Function MPU_IIC_Ack
        CODE
//   66 {
        FUNCALL MPU_IIC_Ack, delay_us
        LOCFRAME ISTACK, 2, STACK
        LOCFRAME PSTACK, 0, STACK
        LOCFRAME XSTACK, 0, STACK
        LOCFRAME IOVERLAY, 0, STATIC
        LOCFRAME DOVERLAY, 0, STATIC
        ARGFRAME ISTACK, 2, STACK
        ARGFRAME PSTACK, 0, STACK
        ARGFRAME XSTACK, 0, STACK
        ARGFRAME IOVERLAY, 0, STATIC
        ARGFRAME DOVERLAY, 0, STATIC
        FUNCALL MPU_IIC_Ack, delay_us
        LOCFRAME ISTACK, 2, STACK
        LOCFRAME PSTACK, 0, STACK
        LOCFRAME XSTACK, 0, STACK
        LOCFRAME IOVERLAY, 0, STATIC
        LOCFRAME DOVERLAY, 0, STATIC
        ARGFRAME ISTACK, 2, STACK
        ARGFRAME PSTACK, 0, STACK
        ARGFRAME XSTACK, 0, STACK
        ARGFRAME IOVERLAY, 0, STATIC
        ARGFRAME DOVERLAY, 0, STATIC
        PUSH    DPL
        CFI DPL0 Frame(CFA_SP, 4)
        CFI CFA_SP SP+-4
        PUSH    DPH
        CFI DPH0 Frame(CFA_SP, 5)
        CFI CFA_SP SP+-5
        ; Saved register size: 2
        ; Auto size: 0
//   67 	MPU_IIC_SCL=0;
        CLR     0x80.6
//   68 	MPU_SDA_OUT();
        ORL     0xfd,#0x80
//   69 	MPU_IIC_SDA=0;
        CLR     0x80.7
//   70 	MPU_IIC_Delay();
        ; Setup parameters for call to function delay_us
        LJMP    ?Subroutine0 & 0xFFFF
        CFI EndBlock cfiBlock15
        REQUIRE _A_P0
        REQUIRE P0DIR
//   71 	MPU_IIC_SCL=1;
//   72 	MPU_IIC_Delay();
//   73 	MPU_IIC_SCL=0;
//   74 }
//   75 //不产生ACK应答		    

        RSEG BANKED_CODE:CODE:NOROOT(0)
//   76 void MPU_IIC_NAck(void)
MPU_IIC_NAck:
        CFI Block cfiBlock16 Using cfiCommon0
        CFI Function MPU_IIC_NAck
        CODE
//   77 {
        FUNCALL MPU_IIC_NAck, delay_us
        LOCFRAME ISTACK, 2, STACK
        LOCFRAME PSTACK, 0, STACK
        LOCFRAME XSTACK, 0, STACK
        LOCFRAME IOVERLAY, 0, STATIC
        LOCFRAME DOVERLAY, 0, STATIC
        ARGFRAME ISTACK, 2, STACK
        ARGFRAME PSTACK, 0, STACK
        ARGFRAME XSTACK, 0, STACK
        ARGFRAME IOVERLAY, 0, STATIC
        ARGFRAME DOVERLAY, 0, STATIC
        FUNCALL MPU_IIC_NAck, delay_us
        LOCFRAME ISTACK, 2, STACK
        LOCFRAME PSTACK, 0, STACK
        LOCFRAME XSTACK, 0, STACK
        LOCFRAME IOVERLAY, 0, STATIC
        LOCFRAME DOVERLAY, 0, STATIC
        ARGFRAME ISTACK, 2, STACK
        ARGFRAME PSTACK, 0, STACK
        ARGFRAME XSTACK, 0, STACK
        ARGFRAME IOVERLAY, 0, STATIC
        ARGFRAME DOVERLAY, 0, STATIC
        PUSH    DPL
        CFI DPL0 Frame(CFA_SP, 4)
        CFI CFA_SP SP+-4
        PUSH    DPH
        CFI DPH0 Frame(CFA_SP, 5)
        CFI CFA_SP SP+-5
        ; Saved register size: 2
        ; Auto size: 0
//   78 	MPU_IIC_SCL=0;
        CLR     0x80.6
//   79 	MPU_SDA_OUT();
        ORL     0xfd,#0x80
//   80 	MPU_IIC_SDA=1;
        SETB    0x80.7
//   81 	MPU_IIC_Delay();
        ; Setup parameters for call to function delay_us
        LJMP    ?Subroutine0 & 0xFFFF
        CFI EndBlock cfiBlock16
        REQUIRE _A_P0
        REQUIRE P0DIR
//   82 	MPU_IIC_SCL=1;
//   83 	MPU_IIC_Delay();
//   84 	MPU_IIC_SCL=0;
//   85 }					 				     
//   86 //IIC发送一个字节
//   87 //返回从机有无应答
//   88 //1，有应答
//   89 //0，无应答			  

        RSEG BANKED_CODE:CODE:NOROOT(0)
//   90 void MPU_IIC_Send_Byte(u8 txd)
MPU_IIC_Send_Byte:
        CFI Block cfiBlock17 Using cfiCommon0
        CFI Function MPU_IIC_Send_Byte
        CODE
//   91 {                        
        FUNCALL MPU_IIC_Send_Byte, delay_us
        LOCFRAME ISTACK, 0, STACK
        LOCFRAME PSTACK, 0, STACK
        LOCFRAME XSTACK, 9, STACK
        LOCFRAME IOVERLAY, 0, STATIC
        LOCFRAME DOVERLAY, 0, STATIC
        ARGFRAME ISTACK, 0, STACK
        ARGFRAME PSTACK, 0, STACK
        ARGFRAME XSTACK, 9, STACK
        ARGFRAME IOVERLAY, 0, STATIC
        ARGFRAME DOVERLAY, 0, STATIC
        FUNCALL MPU_IIC_Send_Byte, delay_us
        LOCFRAME ISTACK, 0, STACK
        LOCFRAME PSTACK, 0, STACK
        LOCFRAME XSTACK, 9, STACK
        LOCFRAME IOVERLAY, 0, STATIC
        LOCFRAME DOVERLAY, 0, STATIC
        ARGFRAME ISTACK, 0, STACK
        ARGFRAME PSTACK, 0, STACK
        ARGFRAME XSTACK, 9, STACK
        ARGFRAME IOVERLAY, 0, STATIC
        ARGFRAME DOVERLAY, 0, STATIC
        MOV     A,#-0x9
        LCALL   ?BANKED_ENTER_XDATA
        CFI DPH0 load(1, XDATA, add(CFA_XSP16, literal(-1)))
        CFI DPL0 load(1, XDATA, add(CFA_XSP16, literal(-2)))
        CFI ?BRET_EXT load(1, XDATA, add(CFA_XSP16, literal(-3)))
        CFI ?RET_HIGH load(1, XDATA, add(CFA_XSP16, literal(-4)))
        CFI ?RET_LOW load(1, XDATA, add(CFA_XSP16, literal(-5)))
        CFI R7 load(1, XDATA, add(CFA_XSP16, literal(-6)))
        CFI V0 load(1, XDATA, add(CFA_XSP16, literal(-7)))
        CFI VB load(1, XDATA, add(CFA_XSP16, literal(-8)))
        CFI R6 load(1, XDATA, add(CFA_XSP16, literal(-9)))
        CFI CFA_SP SP+0
        CFI CFA_XSP16 add(XSP16, 9)
        ; Saved register size: 9
        ; Auto size: 0
        MOV     A,R1
        MOV     R7,A
//   92     u8 t;   
//   93 	MPU_SDA_OUT(); 	    
        ORL     0xfd,#0x80
//   94     MPU_IIC_SCL=0;//拉低时钟开始数据传输
        CLR     0x80.6
//   95     for(t=0;t<8;t++)
        MOV     R6,#0x8
//   96     {              
//   97         MPU_IIC_SDA=(txd&0x80)>>7;
??MPU_IIC_Send_Byte_0:
        MOV     A,R7
        MOV     C,0xE0 /* A   */.7
        MOV     0x80.7,C
//   98         txd<<=1; 	  
        CLR     C
        RLC     A
        MOV     R7,A
//   99 		    MPU_IIC_SCL=1;
        SETB    0x80.6
//  100 		    MPU_IIC_Delay(); 
        ; Setup parameters for call to function delay_us
        MOV     R2,#0x2
        MOV     R3,#0x0
        LCALL   ??delay_us?relay
//  101 		    MPU_IIC_SCL=0;	
        CLR     0x80.6
//  102 		    MPU_IIC_Delay();
        ; Setup parameters for call to function delay_us
        MOV     R2,#0x2
        MOV     R3,#0x0
        LCALL   ??delay_us?relay
//  103     }	 
        DEC     R6
        MOV     A,R6
        JNZ     ??MPU_IIC_Send_Byte_0
        CFI EndBlock cfiBlock17
//  104 } 	    
        REQUIRE ?Subroutine1
        REQUIRE P0DIR
        REQUIRE _A_P0
        ; // Fall through to label ?Subroutine1

        RSEG BANKED_CODE:CODE:NOROOT(0)
?Subroutine1:
        CFI Block cfiBlock18 Using cfiCommon0
        CFI NoFunction
        CFI CFA_SP SP+0
        CFI CFA_XSP16 add(XSP16, 9)
        CFI VB load(1, XDATA, add(CFA_XSP16, literal(-8)))
        CFI DPL0 load(1, XDATA, add(CFA_XSP16, literal(-2)))
        CFI DPH0 load(1, XDATA, add(CFA_XSP16, literal(-1)))
        CFI R6 load(1, XDATA, add(CFA_XSP16, literal(-9)))
        CFI R7 load(1, XDATA, add(CFA_XSP16, literal(-6)))
        CFI V0 load(1, XDATA, add(CFA_XSP16, literal(-7)))
        CFI ?BRET_EXT load(1, XDATA, add(CFA_XSP16, literal(-3)))
        CFI ?RET_HIGH load(1, XDATA, add(CFA_XSP16, literal(-4)))
        CFI ?RET_LOW load(1, XDATA, add(CFA_XSP16, literal(-5)))
        MOV     R7,#0x1
        LJMP    ?BANKED_LEAVE_XDATA
        CFI EndBlock cfiBlock18
//  105 //读1个字节，ack=1时，发送ACK，ack=0，发送nACK   

        RSEG BANKED_CODE:CODE:NOROOT(0)
//  106 u8 MPU_IIC_Read_Byte(unsigned char ack)
MPU_IIC_Read_Byte:
        CFI Block cfiBlock19 Using cfiCommon0
        CFI Function MPU_IIC_Read_Byte
        CODE
//  107 {
        FUNCALL MPU_IIC_Read_Byte, delay_us
        LOCFRAME ISTACK, 0, STACK
        LOCFRAME PSTACK, 0, STACK
        LOCFRAME XSTACK, 9, STACK
        LOCFRAME IOVERLAY, 0, STATIC
        LOCFRAME DOVERLAY, 0, STATIC
        ARGFRAME ISTACK, 0, STACK
        ARGFRAME PSTACK, 0, STACK
        ARGFRAME XSTACK, 9, STACK
        ARGFRAME IOVERLAY, 0, STATIC
        ARGFRAME DOVERLAY, 0, STATIC
        FUNCALL MPU_IIC_Read_Byte, delay_us
        LOCFRAME ISTACK, 0, STACK
        LOCFRAME PSTACK, 0, STACK
        LOCFRAME XSTACK, 9, STACK
        LOCFRAME IOVERLAY, 0, STATIC
        LOCFRAME DOVERLAY, 0, STATIC
        ARGFRAME ISTACK, 0, STACK
        ARGFRAME PSTACK, 0, STACK
        ARGFRAME XSTACK, 9, STACK
        ARGFRAME IOVERLAY, 0, STATIC
        ARGFRAME DOVERLAY, 0, STATIC
        FUNCALL MPU_IIC_Read_Byte, MPU_IIC_NAck
        LOCFRAME ISTACK, 0, STACK
        LOCFRAME PSTACK, 0, STACK
        LOCFRAME XSTACK, 9, STACK
        LOCFRAME IOVERLAY, 0, STATIC
        LOCFRAME DOVERLAY, 0, STATIC
        ARGFRAME ISTACK, 0, STACK
        ARGFRAME PSTACK, 0, STACK
        ARGFRAME XSTACK, 9, STACK
        ARGFRAME IOVERLAY, 0, STATIC
        ARGFRAME DOVERLAY, 0, STATIC
        FUNCALL MPU_IIC_Read_Byte, MPU_IIC_Ack
        LOCFRAME ISTACK, 0, STACK
        LOCFRAME PSTACK, 0, STACK
        LOCFRAME XSTACK, 9, STACK
        LOCFRAME IOVERLAY, 0, STATIC
        LOCFRAME DOVERLAY, 0, STATIC
        ARGFRAME ISTACK, 0, STACK
        ARGFRAME PSTACK, 0, STACK
        ARGFRAME XSTACK, 9, STACK
        ARGFRAME IOVERLAY, 0, STATIC
        ARGFRAME DOVERLAY, 0, STATIC
        MOV     A,#-0x9
        LCALL   ?BANKED_ENTER_XDATA
        CFI DPH0 load(1, XDATA, add(CFA_XSP16, literal(-1)))
        CFI DPL0 load(1, XDATA, add(CFA_XSP16, literal(-2)))
        CFI ?BRET_EXT load(1, XDATA, add(CFA_XSP16, literal(-3)))
        CFI ?RET_HIGH load(1, XDATA, add(CFA_XSP16, literal(-4)))
        CFI ?RET_LOW load(1, XDATA, add(CFA_XSP16, literal(-5)))
        CFI R7 load(1, XDATA, add(CFA_XSP16, literal(-6)))
        CFI V0 load(1, XDATA, add(CFA_XSP16, literal(-7)))
        CFI VB load(1, XDATA, add(CFA_XSP16, literal(-8)))
        CFI R6 load(1, XDATA, add(CFA_XSP16, literal(-9)))
        CFI CFA_SP SP+0
        CFI CFA_XSP16 add(XSP16, 9)
        ; Saved register size: 9
        ; Auto size: 0
        MOV     ?V0 + 0,R1
//  108 	unsigned char i,receive=0;
        MOV     R6,#0x0
//  109 	MPU_SDA_IN();//SDA设置为输入
        ANL     0xfd,#0x7f
//  110   for(i=0;i<8;i++ )
        MOV     R7,#0x8
//  111   {
//  112     MPU_IIC_SCL=0; 
??MPU_IIC_Read_Byte_0:
        CLR     0x80.6
//  113     MPU_IIC_Delay();
        ; Setup parameters for call to function delay_us
        LCALL   ?Subroutine3 & 0xFFFF
//  114     MPU_IIC_SCL=1;
//  115     receive<<=1;
??CrossCallReturnLabel_3:
        MOV     A,R6
        CLR     C
        RLC     A
        MOV     R6,A
//  116     if(MPU_READ_SDA)receive++;   
        MOV     C,0x80.7
        JNC     ??MPU_IIC_Read_Byte_1
        INC     R6
//  117       MPU_IIC_Delay(); 
??MPU_IIC_Read_Byte_1:
        ; Setup parameters for call to function delay_us
        MOV     R2,#0x2
        MOV     R3,#0x0
        LCALL   ??delay_us?relay
//  118   }	
        DEC     R7
        MOV     A,R7
        JNZ     ??MPU_IIC_Read_Byte_0
//  119   
//  120   if (!ack) MPU_IIC_NAck();//发送nACK
        MOV     A,?V0 + 0
        JNZ     ??MPU_IIC_Read_Byte_2
        ; Setup parameters for call to function MPU_IIC_NAck
        LCALL   ??MPU_IIC_NAck?relay
        SJMP    ??MPU_IIC_Read_Byte_3
//  121   else MPU_IIC_Ack(); //发送ACK
??MPU_IIC_Read_Byte_2:
        ; Setup parameters for call to function MPU_IIC_Ack
        LCALL   ??MPU_IIC_Ack?relay
//  122 
//  123   
//  124   return receive;
??MPU_IIC_Read_Byte_3:
        MOV     A,R6
        MOV     R1,A
        SJMP    ?Subroutine1
        CFI EndBlock cfiBlock19
        REQUIRE P0DIR
        REQUIRE _A_P0
//  125 }

        RSEG BANK_RELAYS:CODE:REORDER:NOROOT(0)
??MPU_IIC_Delay?relay:
        LCALL   ?BDISPATCH
        DATA
        DC24    MPU_IIC_Delay

        RSEG BANK_RELAYS:CODE:REORDER:NOROOT(0)
??MPU_IIC_Init?relay:
        LCALL   ?BDISPATCH
        DATA
        DC24    MPU_IIC_Init

        RSEG BANK_RELAYS:CODE:REORDER:NOROOT(0)
??MPU_IIC_Start?relay:
        LCALL   ?BDISPATCH
        DATA
        DC24    MPU_IIC_Start

        RSEG BANK_RELAYS:CODE:REORDER:NOROOT(0)
??MPU_IIC_Stop?relay:
        LCALL   ?BDISPATCH
        DATA
        DC24    MPU_IIC_Stop

        RSEG BANK_RELAYS:CODE:REORDER:NOROOT(0)
??MPU_IIC_Wait_Ack?relay:
        LCALL   ?BDISPATCH
        DATA
        DC24    MPU_IIC_Wait_Ack

        RSEG BANK_RELAYS:CODE:REORDER:NOROOT(0)
??MPU_IIC_Ack?relay:
        LCALL   ?BDISPATCH
        DATA
        DC24    MPU_IIC_Ack

        RSEG BANK_RELAYS:CODE:REORDER:NOROOT(0)
??MPU_IIC_NAck?relay:
        LCALL   ?BDISPATCH
        DATA
        DC24    MPU_IIC_NAck

        RSEG BANK_RELAYS:CODE:REORDER:NOROOT(0)
??MPU_IIC_Send_Byte?relay:
        LCALL   ?BDISPATCH
        DATA
        DC24    MPU_IIC_Send_Byte

        RSEG BANK_RELAYS:CODE:REORDER:NOROOT(0)
??MPU_IIC_Read_Byte?relay:
        LCALL   ?BDISPATCH
        DATA
        DC24    MPU_IIC_Read_Byte

        END
//  126 
//  127 
//  128 
//  129 
//  130 
//  131 
//  132 
//  133 
//  134 
//  135 
//  136 
//  137 
//  138 
//  139 
//  140 
//  141 
//  142 
//  143 
//  144 
//  145 
//  146 
//  147 
//  148 
//  149 
//  150 
//  151 
// 
// 277 bytes in segment BANKED_CODE
//  54 bytes in segment BANK_RELAYS
//   2 bytes in segment SFR_AN
// 
// 331 bytes of CODE memory
//   0 bytes of DATA memory (+ 2 bytes shared)
//
//Errors: none
//Warnings: none
